ARM GAS  /var/folders/19/rz7506jh8xn7x1006s6s574h0000gn/T//ccJBS6DP.s 			page 1


   1              		.syntax unified
   2              		.cpu cortex-m4
   3              		.fpu softvfp
   4              		.eabi_attribute 20, 1
   5              		.eabi_attribute 21, 1
   6              		.eabi_attribute 23, 3
   7              		.eabi_attribute 24, 1
   8              		.eabi_attribute 25, 1
   9              		.eabi_attribute 26, 1
  10              		.eabi_attribute 30, 4
  11              		.eabi_attribute 34, 1
  12              		.eabi_attribute 18, 4
  13              		.thumb
  14              		.syntax unified
  15              		.file	"adc.c"
  16              		.text
  17              	.Ltext0:
  18              		.cfi_sections	.debug_frame
  19              		.section	.text.MX_ADC1_Init,"ax",%progbits
  20              		.align	1
  21              		.global	MX_ADC1_Init
  22              		.thumb
  23              		.thumb_func
  25              	MX_ADC1_Init:
  26              	.LFB125:
  27              		.file 1 "Src/adc.c"
   1:Src/adc.c     **** /**
   2:Src/adc.c     ****   ******************************************************************************
   3:Src/adc.c     ****   * File Name          : ADC.c
   4:Src/adc.c     ****   * Description        : This file provides code for the configuration
   5:Src/adc.c     ****   *                      of the ADC instances.
   6:Src/adc.c     ****   ******************************************************************************
   7:Src/adc.c     ****   *
   8:Src/adc.c     ****   * COPYRIGHT(c) 2016 STMicroelectronics
   9:Src/adc.c     ****   *
  10:Src/adc.c     ****   * Redistribution and use in source and binary forms, with or without modification,
  11:Src/adc.c     ****   * are permitted provided that the following conditions are met:
  12:Src/adc.c     ****   *   1. Redistributions of source code must retain the above copyright notice,
  13:Src/adc.c     ****   *      this list of conditions and the following disclaimer.
  14:Src/adc.c     ****   *   2. Redistributions in binary form must reproduce the above copyright notice,
  15:Src/adc.c     ****   *      this list of conditions and the following disclaimer in the documentation
  16:Src/adc.c     ****   *      and/or other materials provided with the distribution.
  17:Src/adc.c     ****   *   3. Neither the name of STMicroelectronics nor the names of its contributors
  18:Src/adc.c     ****   *      may be used to endorse or promote products derived from this software
  19:Src/adc.c     ****   *      without specific prior written permission.
  20:Src/adc.c     ****   *
  21:Src/adc.c     ****   * THIS SOFTWARE IS PROVIDED BY THE COPYRIGHT HOLDERS AND CONTRIBUTORS "AS IS"
  22:Src/adc.c     ****   * AND ANY EXPRESS OR IMPLIED WARRANTIES, INCLUDING, BUT NOT LIMITED TO, THE
  23:Src/adc.c     ****   * IMPLIED WARRANTIES OF MERCHANTABILITY AND FITNESS FOR A PARTICULAR PURPOSE ARE
  24:Src/adc.c     ****   * DISCLAIMED. IN NO EVENT SHALL THE COPYRIGHT HOLDER OR CONTRIBUTORS BE LIABLE
  25:Src/adc.c     ****   * FOR ANY DIRECT, INDIRECT, INCIDENTAL, SPECIAL, EXEMPLARY, OR CONSEQUENTIAL
  26:Src/adc.c     ****   * DAMAGES (INCLUDING, BUT NOT LIMITED TO, PROCUREMENT OF SUBSTITUTE GOODS OR
  27:Src/adc.c     ****   * SERVICES; LOSS OF USE, DATA, OR PROFITS; OR BUSINESS INTERRUPTION) HOWEVER
  28:Src/adc.c     ****   * CAUSED AND ON ANY THEORY OF LIABILITY, WHETHER IN CONTRACT, STRICT LIABILITY,
  29:Src/adc.c     ****   * OR TORT (INCLUDING NEGLIGENCE OR OTHERWISE) ARISING IN ANY WAY OUT OF THE USE
  30:Src/adc.c     ****   * OF THIS SOFTWARE, EVEN IF ADVISED OF THE POSSIBILITY OF SUCH DAMAGE.
  31:Src/adc.c     ****   *
ARM GAS  /var/folders/19/rz7506jh8xn7x1006s6s574h0000gn/T//ccJBS6DP.s 			page 2


  32:Src/adc.c     ****   ******************************************************************************
  33:Src/adc.c     ****   */
  34:Src/adc.c     **** 
  35:Src/adc.c     **** /* Includes ------------------------------------------------------------------*/
  36:Src/adc.c     **** #include "adc.h"
  37:Src/adc.c     **** 
  38:Src/adc.c     **** #include "gpio.h"
  39:Src/adc.c     **** 
  40:Src/adc.c     **** /* USER CODE BEGIN 0 */
  41:Src/adc.c     **** 
  42:Src/adc.c     **** /* USER CODE END 0 */
  43:Src/adc.c     **** 
  44:Src/adc.c     **** ADC_HandleTypeDef hadc1;
  45:Src/adc.c     **** 
  46:Src/adc.c     **** /* ADC1 init function */
  47:Src/adc.c     **** void MX_ADC1_Init(void)
  48:Src/adc.c     **** {
  28              		.loc 1 48 0
  29              		.cfi_startproc
  30              		@ args = 0, pretend = 0, frame = 16
  31              		@ frame_needed = 0, uses_anonymous_args = 0
  32 0000 30B5     		push	{r4, r5, lr}
  33              	.LCFI0:
  34              		.cfi_def_cfa_offset 12
  35              		.cfi_offset 4, -12
  36              		.cfi_offset 5, -8
  37              		.cfi_offset 14, -4
  49:Src/adc.c     ****   ADC_ChannelConfTypeDef sConfig;
  50:Src/adc.c     **** 
  51:Src/adc.c     ****     /**Configure the global features of the ADC (Clock, Resolution, Data Alignment and number of co
  52:Src/adc.c     ****     */
  53:Src/adc.c     ****   hadc1.Instance = ADC1;
  38              		.loc 1 53 0
  39 0002 1248     		ldr	r0, .L11
  54:Src/adc.c     ****   hadc1.Init.ClockPrescaler = ADC_CLOCK_SYNC_PCLK_DIV4;
  55:Src/adc.c     ****   hadc1.Init.Resolution = ADC_RESOLUTION_10B;
  40              		.loc 1 55 0
  41 0004 1249     		ldr	r1, .L11+4
  56:Src/adc.c     ****   hadc1.Init.ScanConvMode = DISABLE;
  42              		.loc 1 56 0
  43 0006 0024     		movs	r4, #0
  57:Src/adc.c     ****   hadc1.Init.ContinuousConvMode = DISABLE;
  58:Src/adc.c     ****   hadc1.Init.DiscontinuousConvMode = DISABLE;
  59:Src/adc.c     ****   hadc1.Init.ExternalTrigConvEdge = ADC_EXTERNALTRIGCONVEDGE_NONE;
  60:Src/adc.c     ****   hadc1.Init.DataAlign = ADC_DATAALIGN_RIGHT;
  61:Src/adc.c     ****   hadc1.Init.NbrOfConversion = 1;
  44              		.loc 1 61 0
  45 0008 0125     		movs	r5, #1
  48:Src/adc.c     ****   ADC_ChannelConfTypeDef sConfig;
  46              		.loc 1 48 0
  47 000a 85B0     		sub	sp, sp, #20
  48              	.LCFI1:
  49              		.cfi_def_cfa_offset 32
  55:Src/adc.c     ****   hadc1.Init.ScanConvMode = DISABLE;
  50              		.loc 1 55 0
  51 000c 4FF48032 		mov	r2, #65536
  52 0010 4FF08073 		mov	r3, #16777216
ARM GAS  /var/folders/19/rz7506jh8xn7x1006s6s574h0000gn/T//ccJBS6DP.s 			page 3


  53 0014 80E80E00 		stmia	r0, {r1, r2, r3}
  56:Src/adc.c     ****   hadc1.Init.ContinuousConvMode = DISABLE;
  54              		.loc 1 56 0
  55 0018 0461     		str	r4, [r0, #16]
  57:Src/adc.c     ****   hadc1.Init.DiscontinuousConvMode = DISABLE;
  56              		.loc 1 57 0
  57 001a 8461     		str	r4, [r0, #24]
  58:Src/adc.c     ****   hadc1.Init.ExternalTrigConvEdge = ADC_EXTERNALTRIGCONVEDGE_NONE;
  58              		.loc 1 58 0
  59 001c 0462     		str	r4, [r0, #32]
  59:Src/adc.c     ****   hadc1.Init.DataAlign = ADC_DATAALIGN_RIGHT;
  60              		.loc 1 59 0
  61 001e C462     		str	r4, [r0, #44]
  60:Src/adc.c     ****   hadc1.Init.NbrOfConversion = 1;
  62              		.loc 1 60 0
  63 0020 C460     		str	r4, [r0, #12]
  64              		.loc 1 61 0
  65 0022 C561     		str	r5, [r0, #28]
  62:Src/adc.c     ****   hadc1.Init.DMAContinuousRequests = DISABLE;
  66              		.loc 1 62 0
  67 0024 0463     		str	r4, [r0, #48]
  63:Src/adc.c     ****   hadc1.Init.EOCSelection = ADC_EOC_SINGLE_CONV;
  68              		.loc 1 63 0
  69 0026 4561     		str	r5, [r0, #20]
  64:Src/adc.c     ****   if (HAL_ADC_Init(&hadc1) != HAL_OK)
  70              		.loc 1 64 0
  71 0028 FFF7FEFF 		bl	HAL_ADC_Init
  72              	.LVL0:
  73 002c 08B1     		cbz	r0, .L2
  65:Src/adc.c     ****   {
  66:Src/adc.c     ****     Error_Handler();
  74              		.loc 1 66 0
  75 002e FFF7FEFF 		bl	Error_Handler
  76              	.LVL1:
  77              	.L2:
  67:Src/adc.c     ****   }
  68:Src/adc.c     **** 
  69:Src/adc.c     ****     /**Configure for the selected ADC regular channel its corresponding rank in the sequencer and i
  70:Src/adc.c     ****     */
  71:Src/adc.c     ****   sConfig.Channel = ADC_CHANNEL_0;
  72:Src/adc.c     ****   sConfig.Rank = 1;
  73:Src/adc.c     ****   sConfig.SamplingTime = ADC_SAMPLETIME_3CYCLES;
  74:Src/adc.c     ****   if (HAL_ADC_ConfigChannel(&hadc1, &sConfig) != HAL_OK)
  78              		.loc 1 74 0
  79 0032 6946     		mov	r1, sp
  80 0034 0548     		ldr	r0, .L11
  73:Src/adc.c     ****   if (HAL_ADC_ConfigChannel(&hadc1, &sConfig) != HAL_OK)
  81              		.loc 1 73 0
  82 0036 0294     		str	r4, [sp, #8]
  72:Src/adc.c     ****   sConfig.SamplingTime = ADC_SAMPLETIME_3CYCLES;
  83              		.loc 1 72 0
  84 0038 8DE83000 		stmia	sp, {r4, r5}
  85              		.loc 1 74 0
  86 003c FFF7FEFF 		bl	HAL_ADC_ConfigChannel
  87              	.LVL2:
  88 0040 08B1     		cbz	r0, .L1
  75:Src/adc.c     ****   {
ARM GAS  /var/folders/19/rz7506jh8xn7x1006s6s574h0000gn/T//ccJBS6DP.s 			page 4


  76:Src/adc.c     ****     Error_Handler();
  89              		.loc 1 76 0
  90 0042 FFF7FEFF 		bl	Error_Handler
  91              	.LVL3:
  92              	.L1:
  77:Src/adc.c     ****   }
  78:Src/adc.c     **** 
  79:Src/adc.c     **** }
  93              		.loc 1 79 0
  94 0046 05B0     		add	sp, sp, #20
  95              	.LCFI2:
  96              		.cfi_def_cfa_offset 12
  97              		@ sp needed
  98 0048 30BD     		pop	{r4, r5, pc}
  99              	.L12:
 100 004a 00BF     		.align	2
 101              	.L11:
 102 004c 00000000 		.word	hadc1
 103 0050 00200140 		.word	1073815552
 104              		.cfi_endproc
 105              	.LFE125:
 107              		.section	.text.HAL_ADC_MspInit,"ax",%progbits
 108              		.align	1
 109              		.global	HAL_ADC_MspInit
 110              		.thumb
 111              		.thumb_func
 113              	HAL_ADC_MspInit:
 114              	.LFB126:
  80:Src/adc.c     **** 
  81:Src/adc.c     **** void HAL_ADC_MspInit(ADC_HandleTypeDef* adcHandle)
  82:Src/adc.c     **** {
 115              		.loc 1 82 0
 116              		.cfi_startproc
 117              		@ args = 0, pretend = 0, frame = 24
 118              		@ frame_needed = 0, uses_anonymous_args = 0
 119              	.LVL4:
 120 0000 7FB5     		push	{r0, r1, r2, r3, r4, r5, r6, lr}
 121              	.LCFI3:
 122              		.cfi_def_cfa_offset 32
 123              		.cfi_offset 14, -4
  83:Src/adc.c     **** 
  84:Src/adc.c     ****   GPIO_InitTypeDef GPIO_InitStruct;
  85:Src/adc.c     ****   if(adcHandle->Instance==ADC1)
 124              		.loc 1 85 0
 125 0002 0268     		ldr	r2, [r0]
 126 0004 0D4B     		ldr	r3, .L15
 127 0006 9A42     		cmp	r2, r3
 128 0008 15D1     		bne	.L13
 129              	.LBB2:
  86:Src/adc.c     ****   {
  87:Src/adc.c     ****   /* USER CODE BEGIN ADC1_MspInit 0 */
  88:Src/adc.c     **** 
  89:Src/adc.c     ****   /* USER CODE END ADC1_MspInit 0 */
  90:Src/adc.c     ****     /* Peripheral clock enable */
  91:Src/adc.c     ****     __HAL_RCC_ADC1_CLK_ENABLE();
 130              		.loc 1 91 0
 131 000a 0021     		movs	r1, #0
ARM GAS  /var/folders/19/rz7506jh8xn7x1006s6s574h0000gn/T//ccJBS6DP.s 			page 5


 132 000c 03F58C33 		add	r3, r3, #71680
 133 0010 0091     		str	r1, [sp]
 134 0012 5A6C     		ldr	r2, [r3, #68]
 135              	.LBE2:
  92:Src/adc.c     ****   
  93:Src/adc.c     ****     /**ADC1 GPIO Configuration    
  94:Src/adc.c     ****     PA0-WKUP     ------> ADC1_IN0 
  95:Src/adc.c     ****     */
  96:Src/adc.c     ****     GPIO_InitStruct.Pin = GPIO_PIN_0;
  97:Src/adc.c     ****     GPIO_InitStruct.Mode = GPIO_MODE_ANALOG;
  98:Src/adc.c     ****     GPIO_InitStruct.Pull = GPIO_NOPULL;
  99:Src/adc.c     ****     HAL_GPIO_Init(GPIOA, &GPIO_InitStruct);
 136              		.loc 1 99 0
 137 0014 0A48     		ldr	r0, .L15+4
 138              	.LVL5:
 139              	.LBB3:
  91:Src/adc.c     ****   
 140              		.loc 1 91 0
 141 0016 42F48072 		orr	r2, r2, #256
 142 001a 5A64     		str	r2, [r3, #68]
 143 001c 5B6C     		ldr	r3, [r3, #68]
 144              	.LBE3:
  98:Src/adc.c     ****     HAL_GPIO_Init(GPIOA, &GPIO_InitStruct);
 145              		.loc 1 98 0
 146 001e 0391     		str	r1, [sp, #12]
 147              	.LBB4:
  91:Src/adc.c     ****   
 148              		.loc 1 91 0
 149 0020 03F48073 		and	r3, r3, #256
 150 0024 0093     		str	r3, [sp]
 151 0026 009B     		ldr	r3, [sp]
 152              	.LBE4:
  96:Src/adc.c     ****     GPIO_InitStruct.Mode = GPIO_MODE_ANALOG;
 153              		.loc 1 96 0
 154 0028 0123     		movs	r3, #1
 155 002a 0193     		str	r3, [sp, #4]
 156              		.loc 1 99 0
 157 002c 01A9     		add	r1, sp, #4
  97:Src/adc.c     ****     GPIO_InitStruct.Pull = GPIO_NOPULL;
 158              		.loc 1 97 0
 159 002e 0323     		movs	r3, #3
 160 0030 0293     		str	r3, [sp, #8]
 161              		.loc 1 99 0
 162 0032 FFF7FEFF 		bl	HAL_GPIO_Init
 163              	.LVL6:
 164              	.L13:
 100:Src/adc.c     **** 
 101:Src/adc.c     ****   /* USER CODE BEGIN ADC1_MspInit 1 */
 102:Src/adc.c     **** 
 103:Src/adc.c     ****   /* USER CODE END ADC1_MspInit 1 */
 104:Src/adc.c     ****   }
 105:Src/adc.c     **** }
 165              		.loc 1 105 0
 166 0036 07B0     		add	sp, sp, #28
 167              	.LCFI4:
 168              		.cfi_def_cfa_offset 4
 169              		@ sp needed
ARM GAS  /var/folders/19/rz7506jh8xn7x1006s6s574h0000gn/T//ccJBS6DP.s 			page 6


 170 0038 5DF804FB 		ldr	pc, [sp], #4
 171              	.L16:
 172              		.align	2
 173              	.L15:
 174 003c 00200140 		.word	1073815552
 175 0040 00000240 		.word	1073872896
 176              		.cfi_endproc
 177              	.LFE126:
 179              		.section	.text.HAL_ADC_MspDeInit,"ax",%progbits
 180              		.align	1
 181              		.global	HAL_ADC_MspDeInit
 182              		.thumb
 183              		.thumb_func
 185              	HAL_ADC_MspDeInit:
 186              	.LFB127:
 106:Src/adc.c     **** 
 107:Src/adc.c     **** void HAL_ADC_MspDeInit(ADC_HandleTypeDef* adcHandle)
 108:Src/adc.c     **** {
 187              		.loc 1 108 0
 188              		.cfi_startproc
 189              		@ args = 0, pretend = 0, frame = 0
 190              		@ frame_needed = 0, uses_anonymous_args = 0
 191              		@ link register save eliminated.
 192              	.LVL7:
 109:Src/adc.c     **** 
 110:Src/adc.c     ****   if(adcHandle->Instance==ADC1)
 193              		.loc 1 110 0
 194 0000 0268     		ldr	r2, [r0]
 195 0002 064B     		ldr	r3, .L19
 196 0004 9A42     		cmp	r2, r3
 197 0006 08D1     		bne	.L17
 111:Src/adc.c     ****   {
 112:Src/adc.c     ****   /* USER CODE BEGIN ADC1_MspDeInit 0 */
 113:Src/adc.c     **** 
 114:Src/adc.c     ****   /* USER CODE END ADC1_MspDeInit 0 */
 115:Src/adc.c     ****     /* Peripheral clock disable */
 116:Src/adc.c     ****     __HAL_RCC_ADC1_CLK_DISABLE();
 198              		.loc 1 116 0
 199 0008 054A     		ldr	r2, .L19+4
 117:Src/adc.c     ****   
 118:Src/adc.c     ****     /**ADC1 GPIO Configuration    
 119:Src/adc.c     ****     PA0-WKUP     ------> ADC1_IN0 
 120:Src/adc.c     ****     */
 121:Src/adc.c     ****     HAL_GPIO_DeInit(GPIOA, GPIO_PIN_0);
 200              		.loc 1 121 0
 201 000a 0648     		ldr	r0, .L19+8
 202              	.LVL8:
 116:Src/adc.c     ****   
 203              		.loc 1 116 0
 204 000c 536C     		ldr	r3, [r2, #68]
 205 000e 23F48073 		bic	r3, r3, #256
 206 0012 5364     		str	r3, [r2, #68]
 207              		.loc 1 121 0
 208 0014 0121     		movs	r1, #1
 209 0016 FFF7FEBF 		b	HAL_GPIO_DeInit
 210              	.LVL9:
 211              	.L17:
ARM GAS  /var/folders/19/rz7506jh8xn7x1006s6s574h0000gn/T//ccJBS6DP.s 			page 7


 212 001a 7047     		bx	lr
 213              	.L20:
 214              		.align	2
 215              	.L19:
 216 001c 00200140 		.word	1073815552
 217 0020 00380240 		.word	1073887232
 218 0024 00000240 		.word	1073872896
 219              		.cfi_endproc
 220              	.LFE127:
 222              		.comm	hadc1,72,4
 223              		.text
 224              	.Letext0:
 225              		.file 2 "/Applications/Ac6/SystemWorkbench.app/Contents/Eclipse/plugins/fr.ac6.mcu.externaltools.a
 226              		.file 3 "/Applications/Ac6/SystemWorkbench.app/Contents/Eclipse/plugins/fr.ac6.mcu.externaltools.a
 227              		.file 4 "Drivers/CMSIS/Device/ST/STM32F4xx/Include/stm32f401xe.h"
 228              		.file 5 "Drivers/CMSIS/Device/ST/STM32F4xx/Include/stm32f4xx.h"
 229              		.file 6 "Drivers/STM32F4xx_HAL_Driver/Inc/stm32f4xx_hal_def.h"
 230              		.file 7 "Drivers/STM32F4xx_HAL_Driver/Inc/stm32f4xx_hal_gpio.h"
 231              		.file 8 "Drivers/STM32F4xx_HAL_Driver/Inc/stm32f4xx_hal_dma.h"
 232              		.file 9 "Drivers/STM32F4xx_HAL_Driver/Inc/stm32f4xx_hal_adc.h"
 233              		.file 10 "Drivers/CMSIS/Include/core_cm4.h"
 234              		.file 11 "Inc/adc.h"
ARM GAS  /var/folders/19/rz7506jh8xn7x1006s6s574h0000gn/T//ccJBS6DP.s 			page 8

