ARM GAS  /var/folders/19/rz7506jh8xn7x1006s6s574h0000gn/T//cctJgRbh.s 			page 1


   1              		.syntax unified
   2              		.cpu cortex-m4
   3              		.fpu softvfp
   4              		.eabi_attribute 20, 1
   5              		.eabi_attribute 21, 1
   6              		.eabi_attribute 23, 3
   7              		.eabi_attribute 24, 1
   8              		.eabi_attribute 25, 1
   9              		.eabi_attribute 26, 1
  10              		.eabi_attribute 30, 4
  11              		.eabi_attribute 34, 1
  12              		.eabi_attribute 18, 4
  13              		.thumb
  14              		.file	"diskio.c"
  15              		.text
  16              	.Ltext0:
  17              		.cfi_sections	.debug_frame
  18              		.section	.text.disk_status,"ax",%progbits
  19              		.align	1
  20              		.global	disk_status
  21              		.thumb
  22              		.thumb_func
  24              	disk_status:
  25              	.LFB125:
  26              		.file 1 "Middlewares/Third_Party/FatFs/src/diskio.c"
   1:Middlewares/Third_Party/FatFs/src/diskio.c **** /*-----------------------------------------------------------------------*/
   2:Middlewares/Third_Party/FatFs/src/diskio.c **** /* Low level disk I/O module skeleton for FatFs     (C)ChaN, 2014        */
   3:Middlewares/Third_Party/FatFs/src/diskio.c **** /*                                                                       */
   4:Middlewares/Third_Party/FatFs/src/diskio.c **** /*   Portions COPYRIGHT 2015 STMicroelectronics                          */
   5:Middlewares/Third_Party/FatFs/src/diskio.c **** /*   Portions Copyright (C) 2014, ChaN, all right reserved               */
   6:Middlewares/Third_Party/FatFs/src/diskio.c **** /*-----------------------------------------------------------------------*/
   7:Middlewares/Third_Party/FatFs/src/diskio.c **** /* If a working storage control module is available, it should be        */
   8:Middlewares/Third_Party/FatFs/src/diskio.c **** /* attached to the FatFs via a glue function rather than modifying it.   */
   9:Middlewares/Third_Party/FatFs/src/diskio.c **** /* This is an example of glue functions to attach various exsisting      */
  10:Middlewares/Third_Party/FatFs/src/diskio.c **** /* storage control modules to the FatFs module with a defined API.       */
  11:Middlewares/Third_Party/FatFs/src/diskio.c **** /*-----------------------------------------------------------------------*/
  12:Middlewares/Third_Party/FatFs/src/diskio.c **** 
  13:Middlewares/Third_Party/FatFs/src/diskio.c **** /**
  14:Middlewares/Third_Party/FatFs/src/diskio.c ****   ******************************************************************************
  15:Middlewares/Third_Party/FatFs/src/diskio.c ****   * @file    diskio.c 
  16:Middlewares/Third_Party/FatFs/src/diskio.c ****   * @author  MCD Application Team
  17:Middlewares/Third_Party/FatFs/src/diskio.c ****   * @version V1.3.0
  18:Middlewares/Third_Party/FatFs/src/diskio.c ****   * @date    08-May-2015
  19:Middlewares/Third_Party/FatFs/src/diskio.c ****   * @brief   FatFs low level disk I/O module.
  20:Middlewares/Third_Party/FatFs/src/diskio.c ****   ******************************************************************************
  21:Middlewares/Third_Party/FatFs/src/diskio.c ****   * @attention
  22:Middlewares/Third_Party/FatFs/src/diskio.c ****   *
  23:Middlewares/Third_Party/FatFs/src/diskio.c ****   * Licensed under MCD-ST Liberty SW License Agreement V2, (the "License");
  24:Middlewares/Third_Party/FatFs/src/diskio.c ****   * You may not use this file except in compliance with the License.
  25:Middlewares/Third_Party/FatFs/src/diskio.c ****   * You may obtain a copy of the License at:
  26:Middlewares/Third_Party/FatFs/src/diskio.c ****   *
  27:Middlewares/Third_Party/FatFs/src/diskio.c ****   *        http://www.st.com/software_license_agreement_liberty_v2
  28:Middlewares/Third_Party/FatFs/src/diskio.c ****   *
  29:Middlewares/Third_Party/FatFs/src/diskio.c ****   * Unless required by applicable law or agreed to in writing, software 
  30:Middlewares/Third_Party/FatFs/src/diskio.c ****   * distributed under the License is distributed on an "AS IS" BASIS, 
  31:Middlewares/Third_Party/FatFs/src/diskio.c ****   * WITHOUT WARRANTIES OR CONDITIONS OF ANY KIND, either express or implied.
  32:Middlewares/Third_Party/FatFs/src/diskio.c ****   * See the License for the specific language governing permissions and
ARM GAS  /var/folders/19/rz7506jh8xn7x1006s6s574h0000gn/T//cctJgRbh.s 			page 2


  33:Middlewares/Third_Party/FatFs/src/diskio.c ****   * limitations under the License.
  34:Middlewares/Third_Party/FatFs/src/diskio.c ****   *
  35:Middlewares/Third_Party/FatFs/src/diskio.c ****   ******************************************************************************
  36:Middlewares/Third_Party/FatFs/src/diskio.c ****   */
  37:Middlewares/Third_Party/FatFs/src/diskio.c **** 
  38:Middlewares/Third_Party/FatFs/src/diskio.c **** /* Includes ------------------------------------------------------------------*/
  39:Middlewares/Third_Party/FatFs/src/diskio.c **** #include "diskio.h"
  40:Middlewares/Third_Party/FatFs/src/diskio.c **** #include "ff_gen_drv.h"
  41:Middlewares/Third_Party/FatFs/src/diskio.c **** 
  42:Middlewares/Third_Party/FatFs/src/diskio.c **** /* Private typedef -----------------------------------------------------------*/
  43:Middlewares/Third_Party/FatFs/src/diskio.c **** /* Private define ------------------------------------------------------------*/
  44:Middlewares/Third_Party/FatFs/src/diskio.c **** /* Private variables ---------------------------------------------------------*/
  45:Middlewares/Third_Party/FatFs/src/diskio.c **** extern Disk_drvTypeDef  disk;
  46:Middlewares/Third_Party/FatFs/src/diskio.c **** 
  47:Middlewares/Third_Party/FatFs/src/diskio.c **** /* Private function prototypes -----------------------------------------------*/
  48:Middlewares/Third_Party/FatFs/src/diskio.c **** /* Private functions ---------------------------------------------------------*/
  49:Middlewares/Third_Party/FatFs/src/diskio.c **** 
  50:Middlewares/Third_Party/FatFs/src/diskio.c **** /**
  51:Middlewares/Third_Party/FatFs/src/diskio.c ****   * @brief  Gets Disk Status 
  52:Middlewares/Third_Party/FatFs/src/diskio.c ****   * @param  pdrv: Physical drive number (0..)
  53:Middlewares/Third_Party/FatFs/src/diskio.c ****   * @retval DSTATUS: Operation status
  54:Middlewares/Third_Party/FatFs/src/diskio.c ****   */
  55:Middlewares/Third_Party/FatFs/src/diskio.c **** DSTATUS disk_status (
  56:Middlewares/Third_Party/FatFs/src/diskio.c **** 	BYTE pdrv		/* Physical drive nmuber to identify the drive */
  57:Middlewares/Third_Party/FatFs/src/diskio.c **** )
  58:Middlewares/Third_Party/FatFs/src/diskio.c **** {
  27              		.loc 1 58 0
  28              		.cfi_startproc
  29              		@ args = 0, pretend = 0, frame = 0
  30              		@ frame_needed = 0, uses_anonymous_args = 0
  31              	.LVL0:
  32 0000 08B5     		push	{r3, lr}
  33              	.LCFI0:
  34              		.cfi_def_cfa_offset 8
  35              		.cfi_offset 3, -8
  36              		.cfi_offset 14, -4
  59:Middlewares/Third_Party/FatFs/src/diskio.c ****   DSTATUS stat;
  60:Middlewares/Third_Party/FatFs/src/diskio.c ****   
  61:Middlewares/Third_Party/FatFs/src/diskio.c ****   stat = disk.drv[pdrv]->disk_status(disk.lun[pdrv]);
  37              		.loc 1 61 0
  38 0002 044B     		ldr	r3, .L2
  39 0004 03EB8002 		add	r2, r3, r0, lsl #2
  40 0008 1844     		add	r0, r0, r3
  41              	.LVL1:
  42 000a 5268     		ldr	r2, [r2, #4]
  43 000c 007A     		ldrb	r0, [r0, #8]	@ zero_extendqisi2
  44 000e 5268     		ldr	r2, [r2, #4]
  45 0010 9047     		blx	r2
  46              	.LVL2:
  62:Middlewares/Third_Party/FatFs/src/diskio.c ****   return stat;
  63:Middlewares/Third_Party/FatFs/src/diskio.c **** }
  47              		.loc 1 63 0
  48 0012 08BD     		pop	{r3, pc}
  49              	.L3:
  50              		.align	2
  51              	.L2:
  52 0014 00000000 		.word	disk
ARM GAS  /var/folders/19/rz7506jh8xn7x1006s6s574h0000gn/T//cctJgRbh.s 			page 3


  53              		.cfi_endproc
  54              	.LFE125:
  56              		.section	.text.disk_initialize,"ax",%progbits
  57              		.align	1
  58              		.global	disk_initialize
  59              		.thumb
  60              		.thumb_func
  62              	disk_initialize:
  63              	.LFB126:
  64:Middlewares/Third_Party/FatFs/src/diskio.c **** 
  65:Middlewares/Third_Party/FatFs/src/diskio.c **** /**
  66:Middlewares/Third_Party/FatFs/src/diskio.c ****   * @brief  Initializes a Drive
  67:Middlewares/Third_Party/FatFs/src/diskio.c ****   * @param  pdrv: Physical drive number (0..)
  68:Middlewares/Third_Party/FatFs/src/diskio.c ****   * @retval DSTATUS: Operation status
  69:Middlewares/Third_Party/FatFs/src/diskio.c ****   */
  70:Middlewares/Third_Party/FatFs/src/diskio.c **** DSTATUS disk_initialize (
  71:Middlewares/Third_Party/FatFs/src/diskio.c **** 	BYTE pdrv				/* Physical drive nmuber to identify the drive */
  72:Middlewares/Third_Party/FatFs/src/diskio.c **** )
  73:Middlewares/Third_Party/FatFs/src/diskio.c **** {
  64              		.loc 1 73 0
  65              		.cfi_startproc
  66              		@ args = 0, pretend = 0, frame = 0
  67              		@ frame_needed = 0, uses_anonymous_args = 0
  68              	.LVL3:
  69 0000 08B5     		push	{r3, lr}
  70              	.LCFI1:
  71              		.cfi_def_cfa_offset 8
  72              		.cfi_offset 3, -8
  73              		.cfi_offset 14, -4
  74:Middlewares/Third_Party/FatFs/src/diskio.c ****   DSTATUS stat = RES_OK;
  75:Middlewares/Third_Party/FatFs/src/diskio.c ****   
  76:Middlewares/Third_Party/FatFs/src/diskio.c ****   if(disk.is_initialized[pdrv] == 0)
  74              		.loc 1 76 0
  75 0002 074B     		ldr	r3, .L8
  76 0004 1A5C     		ldrb	r2, [r3, r0]	@ zero_extendqisi2
  77 0006 4AB9     		cbnz	r2, .L6
  77:Middlewares/Third_Party/FatFs/src/diskio.c ****   { 
  78:Middlewares/Third_Party/FatFs/src/diskio.c ****     disk.is_initialized[pdrv] = 1;
  78              		.loc 1 78 0
  79 0008 0122     		movs	r2, #1
  80 000a 1A54     		strb	r2, [r3, r0]
  79:Middlewares/Third_Party/FatFs/src/diskio.c ****     stat = disk.drv[pdrv]->disk_initialize(disk.lun[pdrv]);
  81              		.loc 1 79 0
  82 000c 03EB8002 		add	r2, r3, r0, lsl #2
  83 0010 1844     		add	r0, r0, r3
  84              	.LVL4:
  85 0012 5268     		ldr	r2, [r2, #4]
  86 0014 007A     		ldrb	r0, [r0, #8]	@ zero_extendqisi2
  87 0016 1268     		ldr	r2, [r2]
  88 0018 9047     		blx	r2
  89              	.LVL5:
  90 001a 08BD     		pop	{r3, pc}
  91              	.LVL6:
  92              	.L6:
  74:Middlewares/Third_Party/FatFs/src/diskio.c ****   DSTATUS stat = RES_OK;
  93              		.loc 1 74 0
  94 001c 0020     		movs	r0, #0
ARM GAS  /var/folders/19/rz7506jh8xn7x1006s6s574h0000gn/T//cctJgRbh.s 			page 4


  95              	.LVL7:
  80:Middlewares/Third_Party/FatFs/src/diskio.c ****   }
  81:Middlewares/Third_Party/FatFs/src/diskio.c ****   return stat;
  82:Middlewares/Third_Party/FatFs/src/diskio.c **** }
  96              		.loc 1 82 0
  97 001e 08BD     		pop	{r3, pc}
  98              	.L9:
  99              		.align	2
 100              	.L8:
 101 0020 00000000 		.word	disk
 102              		.cfi_endproc
 103              	.LFE126:
 105              		.section	.text.disk_read,"ax",%progbits
 106              		.align	1
 107              		.global	disk_read
 108              		.thumb
 109              		.thumb_func
 111              	disk_read:
 112              	.LFB127:
  83:Middlewares/Third_Party/FatFs/src/diskio.c **** 
  84:Middlewares/Third_Party/FatFs/src/diskio.c **** /**
  85:Middlewares/Third_Party/FatFs/src/diskio.c ****   * @brief  Reads Sector(s) 
  86:Middlewares/Third_Party/FatFs/src/diskio.c ****   * @param  pdrv: Physical drive number (0..)
  87:Middlewares/Third_Party/FatFs/src/diskio.c ****   * @param  *buff: Data buffer to store read data
  88:Middlewares/Third_Party/FatFs/src/diskio.c ****   * @param  sector: Sector address (LBA)
  89:Middlewares/Third_Party/FatFs/src/diskio.c ****   * @param  count: Number of sectors to read (1..128)
  90:Middlewares/Third_Party/FatFs/src/diskio.c ****   * @retval DRESULT: Operation result
  91:Middlewares/Third_Party/FatFs/src/diskio.c ****   */
  92:Middlewares/Third_Party/FatFs/src/diskio.c **** DRESULT disk_read (
  93:Middlewares/Third_Party/FatFs/src/diskio.c **** 	BYTE pdrv,		/* Physical drive nmuber to identify the drive */
  94:Middlewares/Third_Party/FatFs/src/diskio.c **** 	BYTE *buff,		/* Data buffer to store read data */
  95:Middlewares/Third_Party/FatFs/src/diskio.c **** 	DWORD sector,	        /* Sector address in LBA */
  96:Middlewares/Third_Party/FatFs/src/diskio.c **** 	UINT count		/* Number of sectors to read */
  97:Middlewares/Third_Party/FatFs/src/diskio.c **** )
  98:Middlewares/Third_Party/FatFs/src/diskio.c **** {
 113              		.loc 1 98 0
 114              		.cfi_startproc
 115              		@ args = 0, pretend = 0, frame = 0
 116              		@ frame_needed = 0, uses_anonymous_args = 0
 117              	.LVL8:
 118 0000 38B5     		push	{r3, r4, r5, lr}
 119              	.LCFI2:
 120              		.cfi_def_cfa_offset 16
 121              		.cfi_offset 3, -16
 122              		.cfi_offset 4, -12
 123              		.cfi_offset 5, -8
 124              		.cfi_offset 14, -4
  99:Middlewares/Third_Party/FatFs/src/diskio.c ****   DRESULT res;
 100:Middlewares/Third_Party/FatFs/src/diskio.c ****  
 101:Middlewares/Third_Party/FatFs/src/diskio.c ****   res = disk.drv[pdrv]->disk_read(disk.lun[pdrv], buff, sector, count);
 125              		.loc 1 101 0
 126 0002 044C     		ldr	r4, .L11
 127 0004 04EB8005 		add	r5, r4, r0, lsl #2
 128 0008 2044     		add	r0, r0, r4
 129              	.LVL9:
 130 000a 6D68     		ldr	r5, [r5, #4]
 131 000c 007A     		ldrb	r0, [r0, #8]	@ zero_extendqisi2
ARM GAS  /var/folders/19/rz7506jh8xn7x1006s6s574h0000gn/T//cctJgRbh.s 			page 5


 132 000e AD68     		ldr	r5, [r5, #8]
 133 0010 A847     		blx	r5
 134              	.LVL10:
 102:Middlewares/Third_Party/FatFs/src/diskio.c ****   return res;
 103:Middlewares/Third_Party/FatFs/src/diskio.c **** }
 135              		.loc 1 103 0
 136 0012 38BD     		pop	{r3, r4, r5, pc}
 137              	.L12:
 138              		.align	2
 139              	.L11:
 140 0014 00000000 		.word	disk
 141              		.cfi_endproc
 142              	.LFE127:
 144              		.section	.text.disk_write,"ax",%progbits
 145              		.align	1
 146              		.global	disk_write
 147              		.thumb
 148              		.thumb_func
 150              	disk_write:
 151              	.LFB128:
 104:Middlewares/Third_Party/FatFs/src/diskio.c **** 
 105:Middlewares/Third_Party/FatFs/src/diskio.c **** /**
 106:Middlewares/Third_Party/FatFs/src/diskio.c ****   * @brief  Writes Sector(s)  
 107:Middlewares/Third_Party/FatFs/src/diskio.c ****   * @param  pdrv: Physical drive number (0..)
 108:Middlewares/Third_Party/FatFs/src/diskio.c ****   * @param  *buff: Data to be written
 109:Middlewares/Third_Party/FatFs/src/diskio.c ****   * @param  sector: Sector address (LBA)
 110:Middlewares/Third_Party/FatFs/src/diskio.c ****   * @param  count: Number of sectors to write (1..128)
 111:Middlewares/Third_Party/FatFs/src/diskio.c ****   * @retval DRESULT: Operation result
 112:Middlewares/Third_Party/FatFs/src/diskio.c ****   */
 113:Middlewares/Third_Party/FatFs/src/diskio.c **** #if _USE_WRITE == 1
 114:Middlewares/Third_Party/FatFs/src/diskio.c **** DRESULT disk_write (
 115:Middlewares/Third_Party/FatFs/src/diskio.c **** 	BYTE pdrv,		/* Physical drive nmuber to identify the drive */
 116:Middlewares/Third_Party/FatFs/src/diskio.c **** 	const BYTE *buff,	/* Data to be written */
 117:Middlewares/Third_Party/FatFs/src/diskio.c **** 	DWORD sector,		/* Sector address in LBA */
 118:Middlewares/Third_Party/FatFs/src/diskio.c **** 	UINT count        	/* Number of sectors to write */
 119:Middlewares/Third_Party/FatFs/src/diskio.c **** )
 120:Middlewares/Third_Party/FatFs/src/diskio.c **** {
 152              		.loc 1 120 0
 153              		.cfi_startproc
 154              		@ args = 0, pretend = 0, frame = 0
 155              		@ frame_needed = 0, uses_anonymous_args = 0
 156              	.LVL11:
 157 0000 38B5     		push	{r3, r4, r5, lr}
 158              	.LCFI3:
 159              		.cfi_def_cfa_offset 16
 160              		.cfi_offset 3, -16
 161              		.cfi_offset 4, -12
 162              		.cfi_offset 5, -8
 163              		.cfi_offset 14, -4
 121:Middlewares/Third_Party/FatFs/src/diskio.c ****   DRESULT res;
 122:Middlewares/Third_Party/FatFs/src/diskio.c ****   
 123:Middlewares/Third_Party/FatFs/src/diskio.c ****   res = disk.drv[pdrv]->disk_write(disk.lun[pdrv], buff, sector, count);
 164              		.loc 1 123 0
 165 0002 044C     		ldr	r4, .L14
 166 0004 04EB8005 		add	r5, r4, r0, lsl #2
 167 0008 2044     		add	r0, r0, r4
 168              	.LVL12:
ARM GAS  /var/folders/19/rz7506jh8xn7x1006s6s574h0000gn/T//cctJgRbh.s 			page 6


 169 000a 6D68     		ldr	r5, [r5, #4]
 170 000c 007A     		ldrb	r0, [r0, #8]	@ zero_extendqisi2
 171 000e ED68     		ldr	r5, [r5, #12]
 172 0010 A847     		blx	r5
 173              	.LVL13:
 124:Middlewares/Third_Party/FatFs/src/diskio.c ****   return res;
 125:Middlewares/Third_Party/FatFs/src/diskio.c **** }
 174              		.loc 1 125 0
 175 0012 38BD     		pop	{r3, r4, r5, pc}
 176              	.L15:
 177              		.align	2
 178              	.L14:
 179 0014 00000000 		.word	disk
 180              		.cfi_endproc
 181              	.LFE128:
 183              		.section	.text.disk_ioctl,"ax",%progbits
 184              		.align	1
 185              		.global	disk_ioctl
 186              		.thumb
 187              		.thumb_func
 189              	disk_ioctl:
 190              	.LFB129:
 126:Middlewares/Third_Party/FatFs/src/diskio.c **** #endif /* _USE_WRITE == 1 */
 127:Middlewares/Third_Party/FatFs/src/diskio.c **** 
 128:Middlewares/Third_Party/FatFs/src/diskio.c **** /**
 129:Middlewares/Third_Party/FatFs/src/diskio.c ****   * @brief  I/O control operation  
 130:Middlewares/Third_Party/FatFs/src/diskio.c ****   * @param  pdrv: Physical drive number (0..)
 131:Middlewares/Third_Party/FatFs/src/diskio.c ****   * @param  cmd: Control code
 132:Middlewares/Third_Party/FatFs/src/diskio.c ****   * @param  *buff: Buffer to send/receive control data
 133:Middlewares/Third_Party/FatFs/src/diskio.c ****   * @retval DRESULT: Operation result
 134:Middlewares/Third_Party/FatFs/src/diskio.c ****   */
 135:Middlewares/Third_Party/FatFs/src/diskio.c **** #if _USE_IOCTL == 1
 136:Middlewares/Third_Party/FatFs/src/diskio.c **** DRESULT disk_ioctl (
 137:Middlewares/Third_Party/FatFs/src/diskio.c **** 	BYTE pdrv,		/* Physical drive nmuber (0..) */
 138:Middlewares/Third_Party/FatFs/src/diskio.c **** 	BYTE cmd,		/* Control code */
 139:Middlewares/Third_Party/FatFs/src/diskio.c **** 	void *buff		/* Buffer to send/receive control data */
 140:Middlewares/Third_Party/FatFs/src/diskio.c **** )
 141:Middlewares/Third_Party/FatFs/src/diskio.c **** {
 191              		.loc 1 141 0
 192              		.cfi_startproc
 193              		@ args = 0, pretend = 0, frame = 0
 194              		@ frame_needed = 0, uses_anonymous_args = 0
 195              	.LVL14:
 142:Middlewares/Third_Party/FatFs/src/diskio.c ****   DRESULT res;
 143:Middlewares/Third_Party/FatFs/src/diskio.c **** 
 144:Middlewares/Third_Party/FatFs/src/diskio.c ****   res = disk.drv[pdrv]->disk_ioctl(disk.lun[pdrv], cmd, buff);
 196              		.loc 1 144 0
 197 0000 044B     		ldr	r3, .L17
 141:Middlewares/Third_Party/FatFs/src/diskio.c **** {
 198              		.loc 1 141 0
 199 0002 10B5     		push	{r4, lr}
 200              	.LCFI4:
 201              		.cfi_def_cfa_offset 8
 202              		.cfi_offset 4, -8
 203              		.cfi_offset 14, -4
 204              		.loc 1 144 0
 205 0004 03EB8004 		add	r4, r3, r0, lsl #2
ARM GAS  /var/folders/19/rz7506jh8xn7x1006s6s574h0000gn/T//cctJgRbh.s 			page 7


 206 0008 1844     		add	r0, r0, r3
 207              	.LVL15:
 208 000a 6468     		ldr	r4, [r4, #4]
 209 000c 007A     		ldrb	r0, [r0, #8]	@ zero_extendqisi2
 210 000e 2469     		ldr	r4, [r4, #16]
 211 0010 A047     		blx	r4
 212              	.LVL16:
 145:Middlewares/Third_Party/FatFs/src/diskio.c ****   return res;
 146:Middlewares/Third_Party/FatFs/src/diskio.c **** }
 213              		.loc 1 146 0
 214 0012 10BD     		pop	{r4, pc}
 215              	.L18:
 216              		.align	2
 217              	.L17:
 218 0014 00000000 		.word	disk
 219              		.cfi_endproc
 220              	.LFE129:
 222              		.section	.text.get_fattime,"ax",%progbits
 223              		.align	1
 224              		.weak	get_fattime
 225              		.thumb
 226              		.thumb_func
 228              	get_fattime:
 229              	.LFB130:
 147:Middlewares/Third_Party/FatFs/src/diskio.c **** #endif /* _USE_IOCTL == 1 */
 148:Middlewares/Third_Party/FatFs/src/diskio.c **** 
 149:Middlewares/Third_Party/FatFs/src/diskio.c **** /**
 150:Middlewares/Third_Party/FatFs/src/diskio.c ****   * @brief  Gets Time from RTC 
 151:Middlewares/Third_Party/FatFs/src/diskio.c ****   * @param  None
 152:Middlewares/Third_Party/FatFs/src/diskio.c ****   * @retval Time in DWORD
 153:Middlewares/Third_Party/FatFs/src/diskio.c ****   */
 154:Middlewares/Third_Party/FatFs/src/diskio.c **** __weak DWORD get_fattime (void)
 155:Middlewares/Third_Party/FatFs/src/diskio.c **** {
 230              		.loc 1 155 0
 231              		.cfi_startproc
 232              		@ args = 0, pretend = 0, frame = 0
 233              		@ frame_needed = 0, uses_anonymous_args = 0
 234              		@ link register save eliminated.
 156:Middlewares/Third_Party/FatFs/src/diskio.c ****   return 0;
 157:Middlewares/Third_Party/FatFs/src/diskio.c **** }
 235              		.loc 1 157 0
 236 0000 0020     		movs	r0, #0
 237 0002 7047     		bx	lr
 238              		.cfi_endproc
 239              	.LFE130:
 241              		.text
 242              	.Letext0:
 243              		.file 2 "Middlewares/Third_Party/FatFs/src/integer.h"
 244              		.file 3 "Middlewares/Third_Party/FatFs/src/diskio.h"
 245              		.file 4 "/Users/Arethusa/Library/Arduino15/packages/arduino/tools/arm-none-eabi-gcc/4.8.3-2014q1/a
 246              		.file 5 "/Users/Arethusa/Library/Arduino15/packages/arduino/tools/arm-none-eabi-gcc/4.8.3-2014q1/a
 247              		.file 6 "Middlewares/Third_Party/FatFs/src/ff_gen_drv.h"
 248              		.file 7 "Drivers/CMSIS/Include/core_cm4.h"
ARM GAS  /var/folders/19/rz7506jh8xn7x1006s6s574h0000gn/T//cctJgRbh.s 			page 8

