ARM GAS  /var/folders/19/rz7506jh8xn7x1006s6s574h0000gn/T//ccfFXBGL.s 			page 1


   1              		.syntax unified
   2              		.cpu cortex-m4
   3              		.fpu softvfp
   4              		.eabi_attribute 20, 1
   5              		.eabi_attribute 21, 1
   6              		.eabi_attribute 23, 3
   7              		.eabi_attribute 24, 1
   8              		.eabi_attribute 25, 1
   9              		.eabi_attribute 26, 1
  10              		.eabi_attribute 30, 4
  11              		.eabi_attribute 34, 1
  12              		.eabi_attribute 18, 4
  13              		.thumb
  14              		.file	"ff_gen_drv.c"
  15              		.text
  16              	.Ltext0:
  17              		.cfi_sections	.debug_frame
  18              		.section	.text.FATFS_LinkDriverEx,"ax",%progbits
  19              		.align	1
  20              		.global	FATFS_LinkDriverEx
  21              		.thumb
  22              		.thumb_func
  24              	FATFS_LinkDriverEx:
  25              	.LFB125:
  26              		.file 1 "Middlewares/Third_Party/FatFs/src/ff_gen_drv.c"
   1:Middlewares/Third_Party/FatFs/src/ff_gen_drv.c **** /**
   2:Middlewares/Third_Party/FatFs/src/ff_gen_drv.c ****   ******************************************************************************
   3:Middlewares/Third_Party/FatFs/src/ff_gen_drv.c ****   * @file    ff_gen_drv.c 
   4:Middlewares/Third_Party/FatFs/src/ff_gen_drv.c ****   * @author  MCD Application Team
   5:Middlewares/Third_Party/FatFs/src/ff_gen_drv.c ****   * @version V1.3.0
   6:Middlewares/Third_Party/FatFs/src/ff_gen_drv.c ****   * @date    08-May-2015
   7:Middlewares/Third_Party/FatFs/src/ff_gen_drv.c ****   * @brief   FatFs generic low level driver.
   8:Middlewares/Third_Party/FatFs/src/ff_gen_drv.c ****   ******************************************************************************
   9:Middlewares/Third_Party/FatFs/src/ff_gen_drv.c ****   * @attention
  10:Middlewares/Third_Party/FatFs/src/ff_gen_drv.c ****   *
  11:Middlewares/Third_Party/FatFs/src/ff_gen_drv.c ****   * <h2><center>&copy; COPYRIGHT 2015 STMicroelectronics</center></h2>
  12:Middlewares/Third_Party/FatFs/src/ff_gen_drv.c ****   *
  13:Middlewares/Third_Party/FatFs/src/ff_gen_drv.c ****   * Licensed under MCD-ST Liberty SW License Agreement V2, (the "License");
  14:Middlewares/Third_Party/FatFs/src/ff_gen_drv.c ****   * You may not use this file except in compliance with the License.
  15:Middlewares/Third_Party/FatFs/src/ff_gen_drv.c ****   * You may obtain a copy of the License at:
  16:Middlewares/Third_Party/FatFs/src/ff_gen_drv.c ****   *
  17:Middlewares/Third_Party/FatFs/src/ff_gen_drv.c ****   *        http://www.st.com/software_license_agreement_liberty_v2
  18:Middlewares/Third_Party/FatFs/src/ff_gen_drv.c ****   *
  19:Middlewares/Third_Party/FatFs/src/ff_gen_drv.c ****   * Unless required by applicable law or agreed to in writing, software 
  20:Middlewares/Third_Party/FatFs/src/ff_gen_drv.c ****   * distributed under the License is distributed on an "AS IS" BASIS, 
  21:Middlewares/Third_Party/FatFs/src/ff_gen_drv.c ****   * WITHOUT WARRANTIES OR CONDITIONS OF ANY KIND, either express or implied.
  22:Middlewares/Third_Party/FatFs/src/ff_gen_drv.c ****   * See the License for the specific language governing permissions and
  23:Middlewares/Third_Party/FatFs/src/ff_gen_drv.c ****   * limitations under the License.
  24:Middlewares/Third_Party/FatFs/src/ff_gen_drv.c ****   *
  25:Middlewares/Third_Party/FatFs/src/ff_gen_drv.c ****   ******************************************************************************
  26:Middlewares/Third_Party/FatFs/src/ff_gen_drv.c ****   */ 
  27:Middlewares/Third_Party/FatFs/src/ff_gen_drv.c **** 
  28:Middlewares/Third_Party/FatFs/src/ff_gen_drv.c **** /* Includes ------------------------------------------------------------------*/
  29:Middlewares/Third_Party/FatFs/src/ff_gen_drv.c **** #include "ff_gen_drv.h"
  30:Middlewares/Third_Party/FatFs/src/ff_gen_drv.c **** 
  31:Middlewares/Third_Party/FatFs/src/ff_gen_drv.c **** /* Private typedef -----------------------------------------------------------*/
  32:Middlewares/Third_Party/FatFs/src/ff_gen_drv.c **** /* Private define ------------------------------------------------------------*/
ARM GAS  /var/folders/19/rz7506jh8xn7x1006s6s574h0000gn/T//ccfFXBGL.s 			page 2


  33:Middlewares/Third_Party/FatFs/src/ff_gen_drv.c **** /* Private variables ---------------------------------------------------------*/
  34:Middlewares/Third_Party/FatFs/src/ff_gen_drv.c **** Disk_drvTypeDef disk = {{0},{0},{0},0};
  35:Middlewares/Third_Party/FatFs/src/ff_gen_drv.c **** 
  36:Middlewares/Third_Party/FatFs/src/ff_gen_drv.c **** /* Private function prototypes -----------------------------------------------*/
  37:Middlewares/Third_Party/FatFs/src/ff_gen_drv.c **** /* Private functions ---------------------------------------------------------*/
  38:Middlewares/Third_Party/FatFs/src/ff_gen_drv.c **** 
  39:Middlewares/Third_Party/FatFs/src/ff_gen_drv.c **** /**
  40:Middlewares/Third_Party/FatFs/src/ff_gen_drv.c ****   * @brief  Links a compatible diskio driver/lun id and increments the number of active
  41:Middlewares/Third_Party/FatFs/src/ff_gen_drv.c ****   *         linked drivers.
  42:Middlewares/Third_Party/FatFs/src/ff_gen_drv.c ****   * @note   The number of linked drivers (volumes) is up to 10 due to FatFs limits.
  43:Middlewares/Third_Party/FatFs/src/ff_gen_drv.c ****   * @param  drv: pointer to the disk IO Driver structure
  44:Middlewares/Third_Party/FatFs/src/ff_gen_drv.c ****   * @param  path: pointer to the logical drive path 
  45:Middlewares/Third_Party/FatFs/src/ff_gen_drv.c ****   * @param  lun : only used for USB Key Disk to add multi-lun management
  46:Middlewares/Third_Party/FatFs/src/ff_gen_drv.c ****             else the paramter must be equal to 0
  47:Middlewares/Third_Party/FatFs/src/ff_gen_drv.c ****   * @retval Returns 0 in case of success, otherwise 1.
  48:Middlewares/Third_Party/FatFs/src/ff_gen_drv.c ****   */
  49:Middlewares/Third_Party/FatFs/src/ff_gen_drv.c **** uint8_t FATFS_LinkDriverEx(Diskio_drvTypeDef *drv, char *path, uint8_t lun)
  50:Middlewares/Third_Party/FatFs/src/ff_gen_drv.c **** {
  27              		.loc 1 50 0
  28              		.cfi_startproc
  29              		@ args = 0, pretend = 0, frame = 0
  30              		@ frame_needed = 0, uses_anonymous_args = 0
  31              	.LVL0:
  32 0000 30B5     		push	{r4, r5, lr}
  33              	.LCFI0:
  34              		.cfi_def_cfa_offset 12
  35              		.cfi_offset 4, -12
  36              		.cfi_offset 5, -8
  37              		.cfi_offset 14, -4
  51:Middlewares/Third_Party/FatFs/src/ff_gen_drv.c ****   uint8_t ret = 1;
  52:Middlewares/Third_Party/FatFs/src/ff_gen_drv.c ****   uint8_t DiskNum = 0;
  53:Middlewares/Third_Party/FatFs/src/ff_gen_drv.c ****   
  54:Middlewares/Third_Party/FatFs/src/ff_gen_drv.c ****   if(disk.nbr <= _VOLUMES)
  38              		.loc 1 54 0
  39 0002 0F4B     		ldr	r3, .L5
  40 0004 5C7A     		ldrb	r4, [r3, #9]	@ zero_extendqisi2
  41 0006 012C     		cmp	r4, #1
  42 0008 18D8     		bhi	.L3
  55:Middlewares/Third_Party/FatFs/src/ff_gen_drv.c ****   {
  56:Middlewares/Third_Party/FatFs/src/ff_gen_drv.c ****     disk.is_initialized[disk.nbr] = 0;
  43              		.loc 1 56 0
  44 000a 5D7A     		ldrb	r5, [r3, #9]	@ zero_extendqisi2
  45 000c EDB2     		uxtb	r5, r5
  46 000e 0024     		movs	r4, #0
  47 0010 5C55     		strb	r4, [r3, r5]
  57:Middlewares/Third_Party/FatFs/src/ff_gen_drv.c ****     disk.drv[disk.nbr] = drv;  
  48              		.loc 1 57 0
  49 0012 5D7A     		ldrb	r5, [r3, #9]	@ zero_extendqisi2
  50 0014 03EB8505 		add	r5, r3, r5, lsl #2
  51 0018 6860     		str	r0, [r5, #4]
  58:Middlewares/Third_Party/FatFs/src/ff_gen_drv.c ****     disk.lun[disk.nbr] = lun;  
  52              		.loc 1 58 0
  53 001a 587A     		ldrb	r0, [r3, #9]	@ zero_extendqisi2
  54              	.LVL1:
  55 001c 1844     		add	r0, r0, r3
  56 001e 0272     		strb	r2, [r0, #8]
  59:Middlewares/Third_Party/FatFs/src/ff_gen_drv.c ****     DiskNum = disk.nbr++;
ARM GAS  /var/folders/19/rz7506jh8xn7x1006s6s574h0000gn/T//ccfFXBGL.s 			page 3


  57              		.loc 1 59 0
  58 0020 5A7A     		ldrb	r2, [r3, #9]	@ zero_extendqisi2
  59              	.LVL2:
  60 0022 D2B2     		uxtb	r2, r2
  61 0024 501C     		adds	r0, r2, #1
  62              	.LVL3:
  63 0026 C0B2     		uxtb	r0, r0
  64 0028 5872     		strb	r0, [r3, #9]
  65              	.LVL4:
  60:Middlewares/Third_Party/FatFs/src/ff_gen_drv.c ****     path[0] = DiskNum + '0';
  61:Middlewares/Third_Party/FatFs/src/ff_gen_drv.c ****     path[1] = ':';
  66              		.loc 1 61 0
  67 002a 3A23     		movs	r3, #58
  68              	.LVL5:
  60:Middlewares/Third_Party/FatFs/src/ff_gen_drv.c ****     path[0] = DiskNum + '0';
  69              		.loc 1 60 0
  70 002c 3032     		adds	r2, r2, #48
  71              	.LVL6:
  72              		.loc 1 61 0
  73 002e 4B70     		strb	r3, [r1, #1]
  74              	.LVL7:
  62:Middlewares/Third_Party/FatFs/src/ff_gen_drv.c ****     path[2] = '/';
  75              		.loc 1 62 0
  76 0030 2F23     		movs	r3, #47
  60:Middlewares/Third_Party/FatFs/src/ff_gen_drv.c ****     path[0] = DiskNum + '0';
  77              		.loc 1 60 0
  78 0032 0A70     		strb	r2, [r1]
  79              		.loc 1 62 0
  80 0034 8B70     		strb	r3, [r1, #2]
  63:Middlewares/Third_Party/FatFs/src/ff_gen_drv.c ****     path[3] = 0;
  81              		.loc 1 63 0
  82 0036 CC70     		strb	r4, [r1, #3]
  83              	.LVL8:
  64:Middlewares/Third_Party/FatFs/src/ff_gen_drv.c ****     ret = 0;
  84              		.loc 1 64 0
  85 0038 2046     		mov	r0, r4
  86 003a 30BD     		pop	{r4, r5, pc}
  87              	.LVL9:
  88              	.L3:
  51:Middlewares/Third_Party/FatFs/src/ff_gen_drv.c ****   uint8_t ret = 1;
  89              		.loc 1 51 0
  90 003c 0120     		movs	r0, #1
  91              	.LVL10:
  65:Middlewares/Third_Party/FatFs/src/ff_gen_drv.c ****   }
  66:Middlewares/Third_Party/FatFs/src/ff_gen_drv.c ****   
  67:Middlewares/Third_Party/FatFs/src/ff_gen_drv.c ****   return ret;
  68:Middlewares/Third_Party/FatFs/src/ff_gen_drv.c **** }
  92              		.loc 1 68 0
  93 003e 30BD     		pop	{r4, r5, pc}
  94              	.L6:
  95              		.align	2
  96              	.L5:
  97 0040 00000000 		.word	.LANCHOR0
  98              		.cfi_endproc
  99              	.LFE125:
 101              		.section	.text.FATFS_LinkDriver,"ax",%progbits
 102              		.align	1
ARM GAS  /var/folders/19/rz7506jh8xn7x1006s6s574h0000gn/T//ccfFXBGL.s 			page 4


 103              		.global	FATFS_LinkDriver
 104              		.thumb
 105              		.thumb_func
 107              	FATFS_LinkDriver:
 108              	.LFB126:
  69:Middlewares/Third_Party/FatFs/src/ff_gen_drv.c **** 
  70:Middlewares/Third_Party/FatFs/src/ff_gen_drv.c **** /**
  71:Middlewares/Third_Party/FatFs/src/ff_gen_drv.c ****   * @brief  Links a compatible diskio driver and increments the number of active
  72:Middlewares/Third_Party/FatFs/src/ff_gen_drv.c ****   *         linked drivers.          
  73:Middlewares/Third_Party/FatFs/src/ff_gen_drv.c ****   * @note   The number of linked drivers (volumes) is up to 10 due to FatFs limits
  74:Middlewares/Third_Party/FatFs/src/ff_gen_drv.c ****   * @param  drv: pointer to the disk IO Driver structure
  75:Middlewares/Third_Party/FatFs/src/ff_gen_drv.c ****   * @param  path: pointer to the logical drive path 
  76:Middlewares/Third_Party/FatFs/src/ff_gen_drv.c ****   * @retval Returns 0 in case of success, otherwise 1.
  77:Middlewares/Third_Party/FatFs/src/ff_gen_drv.c ****   */
  78:Middlewares/Third_Party/FatFs/src/ff_gen_drv.c **** uint8_t FATFS_LinkDriver(Diskio_drvTypeDef *drv, char *path)
  79:Middlewares/Third_Party/FatFs/src/ff_gen_drv.c **** {
 109              		.loc 1 79 0
 110              		.cfi_startproc
 111              		@ args = 0, pretend = 0, frame = 0
 112              		@ frame_needed = 0, uses_anonymous_args = 0
 113              		@ link register save eliminated.
 114              	.LVL11:
  80:Middlewares/Third_Party/FatFs/src/ff_gen_drv.c ****   return FATFS_LinkDriverEx(drv, path, 0);
 115              		.loc 1 80 0
 116 0000 0022     		movs	r2, #0
 117 0002 FFF7FEBF 		b	FATFS_LinkDriverEx
 118              	.LVL12:
 119              		.cfi_endproc
 120              	.LFE126:
 122              		.section	.text.FATFS_UnLinkDriverEx,"ax",%progbits
 123              		.align	1
 124              		.global	FATFS_UnLinkDriverEx
 125              		.thumb
 126              		.thumb_func
 128              	FATFS_UnLinkDriverEx:
 129              	.LFB127:
  81:Middlewares/Third_Party/FatFs/src/ff_gen_drv.c **** }
  82:Middlewares/Third_Party/FatFs/src/ff_gen_drv.c **** 
  83:Middlewares/Third_Party/FatFs/src/ff_gen_drv.c **** /**
  84:Middlewares/Third_Party/FatFs/src/ff_gen_drv.c ****   * @brief  Unlinks a diskio driver and decrements the number of active linked
  85:Middlewares/Third_Party/FatFs/src/ff_gen_drv.c ****   *         drivers.
  86:Middlewares/Third_Party/FatFs/src/ff_gen_drv.c ****   * @param  path: pointer to the logical drive path  
  87:Middlewares/Third_Party/FatFs/src/ff_gen_drv.c ****   * @param  lun : not used   
  88:Middlewares/Third_Party/FatFs/src/ff_gen_drv.c ****   * @retval Returns 0 in case of success, otherwise 1.
  89:Middlewares/Third_Party/FatFs/src/ff_gen_drv.c ****   */
  90:Middlewares/Third_Party/FatFs/src/ff_gen_drv.c **** uint8_t FATFS_UnLinkDriverEx(char *path, uint8_t lun)
  91:Middlewares/Third_Party/FatFs/src/ff_gen_drv.c **** { 
 130              		.loc 1 91 0
 131              		.cfi_startproc
 132              		@ args = 0, pretend = 0, frame = 0
 133              		@ frame_needed = 0, uses_anonymous_args = 0
 134              		@ link register save eliminated.
 135              	.LVL13:
  92:Middlewares/Third_Party/FatFs/src/ff_gen_drv.c ****   uint8_t DiskNum = 0;
  93:Middlewares/Third_Party/FatFs/src/ff_gen_drv.c ****   uint8_t ret = 1;
  94:Middlewares/Third_Party/FatFs/src/ff_gen_drv.c ****   
  95:Middlewares/Third_Party/FatFs/src/ff_gen_drv.c ****   if(disk.nbr >= 1)
ARM GAS  /var/folders/19/rz7506jh8xn7x1006s6s574h0000gn/T//ccfFXBGL.s 			page 5


 136              		.loc 1 95 0
 137 0000 0A4B     		ldr	r3, .L12
 138 0002 5A7A     		ldrb	r2, [r3, #9]	@ zero_extendqisi2
 139 0004 7AB1     		cbz	r2, .L11
 140              	.LVL14:
  96:Middlewares/Third_Party/FatFs/src/ff_gen_drv.c ****   {    
  97:Middlewares/Third_Party/FatFs/src/ff_gen_drv.c ****     DiskNum = path[0] - '0';
 141              		.loc 1 97 0
 142 0006 0278     		ldrb	r2, [r0]	@ zero_extendqisi2
 143 0008 303A     		subs	r2, r2, #48
  98:Middlewares/Third_Party/FatFs/src/ff_gen_drv.c ****     if(disk.drv[DiskNum] != 0)
 144              		.loc 1 98 0
 145 000a D2B2     		uxtb	r2, r2
 146 000c 03EB8201 		add	r1, r3, r2, lsl #2
 147              	.LVL15:
 148 0010 4868     		ldr	r0, [r1, #4]
 149              	.LVL16:
 150 0012 40B1     		cbz	r0, .L11
  99:Middlewares/Third_Party/FatFs/src/ff_gen_drv.c ****     {
 100:Middlewares/Third_Party/FatFs/src/ff_gen_drv.c ****       disk.drv[DiskNum] = 0;
 101:Middlewares/Third_Party/FatFs/src/ff_gen_drv.c ****       disk.lun[DiskNum] = 0;
 151              		.loc 1 101 0
 152 0014 1A44     		add	r2, r2, r3
 100:Middlewares/Third_Party/FatFs/src/ff_gen_drv.c ****       disk.drv[DiskNum] = 0;
 153              		.loc 1 100 0
 154 0016 0020     		movs	r0, #0
 155              		.loc 1 101 0
 156 0018 1072     		strb	r0, [r2, #8]
 157              	.LVL17:
 102:Middlewares/Third_Party/FatFs/src/ff_gen_drv.c ****       disk.nbr--;
 158              		.loc 1 102 0
 159 001a 5A7A     		ldrb	r2, [r3, #9]	@ zero_extendqisi2
 100:Middlewares/Third_Party/FatFs/src/ff_gen_drv.c ****       disk.drv[DiskNum] = 0;
 160              		.loc 1 100 0
 161 001c 4860     		str	r0, [r1, #4]
 162              		.loc 1 102 0
 163 001e 013A     		subs	r2, r2, #1
 164 0020 D2B2     		uxtb	r2, r2
 165 0022 5A72     		strb	r2, [r3, #9]
 166              	.LVL18:
 167 0024 7047     		bx	lr
 168              	.LVL19:
 169              	.L11:
  93:Middlewares/Third_Party/FatFs/src/ff_gen_drv.c ****   uint8_t ret = 1;
 170              		.loc 1 93 0
 171 0026 0120     		movs	r0, #1
 172              	.LVL20:
 103:Middlewares/Third_Party/FatFs/src/ff_gen_drv.c ****       ret = 0;
 104:Middlewares/Third_Party/FatFs/src/ff_gen_drv.c ****     }
 105:Middlewares/Third_Party/FatFs/src/ff_gen_drv.c ****   }
 106:Middlewares/Third_Party/FatFs/src/ff_gen_drv.c ****   
 107:Middlewares/Third_Party/FatFs/src/ff_gen_drv.c ****   return ret;
 108:Middlewares/Third_Party/FatFs/src/ff_gen_drv.c **** }
 173              		.loc 1 108 0
 174 0028 7047     		bx	lr
 175              	.L13:
 176 002a 00BF     		.align	2
ARM GAS  /var/folders/19/rz7506jh8xn7x1006s6s574h0000gn/T//ccfFXBGL.s 			page 6


 177              	.L12:
 178 002c 00000000 		.word	.LANCHOR0
 179              		.cfi_endproc
 180              	.LFE127:
 182              		.section	.text.FATFS_UnLinkDriver,"ax",%progbits
 183              		.align	1
 184              		.global	FATFS_UnLinkDriver
 185              		.thumb
 186              		.thumb_func
 188              	FATFS_UnLinkDriver:
 189              	.LFB128:
 109:Middlewares/Third_Party/FatFs/src/ff_gen_drv.c **** 
 110:Middlewares/Third_Party/FatFs/src/ff_gen_drv.c **** /**
 111:Middlewares/Third_Party/FatFs/src/ff_gen_drv.c ****   * @brief  Unlinks a diskio driver and decrements the number of active linked
 112:Middlewares/Third_Party/FatFs/src/ff_gen_drv.c ****   *         drivers.
 113:Middlewares/Third_Party/FatFs/src/ff_gen_drv.c ****   * @param  path: pointer to the logical drive path  
 114:Middlewares/Third_Party/FatFs/src/ff_gen_drv.c ****   * @retval Returns 0 in case of success, otherwise 1.
 115:Middlewares/Third_Party/FatFs/src/ff_gen_drv.c ****   */
 116:Middlewares/Third_Party/FatFs/src/ff_gen_drv.c **** uint8_t FATFS_UnLinkDriver(char *path)
 117:Middlewares/Third_Party/FatFs/src/ff_gen_drv.c **** { 
 190              		.loc 1 117 0
 191              		.cfi_startproc
 192              		@ args = 0, pretend = 0, frame = 0
 193              		@ frame_needed = 0, uses_anonymous_args = 0
 194              		@ link register save eliminated.
 195              	.LVL21:
 118:Middlewares/Third_Party/FatFs/src/ff_gen_drv.c ****   return FATFS_UnLinkDriverEx(path, 0);
 196              		.loc 1 118 0
 197 0000 0021     		movs	r1, #0
 198 0002 FFF7FEBF 		b	FATFS_UnLinkDriverEx
 199              	.LVL22:
 200              		.cfi_endproc
 201              	.LFE128:
 203              		.section	.text.FATFS_GetAttachedDriversNbr,"ax",%progbits
 204              		.align	1
 205              		.global	FATFS_GetAttachedDriversNbr
 206              		.thumb
 207              		.thumb_func
 209              	FATFS_GetAttachedDriversNbr:
 210              	.LFB129:
 119:Middlewares/Third_Party/FatFs/src/ff_gen_drv.c **** }
 120:Middlewares/Third_Party/FatFs/src/ff_gen_drv.c **** 
 121:Middlewares/Third_Party/FatFs/src/ff_gen_drv.c **** /**
 122:Middlewares/Third_Party/FatFs/src/ff_gen_drv.c ****   * @brief  Gets number of linked drivers to the FatFs module.
 123:Middlewares/Third_Party/FatFs/src/ff_gen_drv.c ****   * @param  None
 124:Middlewares/Third_Party/FatFs/src/ff_gen_drv.c ****   * @retval Number of attached drivers.
 125:Middlewares/Third_Party/FatFs/src/ff_gen_drv.c ****   */
 126:Middlewares/Third_Party/FatFs/src/ff_gen_drv.c **** uint8_t FATFS_GetAttachedDriversNbr(void)
 127:Middlewares/Third_Party/FatFs/src/ff_gen_drv.c **** {
 211              		.loc 1 127 0
 212              		.cfi_startproc
 213              		@ args = 0, pretend = 0, frame = 0
 214              		@ frame_needed = 0, uses_anonymous_args = 0
 215              		@ link register save eliminated.
 128:Middlewares/Third_Party/FatFs/src/ff_gen_drv.c ****   return disk.nbr;
 216              		.loc 1 128 0
 217 0000 014B     		ldr	r3, .L16
ARM GAS  /var/folders/19/rz7506jh8xn7x1006s6s574h0000gn/T//ccfFXBGL.s 			page 7


 218 0002 587A     		ldrb	r0, [r3, #9]	@ zero_extendqisi2
 129:Middlewares/Third_Party/FatFs/src/ff_gen_drv.c **** }
 219              		.loc 1 129 0
 220 0004 7047     		bx	lr
 221              	.L17:
 222 0006 00BF     		.align	2
 223              	.L16:
 224 0008 00000000 		.word	.LANCHOR0
 225              		.cfi_endproc
 226              	.LFE129:
 228              		.global	disk
 229              		.section	.bss.disk,"aw",%nobits
 230              		.align	2
 231              		.set	.LANCHOR0,. + 0
 234              	disk:
 235 0000 00000000 		.space	12
 235      00000000 
 235      00000000 
 236              		.text
 237              	.Letext0:
 238              		.file 2 "Middlewares/Third_Party/FatFs/src/integer.h"
 239              		.file 3 "Middlewares/Third_Party/FatFs/src/diskio.h"
 240              		.file 4 "/Users/Arethusa/Library/Arduino15/packages/arduino/tools/arm-none-eabi-gcc/4.8.3-2014q1/a
 241              		.file 5 "/Users/Arethusa/Library/Arduino15/packages/arduino/tools/arm-none-eabi-gcc/4.8.3-2014q1/a
 242              		.file 6 "Middlewares/Third_Party/FatFs/src/ff_gen_drv.h"
 243              		.file 7 "Drivers/CMSIS/Include/core_cm4.h"
ARM GAS  /var/folders/19/rz7506jh8xn7x1006s6s574h0000gn/T//ccfFXBGL.s 			page 8

