ARM GAS  /var/folders/19/rz7506jh8xn7x1006s6s574h0000gn/T//ccSQuUeA.s 			page 1


   1              		.syntax unified
   2              		.cpu cortex-m4
   3              		.fpu softvfp
   4              		.eabi_attribute 20, 1
   5              		.eabi_attribute 21, 1
   6              		.eabi_attribute 23, 3
   7              		.eabi_attribute 24, 1
   8              		.eabi_attribute 25, 1
   9              		.eabi_attribute 26, 1
  10              		.eabi_attribute 30, 4
  11              		.eabi_attribute 34, 1
  12              		.eabi_attribute 18, 4
  13              		.thumb
  14              		.syntax unified
  15              		.file	"itoa.c"
  16              		.text
  17              	.Ltext0:
  18              		.cfi_sections	.debug_frame
  19              		.section	.text.ltoa,"ax",%progbits
  20              		.align	1
  21              		.global	ltoa
  22              		.thumb
  23              		.thumb_func
  25              	ltoa:
  26              	.LFB1:
  27              		.file 1 "../../cores/mapleMX/itoa.c"
   1:../../cores/mapleMX/itoa.c **** /*
   2:../../cores/mapleMX/itoa.c ****   Copyright (c) 2011 Arduino.  All right reserved.
   3:../../cores/mapleMX/itoa.c **** 
   4:../../cores/mapleMX/itoa.c ****   This library is free software; you can redistribute it and/or
   5:../../cores/mapleMX/itoa.c ****   modify it under the terms of the GNU Lesser General Public
   6:../../cores/mapleMX/itoa.c ****   License as published by the Free Software Foundation; either
   7:../../cores/mapleMX/itoa.c ****   version 2.1 of the License, or (at your option) any later version.
   8:../../cores/mapleMX/itoa.c **** 
   9:../../cores/mapleMX/itoa.c ****   This library is distributed in the hope that it will be useful,
  10:../../cores/mapleMX/itoa.c ****   but WITHOUT ANY WARRANTY; without even the implied warranty of
  11:../../cores/mapleMX/itoa.c ****   MERCHANTABILITY or FITNESS FOR A PARTICULAR PURPOSE. 
  12:../../cores/mapleMX/itoa.c ****   See the GNU Lesser General Public License for more details.
  13:../../cores/mapleMX/itoa.c **** 
  14:../../cores/mapleMX/itoa.c ****   You should have received a copy of the GNU Lesser General Public
  15:../../cores/mapleMX/itoa.c ****   License along with this library; if not, write to the Free Software
  16:../../cores/mapleMX/itoa.c ****   Foundation, Inc., 51 Franklin St, Fifth Floor, Boston, MA  02110-1301  USA
  17:../../cores/mapleMX/itoa.c **** */
  18:../../cores/mapleMX/itoa.c **** 
  19:../../cores/mapleMX/itoa.c **** #include "itoa.h"
  20:../../cores/mapleMX/itoa.c **** #include <string.h>
  21:../../cores/mapleMX/itoa.c **** 
  22:../../cores/mapleMX/itoa.c **** #ifdef __cplusplus
  23:../../cores/mapleMX/itoa.c **** extern "C"{
  24:../../cores/mapleMX/itoa.c **** #endif // __cplusplus
  25:../../cores/mapleMX/itoa.c **** 
  26:../../cores/mapleMX/itoa.c **** #if 0
  27:../../cores/mapleMX/itoa.c **** /* reverse:  reverse string s in place */
  28:../../cores/mapleMX/itoa.c **** static void reverse( char s[] )
  29:../../cores/mapleMX/itoa.c **** {
  30:../../cores/mapleMX/itoa.c ****   int i, j ;
  31:../../cores/mapleMX/itoa.c ****   char c ;
ARM GAS  /var/folders/19/rz7506jh8xn7x1006s6s574h0000gn/T//ccSQuUeA.s 			page 2


  32:../../cores/mapleMX/itoa.c **** 
  33:../../cores/mapleMX/itoa.c ****   for ( i = 0, j = strlen(s)-1 ; i < j ; i++, j-- )
  34:../../cores/mapleMX/itoa.c ****   {
  35:../../cores/mapleMX/itoa.c ****     c = s[i] ;
  36:../../cores/mapleMX/itoa.c ****     s[i] = s[j] ;
  37:../../cores/mapleMX/itoa.c ****     s[j] = c ;
  38:../../cores/mapleMX/itoa.c ****   }
  39:../../cores/mapleMX/itoa.c **** }
  40:../../cores/mapleMX/itoa.c **** 
  41:../../cores/mapleMX/itoa.c **** /* itoa:  convert n to characters in s */
  42:../../cores/mapleMX/itoa.c **** extern void itoa( int n, char s[] )
  43:../../cores/mapleMX/itoa.c **** {
  44:../../cores/mapleMX/itoa.c ****   int i, sign ;
  45:../../cores/mapleMX/itoa.c **** 
  46:../../cores/mapleMX/itoa.c ****   if ( (sign = n) < 0 )  /* record sign */
  47:../../cores/mapleMX/itoa.c ****   {
  48:../../cores/mapleMX/itoa.c ****     n = -n;          /* make n positive */
  49:../../cores/mapleMX/itoa.c ****   }
  50:../../cores/mapleMX/itoa.c **** 
  51:../../cores/mapleMX/itoa.c ****   i = 0;
  52:../../cores/mapleMX/itoa.c ****   do
  53:../../cores/mapleMX/itoa.c ****   {       /* generate digits in reverse order */
  54:../../cores/mapleMX/itoa.c ****     s[i++] = n % 10 + '0';   /* get next digit */
  55:../../cores/mapleMX/itoa.c ****   } while ((n /= 10) > 0) ;     /* delete it */
  56:../../cores/mapleMX/itoa.c **** 
  57:../../cores/mapleMX/itoa.c ****   if (sign < 0 )
  58:../../cores/mapleMX/itoa.c ****   {
  59:../../cores/mapleMX/itoa.c ****     s[i++] = '-';
  60:../../cores/mapleMX/itoa.c ****   }
  61:../../cores/mapleMX/itoa.c **** 
  62:../../cores/mapleMX/itoa.c ****   s[i] = '\0';
  63:../../cores/mapleMX/itoa.c **** 
  64:../../cores/mapleMX/itoa.c ****   reverse( s ) ;
  65:../../cores/mapleMX/itoa.c **** }
  66:../../cores/mapleMX/itoa.c **** 
  67:../../cores/mapleMX/itoa.c **** #else
  68:../../cores/mapleMX/itoa.c **** 
  69:../../cores/mapleMX/itoa.c **** extern char* itoa( int value, char *string, int radix )
  70:../../cores/mapleMX/itoa.c **** {
  71:../../cores/mapleMX/itoa.c ****   return ltoa( value, string, radix ) ;
  72:../../cores/mapleMX/itoa.c **** }
  73:../../cores/mapleMX/itoa.c **** 
  74:../../cores/mapleMX/itoa.c **** extern char* ltoa( long value, char *string, int radix )
  75:../../cores/mapleMX/itoa.c **** {
  28              		.loc 1 75 0
  29              		.cfi_startproc
  30              		@ args = 0, pretend = 0, frame = 40
  31              		@ frame_needed = 0, uses_anonymous_args = 0
  32              	.LVL0:
  33 0000 F0B5     		push	{r4, r5, r6, r7, lr}
  34              	.LCFI0:
  35              		.cfi_def_cfa_offset 20
  36              		.cfi_offset 4, -20
  37              		.cfi_offset 5, -16
  38              		.cfi_offset 6, -12
  39              		.cfi_offset 7, -8
  40              		.cfi_offset 14, -4
ARM GAS  /var/folders/19/rz7506jh8xn7x1006s6s574h0000gn/T//ccSQuUeA.s 			page 3


  41 0002 8BB0     		sub	sp, sp, #44
  42              	.LCFI1:
  43              		.cfi_def_cfa_offset 64
  44              	.LVL1:
  76:../../cores/mapleMX/itoa.c ****   char tmp[33];
  77:../../cores/mapleMX/itoa.c ****   char *tp = tmp;
  78:../../cores/mapleMX/itoa.c ****   long i;
  79:../../cores/mapleMX/itoa.c ****   unsigned long v;
  80:../../cores/mapleMX/itoa.c ****   int sign;
  81:../../cores/mapleMX/itoa.c ****   char *sp;
  82:../../cores/mapleMX/itoa.c **** 
  83:../../cores/mapleMX/itoa.c ****   if ( string == NULL )
  45              		.loc 1 83 0
  46 0004 49B3     		cbz	r1, .L13
  84:../../cores/mapleMX/itoa.c ****   {
  85:../../cores/mapleMX/itoa.c ****     return 0 ;
  86:../../cores/mapleMX/itoa.c ****   }
  87:../../cores/mapleMX/itoa.c **** 
  88:../../cores/mapleMX/itoa.c ****   if (radix > 36 || radix <= 1)
  47              		.loc 1 88 0
  48 0006 931E     		subs	r3, r2, #2
  49 0008 222B     		cmp	r3, #34
  50 000a 28D8     		bhi	.L14
  89:../../cores/mapleMX/itoa.c ****   {
  90:../../cores/mapleMX/itoa.c ****     return 0 ;
  91:../../cores/mapleMX/itoa.c ****   }
  92:../../cores/mapleMX/itoa.c **** 
  93:../../cores/mapleMX/itoa.c ****   sign = (radix == 10 && value < 0);
  51              		.loc 1 93 0
  52 000c 0A2A     		cmp	r2, #10
  53 000e 28D1     		bne	.L3
  54              		.loc 1 93 0 is_stmt 0 discriminator 1
  55 0010 0028     		cmp	r0, #0
  56 0012 26DA     		bge	.L3
  57              	.LVL2:
  94:../../cores/mapleMX/itoa.c ****   if (sign)
  95:../../cores/mapleMX/itoa.c ****   {
  96:../../cores/mapleMX/itoa.c ****     v = -value;
  58              		.loc 1 96 0 is_stmt 1
  59 0014 4042     		negs	r0, r0
  60              	.LVL3:
  93:../../cores/mapleMX/itoa.c ****   if (sign)
  61              		.loc 1 93 0
  62 0016 0126     		movs	r6, #1
  63              	.LVL4:
  64              	.L12:
  65 0018 01AC     		add	r4, sp, #4
  66              	.LVL5:
  67 001a 2746     		mov	r7, r4
  68              	.LVL6:
  69              	.L5:
  70 001c 2546     		mov	r5, r4
  71              	.LVL7:
  97:../../cores/mapleMX/itoa.c ****   }
  98:../../cores/mapleMX/itoa.c ****   else
  99:../../cores/mapleMX/itoa.c ****   {
 100:../../cores/mapleMX/itoa.c ****     v = (unsigned long)value;
ARM GAS  /var/folders/19/rz7506jh8xn7x1006s6s574h0000gn/T//ccSQuUeA.s 			page 4


 101:../../cores/mapleMX/itoa.c ****   }
 102:../../cores/mapleMX/itoa.c **** 
 103:../../cores/mapleMX/itoa.c ****   while (v || tp == tmp)
  72              		.loc 1 103 0
  73 001e 58B1     		cbz	r0, .L19
  74              	.L8:
 104:../../cores/mapleMX/itoa.c ****   {
 105:../../cores/mapleMX/itoa.c ****     i = v % radix;
  75              		.loc 1 105 0
  76 0020 B0FBF2F5 		udiv	r5, r0, r2
  77 0024 02FB1503 		mls	r3, r2, r5, r0
  78              	.LVL8:
 106:../../cores/mapleMX/itoa.c ****     v = v / radix;
 107:../../cores/mapleMX/itoa.c ****     if (i < 10)
  79              		.loc 1 107 0
  80 0028 092B     		cmp	r3, #9
 108:../../cores/mapleMX/itoa.c ****       *tp++ = i+'0';
  81              		.loc 1 108 0
  82 002a 94BF     		ite	ls
  83 002c 3033     		addls	r3, r3, #48
  84              	.LVL9:
 109:../../cores/mapleMX/itoa.c ****     else
 110:../../cores/mapleMX/itoa.c ****       *tp++ = i + 'a' - 10;
  85              		.loc 1 110 0
  86 002e 5733     		addhi	r3, r3, #87
  87 0030 2370     		strb	r3, [r4]
 106:../../cores/mapleMX/itoa.c ****     if (i < 10)
  88              		.loc 1 106 0
  89 0032 2846     		mov	r0, r5
  90              	.LVL10:
  91 0034 0134     		adds	r4, r4, #1
  92              	.LVL11:
  93 0036 F1E7     		b	.L5
  94              	.LVL12:
  95              	.L19:
 103:../../cores/mapleMX/itoa.c ****   {
  96              		.loc 1 103 0 discriminator 1
  97 0038 BC42     		cmp	r4, r7
  98 003a F1D0     		beq	.L8
  99              	.LVL13:
 111:../../cores/mapleMX/itoa.c ****   }
 112:../../cores/mapleMX/itoa.c **** 
 113:../../cores/mapleMX/itoa.c ****   sp = string;
 114:../../cores/mapleMX/itoa.c **** 
 115:../../cores/mapleMX/itoa.c ****   if (sign)
 100              		.loc 1 115 0
 101 003c 1EB1     		cbz	r6, .L15
 116:../../cores/mapleMX/itoa.c ****     *sp++ = '-';
 102              		.loc 1 116 0
 103 003e 2D22     		movs	r2, #45
 104              	.LVL14:
 105 0040 4B1C     		adds	r3, r1, #1
 106              	.LVL15:
 107 0042 0A70     		strb	r2, [r1]
 108 0044 00E0     		b	.L10
 109              	.LVL16:
 110              	.L15:
ARM GAS  /var/folders/19/rz7506jh8xn7x1006s6s574h0000gn/T//ccSQuUeA.s 			page 5


 111 0046 0B46     		mov	r3, r1
 112              	.LVL17:
 113              	.L10:
 117:../../cores/mapleMX/itoa.c ****   while (tp > tmp)
 114              		.loc 1 117 0
 115 0048 BD42     		cmp	r5, r7
 116 004a 04D9     		bls	.L20
 117              	.LVL18:
 118:../../cores/mapleMX/itoa.c ****     *sp++ = *--tp;
 118              		.loc 1 118 0
 119 004c 15F8012D 		ldrb	r2, [r5, #-1]!	@ zero_extendqisi2
 120              	.LVL19:
 121 0050 03F8012B 		strb	r2, [r3], #1
 122              	.LVL20:
 123 0054 F8E7     		b	.L10
 124              	.LVL21:
 125              	.L20:
 119:../../cores/mapleMX/itoa.c ****   *sp = 0;
 126              		.loc 1 119 0
 127 0056 0022     		movs	r2, #0
 128 0058 1A70     		strb	r2, [r3]
 129              	.LVL22:
 130              	.L13:
  85:../../cores/mapleMX/itoa.c ****   }
 131              		.loc 1 85 0
 132 005a 0846     		mov	r0, r1
 133 005c 03E0     		b	.L16
 134              	.LVL23:
 135              	.L14:
 136 005e 0020     		movs	r0, #0
 137              	.LVL24:
 138 0060 01E0     		b	.L16
 139              	.LVL25:
 140              	.L3:
 100:../../cores/mapleMX/itoa.c ****   }
 141              		.loc 1 100 0
 142 0062 0026     		movs	r6, #0
 143 0064 D8E7     		b	.L12
 144              	.LVL26:
 145              	.L16:
 120:../../cores/mapleMX/itoa.c **** 
 121:../../cores/mapleMX/itoa.c ****   return string;
 122:../../cores/mapleMX/itoa.c **** }
 146              		.loc 1 122 0
 147 0066 0BB0     		add	sp, sp, #44
 148              	.LCFI2:
 149              		.cfi_def_cfa_offset 20
 150              		@ sp needed
 151 0068 F0BD     		pop	{r4, r5, r6, r7, pc}
 152              		.cfi_endproc
 153              	.LFE1:
 155              		.section	.text.itoa,"ax",%progbits
 156              		.align	1
 157              		.global	itoa
 158              		.thumb
 159              		.thumb_func
 161              	itoa:
ARM GAS  /var/folders/19/rz7506jh8xn7x1006s6s574h0000gn/T//ccSQuUeA.s 			page 6


 162              	.LFB0:
  70:../../cores/mapleMX/itoa.c ****   return ltoa( value, string, radix ) ;
 163              		.loc 1 70 0
 164              		.cfi_startproc
 165              		@ args = 0, pretend = 0, frame = 0
 166              		@ frame_needed = 0, uses_anonymous_args = 0
 167              		@ link register save eliminated.
 168              	.LVL27:
  71:../../cores/mapleMX/itoa.c **** }
 169              		.loc 1 71 0
 170 0000 FFF7FEBF 		b	ltoa
 171              	.LVL28:
 172              		.cfi_endproc
 173              	.LFE0:
 175              		.section	.text.ultoa,"ax",%progbits
 176              		.align	1
 177              		.global	ultoa
 178              		.thumb
 179              		.thumb_func
 181              	ultoa:
 182              	.LFB2:
 123:../../cores/mapleMX/itoa.c **** 
 124:../../cores/mapleMX/itoa.c **** /*
 125:../../cores/mapleMX/itoa.c **** extern char* utoa( unsigned long value, char *string, int radix )
 126:../../cores/mapleMX/itoa.c **** {
 127:../../cores/mapleMX/itoa.c ****   return ultoa( value, string, radix ) ;
 128:../../cores/mapleMX/itoa.c **** }
 129:../../cores/mapleMX/itoa.c **** */
 130:../../cores/mapleMX/itoa.c **** 
 131:../../cores/mapleMX/itoa.c **** extern char* ultoa( unsigned long value, char *string, int radix )
 132:../../cores/mapleMX/itoa.c **** {
 183              		.loc 1 132 0
 184              		.cfi_startproc
 185              		@ args = 0, pretend = 0, frame = 40
 186              		@ frame_needed = 0, uses_anonymous_args = 0
 187              	.LVL29:
 188 0000 70B5     		push	{r4, r5, r6, lr}
 189              	.LCFI3:
 190              		.cfi_def_cfa_offset 16
 191              		.cfi_offset 4, -16
 192              		.cfi_offset 5, -12
 193              		.cfi_offset 6, -8
 194              		.cfi_offset 14, -4
 195 0002 8AB0     		sub	sp, sp, #40
 196              	.LCFI4:
 197              		.cfi_def_cfa_offset 56
 198              	.LVL30:
 133:../../cores/mapleMX/itoa.c ****   char tmp[33];
 134:../../cores/mapleMX/itoa.c ****   char *tp = tmp;
 135:../../cores/mapleMX/itoa.c ****   long i;
 136:../../cores/mapleMX/itoa.c ****   unsigned long v = value;
 137:../../cores/mapleMX/itoa.c ****   char *sp;
 138:../../cores/mapleMX/itoa.c **** 
 139:../../cores/mapleMX/itoa.c ****   if ( string == NULL )
 199              		.loc 1 139 0
 200 0004 F1B1     		cbz	r1, .L30
 140:../../cores/mapleMX/itoa.c ****   {
ARM GAS  /var/folders/19/rz7506jh8xn7x1006s6s574h0000gn/T//ccSQuUeA.s 			page 7


 141:../../cores/mapleMX/itoa.c ****     return 0;
 142:../../cores/mapleMX/itoa.c ****   }
 143:../../cores/mapleMX/itoa.c **** 
 144:../../cores/mapleMX/itoa.c ****   if (radix > 36 || radix <= 1)
 201              		.loc 1 144 0
 202 0006 931E     		subs	r3, r2, #2
 203 0008 222B     		cmp	r3, #34
 204 000a 1DD8     		bhi	.L31
 205 000c 01AC     		add	r4, sp, #4
 206              	.LVL31:
 207 000e 2546     		mov	r5, r4
 208              	.LVL32:
 209              	.L24:
 210 0010 2346     		mov	r3, r4
 211              	.LVL33:
 145:../../cores/mapleMX/itoa.c ****   {
 146:../../cores/mapleMX/itoa.c ****     return 0;
 147:../../cores/mapleMX/itoa.c ****   }
 148:../../cores/mapleMX/itoa.c ****  
 149:../../cores/mapleMX/itoa.c ****   while (v || tp == tmp)
 212              		.loc 1 149 0
 213 0012 58B1     		cbz	r0, .L33
 214              	.L27:
 150:../../cores/mapleMX/itoa.c ****   {
 151:../../cores/mapleMX/itoa.c ****     i = v % radix;
 215              		.loc 1 151 0
 216 0014 B0FBF2F6 		udiv	r6, r0, r2
 217 0018 02FB1603 		mls	r3, r2, r6, r0
 218              	.LVL34:
 152:../../cores/mapleMX/itoa.c ****     v = v / radix;
 153:../../cores/mapleMX/itoa.c ****     if (i < 10)
 219              		.loc 1 153 0
 220 001c 092B     		cmp	r3, #9
 154:../../cores/mapleMX/itoa.c ****       *tp++ = i+'0';
 221              		.loc 1 154 0
 222 001e 94BF     		ite	ls
 223 0020 3033     		addls	r3, r3, #48
 224              	.LVL35:
 155:../../cores/mapleMX/itoa.c ****     else
 156:../../cores/mapleMX/itoa.c ****       *tp++ = i + 'a' - 10;
 225              		.loc 1 156 0
 226 0022 5733     		addhi	r3, r3, #87
 227 0024 2370     		strb	r3, [r4]
 152:../../cores/mapleMX/itoa.c ****     if (i < 10)
 228              		.loc 1 152 0
 229 0026 3046     		mov	r0, r6
 230              	.LVL36:
 231 0028 0134     		adds	r4, r4, #1
 232              	.LVL37:
 233 002a F1E7     		b	.L24
 234              	.LVL38:
 235              	.L33:
 149:../../cores/mapleMX/itoa.c ****   {
 236              		.loc 1 149 0 discriminator 1
 237 002c AC42     		cmp	r4, r5
 238 002e F1D0     		beq	.L27
 239 0030 0A46     		mov	r2, r1
ARM GAS  /var/folders/19/rz7506jh8xn7x1006s6s574h0000gn/T//ccSQuUeA.s 			page 8


 240              	.LVL39:
 241              	.L28:
 157:../../cores/mapleMX/itoa.c ****   }
 158:../../cores/mapleMX/itoa.c **** 
 159:../../cores/mapleMX/itoa.c ****   sp = string;
 160:../../cores/mapleMX/itoa.c **** 
 161:../../cores/mapleMX/itoa.c ****  
 162:../../cores/mapleMX/itoa.c ****   while (tp > tmp)
 242              		.loc 1 162 0
 243 0032 AB42     		cmp	r3, r5
 244 0034 04D9     		bls	.L34
 245              	.LVL40:
 163:../../cores/mapleMX/itoa.c ****     *sp++ = *--tp;
 246              		.loc 1 163 0
 247 0036 13F8010D 		ldrb	r0, [r3, #-1]!	@ zero_extendqisi2
 248              	.LVL41:
 249 003a 02F8010B 		strb	r0, [r2], #1
 250              	.LVL42:
 251 003e F8E7     		b	.L28
 252              	.LVL43:
 253              	.L34:
 164:../../cores/mapleMX/itoa.c ****   *sp = 0;
 254              		.loc 1 164 0
 255 0040 0023     		movs	r3, #0
 256              	.LVL44:
 257 0042 1370     		strb	r3, [r2]
 258              	.LVL45:
 259              	.L30:
 141:../../cores/mapleMX/itoa.c ****   }
 260              		.loc 1 141 0
 261 0044 0846     		mov	r0, r1
 262 0046 00E0     		b	.L23
 263              	.LVL46:
 264              	.L31:
 265 0048 0020     		movs	r0, #0
 266              	.LVL47:
 267              	.L23:
 165:../../cores/mapleMX/itoa.c **** 
 166:../../cores/mapleMX/itoa.c ****   return string;
 167:../../cores/mapleMX/itoa.c **** }
 268              		.loc 1 167 0
 269 004a 0AB0     		add	sp, sp, #40
 270              	.LCFI5:
 271              		.cfi_def_cfa_offset 16
 272              		@ sp needed
 273 004c 70BD     		pop	{r4, r5, r6, pc}
 274              		.cfi_endproc
 275              	.LFE2:
 277              		.text
 278              	.Letext0:
ARM GAS  /var/folders/19/rz7506jh8xn7x1006s6s574h0000gn/T//ccSQuUeA.s 			page 9

