ARM GAS  /var/folders/19/rz7506jh8xn7x1006s6s574h0000gn/T//ccVLkFTM.s 			page 1


   1              		.syntax unified
   2              		.cpu cortex-m4
   3              		.fpu softvfp
   4              		.eabi_attribute 20, 1
   5              		.eabi_attribute 21, 1
   6              		.eabi_attribute 23, 3
   7              		.eabi_attribute 24, 1
   8              		.eabi_attribute 25, 1
   9              		.eabi_attribute 26, 1
  10              		.eabi_attribute 30, 4
  11              		.eabi_attribute 34, 1
  12              		.eabi_attribute 18, 4
  13              		.thumb
  14              		.syntax unified
  15              		.file	"main.c"
  16              		.text
  17              	.Ltext0:
  18              		.cfi_sections	.debug_frame
  19              		.section	.text.init,"ax",%progbits
  20              		.align	1
  21              		.weak	init
  22              		.thumb
  23              		.thumb_func
  25              	init:
  26              	.LFB131:
  27              		.cfi_startproc
  28              		@ args = 0, pretend = 0, frame = 0
  29              		@ frame_needed = 0, uses_anonymous_args = 0
  30              		@ link register save eliminated.
  31 0000 7047     		bx	lr
  32              		.cfi_endproc
  33              	.LFE131:
  35              		.section	.text.initVariant,"ax",%progbits
  36              		.align	1
  37              		.weak	initVariant
  38              		.thumb
  39              		.thumb_func
  41              	initVariant:
  42              	.LFB126:
  43              		.file 1 "Src/main.c"
   1:Src/main.c    **** /**
   2:Src/main.c    ****   ******************************************************************************
   3:Src/main.c    ****   * File Name          : main.c
   4:Src/main.c    ****   * Description        : Main program body
   5:Src/main.c    ****   ******************************************************************************
   6:Src/main.c    ****   *
   7:Src/main.c    ****   * COPYRIGHT(c) 2016 STMicroelectronics
   8:Src/main.c    ****   *
   9:Src/main.c    ****   * Redistribution and use in source and binary forms, with or without modification,
  10:Src/main.c    ****   * are permitted provided that the following conditions are met:
  11:Src/main.c    ****   *   1. Redistributions of source code must retain the above copyright notice,
  12:Src/main.c    ****   *      this list of conditions and the following disclaimer.
  13:Src/main.c    ****   *   2. Redistributions in binary form must reproduce the above copyright notice,
  14:Src/main.c    ****   *      this list of conditions and the following disclaimer in the documentation
  15:Src/main.c    ****   *      and/or other materials provided with the distribution.
  16:Src/main.c    ****   *   3. Neither the name of STMicroelectronics nor the names of its contributors
  17:Src/main.c    ****   *      may be used to endorse or promote products derived from this software
ARM GAS  /var/folders/19/rz7506jh8xn7x1006s6s574h0000gn/T//ccVLkFTM.s 			page 2


  18:Src/main.c    ****   *      without specific prior written permission.
  19:Src/main.c    ****   *
  20:Src/main.c    ****   * THIS SOFTWARE IS PROVIDED BY THE COPYRIGHT HOLDERS AND CONTRIBUTORS "AS IS"
  21:Src/main.c    ****   * AND ANY EXPRESS OR IMPLIED WARRANTIES, INCLUDING, BUT NOT LIMITED TO, THE
  22:Src/main.c    ****   * IMPLIED WARRANTIES OF MERCHANTABILITY AND FITNESS FOR A PARTICULAR PURPOSE ARE
  23:Src/main.c    ****   * DISCLAIMED. IN NO EVENT SHALL THE COPYRIGHT HOLDER OR CONTRIBUTORS BE LIABLE
  24:Src/main.c    ****   * FOR ANY DIRECT, INDIRECT, INCIDENTAL, SPECIAL, EXEMPLARY, OR CONSEQUENTIAL
  25:Src/main.c    ****   * DAMAGES (INCLUDING, BUT NOT LIMITED TO, PROCUREMENT OF SUBSTITUTE GOODS OR
  26:Src/main.c    ****   * SERVICES; LOSS OF USE, DATA, OR PROFITS; OR BUSINESS INTERRUPTION) HOWEVER
  27:Src/main.c    ****   * CAUSED AND ON ANY THEORY OF LIABILITY, WHETHER IN CONTRACT, STRICT LIABILITY,
  28:Src/main.c    ****   * OR TORT (INCLUDING NEGLIGENCE OR OTHERWISE) ARISING IN ANY WAY OUT OF THE USE
  29:Src/main.c    ****   * OF THIS SOFTWARE, EVEN IF ADVISED OF THE POSSIBILITY OF SUCH DAMAGE.
  30:Src/main.c    ****   *
  31:Src/main.c    ****   ******************************************************************************
  32:Src/main.c    ****   */
  33:Src/main.c    **** /* Includes ------------------------------------------------------------------*/
  34:Src/main.c    **** #include "stm32f4xx_hal.h"
  35:Src/main.c    **** #include "adc.h"
  36:Src/main.c    **** #include "usart.h"
  37:Src/main.c    **** #include "gpio.h"
  38:Src/main.c    **** 
  39:Src/main.c    **** /* USER CODE BEGIN Includes */
  40:Src/main.c    **** 
  41:Src/main.c    **** /* USER CODE END Includes */
  42:Src/main.c    **** 
  43:Src/main.c    **** /* Private variables ---------------------------------------------------------*/
  44:Src/main.c    **** 
  45:Src/main.c    **** /* USER CODE BEGIN PV */
  46:Src/main.c    **** 
  47:Src/main.c    **** /* USER CODE END PV */
  48:Src/main.c    **** 
  49:Src/main.c    **** /* Private function prototypes -----------------------------------------------*/
  50:Src/main.c    **** void SystemClock_Config(void);
  51:Src/main.c    **** void Error_Handler(void);
  52:Src/main.c    **** 
  53:Src/main.c    **** /* USER CODE BEGIN PFP */
  54:Src/main.c    **** 
  55:Src/main.c    **** /*
  56:Src/main.c    ****  Sheepdoll from Arduino main()
  57:Src/main.c    **** */
  58:Src/main.c    **** 
  59:Src/main.c    **** void init() __attribute__((weak));
  60:Src/main.c    **** void init() { } 
  61:Src/main.c    **** 
  62:Src/main.c    **** /*
  63:Src/main.c    ****  Weak empty variant initialization function.
  64:Src/main.c    ****  May be redefined by variant files.
  65:Src/main.c    **** */
  66:Src/main.c    **** void initVariant() __attribute__((weak));
  67:Src/main.c    **** void initVariant() { }
  44              		.loc 1 67 0
  45              		.cfi_startproc
  46              		@ args = 0, pretend = 0, frame = 0
  47              		@ frame_needed = 0, uses_anonymous_args = 0
  48              		@ link register save eliminated.
  49 0000 7047     		bx	lr
  50              		.cfi_endproc
ARM GAS  /var/folders/19/rz7506jh8xn7x1006s6s574h0000gn/T//ccVLkFTM.s 			page 3


  51              	.LFE126:
  53              		.section	.text.SystemClock_Config,"ax",%progbits
  54              		.align	1
  55              		.global	SystemClock_Config
  56              		.thumb
  57              		.thumb_func
  59              	SystemClock_Config:
  60              	.LFB128:
  68:Src/main.c    **** 	
  69:Src/main.c    **** /*
  70:Src/main.c    **** 	these are the defines for the hooks
  71:Src/main.c    **** 	into the arduino system.
  72:Src/main.c    **** */
  73:Src/main.c    **** void setup(void);
  74:Src/main.c    **** void loop(void);
  75:Src/main.c    **** 
  76:Src/main.c    **** /* USER CODE END PFP */
  77:Src/main.c    **** 
  78:Src/main.c    **** /* USER CODE BEGIN 0 */
  79:Src/main.c    **** 
  80:Src/main.c    **** /* USER CODE END 0 */
  81:Src/main.c    **** 
  82:Src/main.c    **** int main(void)
  83:Src/main.c    **** {
  84:Src/main.c    **** 
  85:Src/main.c    ****   /* USER CODE BEGIN 1 */
  86:Src/main.c    **** 
  87:Src/main.c    ****   /* USER CODE END 1 */
  88:Src/main.c    **** 
  89:Src/main.c    ****   /* MCU Configuration----------------------------------------------------------*/
  90:Src/main.c    **** 
  91:Src/main.c    ****   /* Reset of all peripherals, Initializes the Flash interface and the Systick. */
  92:Src/main.c    ****   HAL_Init();
  93:Src/main.c    **** 
  94:Src/main.c    ****   /* Configure the system clock */
  95:Src/main.c    ****   SystemClock_Config();
  96:Src/main.c    **** 
  97:Src/main.c    ****   /* Initialize all configured peripherals */
  98:Src/main.c    ****   MX_GPIO_Init();
  99:Src/main.c    ****   MX_ADC1_Init();
 100:Src/main.c    ****   MX_USART2_UART_Init();
 101:Src/main.c    ****   MX_USART6_UART_Init();
 102:Src/main.c    **** 
 103:Src/main.c    ****   /* USER CODE BEGIN 2 */
 104:Src/main.c    ****   /* these calls are from arduino main */
 105:Src/main.c    **** 
 106:Src/main.c    **** 	init();
 107:Src/main.c    **** 
 108:Src/main.c    **** 	initVariant();
 109:Src/main.c    **** 	
 110:Src/main.c    **** 	HAL_Delay(1000); 	/* Wait 7 seconds to enable a serial coms channel */
 111:Src/main.c    **** 	
 112:Src/main.c    **** 	/* 
 113:Src/main.c    **** 		Usart6 is linked to printf for diagnostic use It is also mapped to
 114:Src/main.c    **** 		alternate function pins 12 and 14.  This code is adapted from
 115:Src/main.c    **** 		the prinf demo in the STM32F401 Nucleo examples folder
 116:Src/main.c    **** 	*/
ARM GAS  /var/folders/19/rz7506jh8xn7x1006s6s574h0000gn/T//ccVLkFTM.s 			page 4


 117:Src/main.c    **** 	
 118:Src/main.c    **** 	//printf("Serial backchannel enabled.\r\n");
 119:Src/main.c    ****   
 120:Src/main.c    ****   	/* Arduino optionally sets up USB callback stream here 
 121:Src/main.c    **** #if defined(USBCON)
 122:Src/main.c    **** 	USBDevice.attach();
 123:Src/main.c    **** #endif
 124:Src/main.c    **** 	*/
 125:Src/main.c    **** 	
 126:Src/main.c    **** 	setup();
 127:Src/main.c    **** 
 128:Src/main.c    ****   /* USER CODE END 2 */
 129:Src/main.c    **** 
 130:Src/main.c    ****   /* Infinite loop */
 131:Src/main.c    ****   /* USER CODE BEGIN WHILE */
 132:Src/main.c    ****   while (1)
 133:Src/main.c    ****   {
 134:Src/main.c    ****   /* USER CODE END WHILE */
 135:Src/main.c    **** 
 136:Src/main.c    ****   /* USER CODE BEGIN 3 */
 137:Src/main.c    **** 	loop();
 138:Src/main.c    **** 	/* Arduino callback	if (serialEventRun) serialEventRun(); */
 139:Src/main.c    **** 
 140:Src/main.c    ****   }
 141:Src/main.c    ****   /* USER CODE END 3 */
 142:Src/main.c    **** 
 143:Src/main.c    **** }
 144:Src/main.c    **** 
 145:Src/main.c    **** /** System Clock Configuration
 146:Src/main.c    **** */
 147:Src/main.c    **** void SystemClock_Config(void)
 148:Src/main.c    **** {
  61              		.loc 1 148 0
  62              		.cfi_startproc
  63              		@ args = 0, pretend = 0, frame = 80
  64              		@ frame_needed = 0, uses_anonymous_args = 0
  65              		.loc 1 148 0
  66 0000 10B5     		push	{r4, lr}
  67              	.LCFI0:
  68              		.cfi_def_cfa_offset 8
  69              		.cfi_offset 4, -8
  70              		.cfi_offset 14, -4
  71 0002 94B0     		sub	sp, sp, #80
  72              	.LCFI1:
  73              		.cfi_def_cfa_offset 88
  74              	.LBB8:
 149:Src/main.c    **** 
 150:Src/main.c    ****   RCC_OscInitTypeDef RCC_OscInitStruct;
 151:Src/main.c    ****   RCC_ClkInitTypeDef RCC_ClkInitStruct;
 152:Src/main.c    **** 
 153:Src/main.c    ****   __HAL_RCC_PWR_CLK_ENABLE();
  75              		.loc 1 153 0
  76 0004 0022     		movs	r2, #0
  77 0006 234B     		ldr	r3, .L11
  78 0008 0192     		str	r2, [sp, #4]
  79 000a 196C     		ldr	r1, [r3, #64]
  80 000c 41F08051 		orr	r1, r1, #268435456
ARM GAS  /var/folders/19/rz7506jh8xn7x1006s6s574h0000gn/T//ccVLkFTM.s 			page 5


  81 0010 1964     		str	r1, [r3, #64]
  82 0012 1B6C     		ldr	r3, [r3, #64]
  83              	.LBE8:
  84              	.LBB9:
 154:Src/main.c    **** 
 155:Src/main.c    ****   __HAL_PWR_VOLTAGESCALING_CONFIG(PWR_REGULATOR_VOLTAGE_SCALE2);
  85              		.loc 1 155 0
  86 0014 2049     		ldr	r1, .L11+4
  87              	.LBE9:
  88              	.LBB10:
 153:Src/main.c    **** 
  89              		.loc 1 153 0
  90 0016 03F08053 		and	r3, r3, #268435456
  91 001a 0193     		str	r3, [sp, #4]
  92 001c 019B     		ldr	r3, [sp, #4]
  93              	.LBE10:
  94              	.LBB11:
  95              		.loc 1 155 0
  96 001e 0292     		str	r2, [sp, #8]
  97 0020 0B68     		ldr	r3, [r1]
  98 0022 23F44043 		bic	r3, r3, #49152
  99 0026 43F40043 		orr	r3, r3, #32768
 100 002a 0B60     		str	r3, [r1]
 101 002c 0B68     		ldr	r3, [r1]
 102              	.LBE11:
 156:Src/main.c    **** 
 157:Src/main.c    ****   RCC_OscInitStruct.OscillatorType = RCC_OSCILLATORTYPE_HSI;
 158:Src/main.c    ****   RCC_OscInitStruct.HSIState = RCC_HSI_ON;
 159:Src/main.c    ****   RCC_OscInitStruct.HSICalibrationValue = 16;
 160:Src/main.c    ****   RCC_OscInitStruct.PLL.PLLState = RCC_PLL_NONE;
 103              		.loc 1 160 0
 104 002e 0E92     		str	r2, [sp, #56]
 105              	.LBB12:
 155:Src/main.c    **** 
 106              		.loc 1 155 0
 107 0030 03F44043 		and	r3, r3, #49152
 108 0034 0293     		str	r3, [sp, #8]
 109 0036 029B     		ldr	r3, [sp, #8]
 110              	.LBE12:
 157:Src/main.c    ****   RCC_OscInitStruct.HSIState = RCC_HSI_ON;
 111              		.loc 1 157 0
 112 0038 0223     		movs	r3, #2
 113 003a 0893     		str	r3, [sp, #32]
 158:Src/main.c    ****   RCC_OscInitStruct.HSICalibrationValue = 16;
 114              		.loc 1 158 0
 115 003c 0123     		movs	r3, #1
 116 003e 0B93     		str	r3, [sp, #44]
 161:Src/main.c    ****   if (HAL_RCC_OscConfig(&RCC_OscInitStruct) != HAL_OK)
 117              		.loc 1 161 0
 118 0040 08A8     		add	r0, sp, #32
 159:Src/main.c    ****   RCC_OscInitStruct.PLL.PLLState = RCC_PLL_NONE;
 119              		.loc 1 159 0
 120 0042 1023     		movs	r3, #16
 121 0044 0C93     		str	r3, [sp, #48]
 122              		.loc 1 161 0
 123 0046 FFF7FEFF 		bl	HAL_RCC_OscConfig
 124              	.LVL0:
ARM GAS  /var/folders/19/rz7506jh8xn7x1006s6s574h0000gn/T//ccVLkFTM.s 			page 6


 125 004a 0146     		mov	r1, r0
 126 004c 00B1     		cbz	r0, .L4
 127              	.L8:
 128 004e FEE7     		b	.L8
 129              	.L4:
 162:Src/main.c    ****   {
 163:Src/main.c    ****     Error_Handler();
 164:Src/main.c    ****   }
 165:Src/main.c    **** 
 166:Src/main.c    ****   RCC_ClkInitStruct.ClockType = RCC_CLOCKTYPE_HCLK|RCC_CLOCKTYPE_SYSCLK
 130              		.loc 1 166 0
 131 0050 0F23     		movs	r3, #15
 132 0052 0393     		str	r3, [sp, #12]
 167:Src/main.c    ****                               |RCC_CLOCKTYPE_PCLK1|RCC_CLOCKTYPE_PCLK2;
 168:Src/main.c    ****   RCC_ClkInitStruct.SYSCLKSource = RCC_SYSCLKSOURCE_HSI;
 133              		.loc 1 168 0
 134 0054 0490     		str	r0, [sp, #16]
 169:Src/main.c    ****   RCC_ClkInitStruct.AHBCLKDivider = RCC_SYSCLK_DIV1;
 135              		.loc 1 169 0
 136 0056 0590     		str	r0, [sp, #20]
 170:Src/main.c    ****   RCC_ClkInitStruct.APB1CLKDivider = RCC_HCLK_DIV2;
 137              		.loc 1 170 0
 138 0058 4FF48053 		mov	r3, #4096
 171:Src/main.c    ****   RCC_ClkInitStruct.APB2CLKDivider = RCC_HCLK_DIV1;
 139              		.loc 1 171 0
 140 005c 0790     		str	r0, [sp, #28]
 172:Src/main.c    ****   if (HAL_RCC_ClockConfig(&RCC_ClkInitStruct, FLASH_LATENCY_0) != HAL_OK)
 141              		.loc 1 172 0
 142 005e 03A8     		add	r0, sp, #12
 170:Src/main.c    ****   RCC_ClkInitStruct.APB1CLKDivider = RCC_HCLK_DIV2;
 143              		.loc 1 170 0
 144 0060 0693     		str	r3, [sp, #24]
 145              		.loc 1 172 0
 146 0062 FFF7FEFF 		bl	HAL_RCC_ClockConfig
 147              	.LVL1:
 148 0066 0446     		mov	r4, r0
 149 0068 00B1     		cbz	r0, .L6
 150              	.L9:
 151 006a FEE7     		b	.L9
 152              	.L6:
 173:Src/main.c    ****   {
 174:Src/main.c    ****     Error_Handler();
 175:Src/main.c    ****   }
 176:Src/main.c    **** 
 177:Src/main.c    ****   HAL_SYSTICK_Config(HAL_RCC_GetHCLKFreq()/1000);
 153              		.loc 1 177 0
 154 006c FFF7FEFF 		bl	HAL_RCC_GetHCLKFreq
 155              	.LVL2:
 156 0070 4FF47A73 		mov	r3, #1000
 157 0074 B0FBF3F0 		udiv	r0, r0, r3
 158 0078 FFF7FEFF 		bl	HAL_SYSTICK_Config
 159              	.LVL3:
 178:Src/main.c    **** 
 179:Src/main.c    ****   HAL_SYSTICK_CLKSourceConfig(SYSTICK_CLKSOURCE_HCLK);
 160              		.loc 1 179 0
 161 007c 0420     		movs	r0, #4
 162 007e FFF7FEFF 		bl	HAL_SYSTICK_CLKSourceConfig
ARM GAS  /var/folders/19/rz7506jh8xn7x1006s6s574h0000gn/T//ccVLkFTM.s 			page 7


 163              	.LVL4:
 180:Src/main.c    **** 
 181:Src/main.c    ****   /* SysTick_IRQn interrupt configuration */
 182:Src/main.c    ****   HAL_NVIC_SetPriority(SysTick_IRQn, 0, 0);
 164              		.loc 1 182 0
 165 0082 2246     		mov	r2, r4
 166 0084 2146     		mov	r1, r4
 167 0086 4FF0FF30 		mov	r0, #-1
 168 008a FFF7FEFF 		bl	HAL_NVIC_SetPriority
 169              	.LVL5:
 183:Src/main.c    **** }
 170              		.loc 1 183 0
 171 008e 14B0     		add	sp, sp, #80
 172              	.LCFI2:
 173              		.cfi_def_cfa_offset 8
 174              		@ sp needed
 175 0090 10BD     		pop	{r4, pc}
 176              	.L12:
 177 0092 00BF     		.align	2
 178              	.L11:
 179 0094 00380240 		.word	1073887232
 180 0098 00700040 		.word	1073770496
 181              		.cfi_endproc
 182              	.LFE128:
 184              		.section	.text.startup.main,"ax",%progbits
 185              		.align	1
 186              		.global	main
 187              		.thumb
 188              		.thumb_func
 190              	main:
 191              	.LFB127:
  83:Src/main.c    **** 
 192              		.loc 1 83 0
 193              		.cfi_startproc
 194              		@ Volatile: function does not return.
 195              		@ args = 0, pretend = 0, frame = 0
 196              		@ frame_needed = 0, uses_anonymous_args = 0
 197 0000 08B5     		push	{r3, lr}
 198              	.LCFI3:
 199              		.cfi_def_cfa_offset 8
 200              		.cfi_offset 3, -8
 201              		.cfi_offset 14, -4
  92:Src/main.c    **** 
 202              		.loc 1 92 0
 203 0002 FFF7FEFF 		bl	HAL_Init
 204              	.LVL6:
  95:Src/main.c    **** 
 205              		.loc 1 95 0
 206 0006 FFF7FEFF 		bl	SystemClock_Config
 207              	.LVL7:
  98:Src/main.c    ****   MX_ADC1_Init();
 208              		.loc 1 98 0
 209 000a FFF7FEFF 		bl	MX_GPIO_Init
 210              	.LVL8:
  99:Src/main.c    ****   MX_USART2_UART_Init();
 211              		.loc 1 99 0
 212 000e FFF7FEFF 		bl	MX_ADC1_Init
ARM GAS  /var/folders/19/rz7506jh8xn7x1006s6s574h0000gn/T//ccVLkFTM.s 			page 8


 213              	.LVL9:
 100:Src/main.c    ****   MX_USART6_UART_Init();
 214              		.loc 1 100 0
 215 0012 FFF7FEFF 		bl	MX_USART2_UART_Init
 216              	.LVL10:
 101:Src/main.c    **** 
 217              		.loc 1 101 0
 218 0016 FFF7FEFF 		bl	MX_USART6_UART_Init
 219              	.LVL11:
 106:Src/main.c    **** 
 220              		.loc 1 106 0
 221 001a FFF7FEFF 		bl	init
 222              	.LVL12:
 108:Src/main.c    **** 	
 223              		.loc 1 108 0
 224 001e FFF7FEFF 		bl	initVariant
 225              	.LVL13:
 110:Src/main.c    **** 	
 226              		.loc 1 110 0
 227 0022 4FF47A70 		mov	r0, #1000
 228 0026 FFF7FEFF 		bl	HAL_Delay
 229              	.LVL14:
 126:Src/main.c    **** 
 230              		.loc 1 126 0
 231 002a FFF7FEFF 		bl	setup
 232              	.LVL15:
 233              	.L14:
 137:Src/main.c    **** 	/* Arduino callback	if (serialEventRun) serialEventRun(); */
 234              		.loc 1 137 0 discriminator 1
 235 002e FFF7FEFF 		bl	loop
 236              	.LVL16:
 237 0032 FCE7     		b	.L14
 238              		.cfi_endproc
 239              	.LFE127:
 241              		.section	.text.Error_Handler,"ax",%progbits
 242              		.align	1
 243              		.global	Error_Handler
 244              		.thumb
 245              		.thumb_func
 247              	Error_Handler:
 248              	.LFB129:
 184:Src/main.c    **** 
 185:Src/main.c    **** /* USER CODE BEGIN 4 */
 186:Src/main.c    **** 
 187:Src/main.c    **** /* USER CODE END 4 */
 188:Src/main.c    **** 
 189:Src/main.c    **** /**
 190:Src/main.c    ****   * @brief  This function is executed in case of error occurrence.
 191:Src/main.c    ****   * @param  None
 192:Src/main.c    ****   * @retval None
 193:Src/main.c    ****   */
 194:Src/main.c    **** void Error_Handler(void)
 195:Src/main.c    **** {
 249              		.loc 1 195 0
 250              		.cfi_startproc
 251              		@ Volatile: function does not return.
 252              		@ args = 0, pretend = 0, frame = 0
ARM GAS  /var/folders/19/rz7506jh8xn7x1006s6s574h0000gn/T//ccVLkFTM.s 			page 9


 253              		@ frame_needed = 0, uses_anonymous_args = 0
 254              		@ link register save eliminated.
 255              	.L16:
 256 0000 FEE7     		b	.L16
 257              		.cfi_endproc
 258              	.LFE129:
 260              		.text
 261              	.Letext0:
 262              		.file 2 "/Applications/Ac6/SystemWorkbench.app/Contents/Eclipse/plugins/fr.ac6.mcu.externaltools.a
 263              		.file 3 "/Applications/Ac6/SystemWorkbench.app/Contents/Eclipse/plugins/fr.ac6.mcu.externaltools.a
 264              		.file 4 "Drivers/CMSIS/Device/ST/STM32F4xx/Include/stm32f401xe.h"
 265              		.file 5 "Drivers/STM32F4xx_HAL_Driver/Inc/stm32f4xx_hal_def.h"
 266              		.file 6 "Drivers/STM32F4xx_HAL_Driver/Inc/stm32f4xx_hal_rcc_ex.h"
 267              		.file 7 "Drivers/STM32F4xx_HAL_Driver/Inc/stm32f4xx_hal_rcc.h"
 268              		.file 8 "Drivers/STM32F4xx_HAL_Driver/Inc/stm32f4xx_hal_cortex.h"
 269              		.file 9 "Drivers/STM32F4xx_HAL_Driver/Inc/stm32f4xx_hal.h"
 270              		.file 10 "Inc/gpio.h"
 271              		.file 11 "Inc/adc.h"
 272              		.file 12 "Inc/usart.h"
 273              		.file 13 "Drivers/CMSIS/Include/core_cm4.h"
ARM GAS  /var/folders/19/rz7506jh8xn7x1006s6s574h0000gn/T//ccVLkFTM.s 			page 10

