ARM GAS  /var/folders/19/rz7506jh8xn7x1006s6s574h0000gn/T//cc6hwaGh.s 			page 1


   1              		.syntax unified
   2              		.cpu cortex-m4
   3              		.fpu softvfp
   4              		.eabi_attribute 20, 1
   5              		.eabi_attribute 21, 1
   6              		.eabi_attribute 23, 3
   7              		.eabi_attribute 24, 1
   8              		.eabi_attribute 25, 1
   9              		.eabi_attribute 26, 1
  10              		.eabi_attribute 30, 4
  11              		.eabi_attribute 34, 1
  12              		.eabi_attribute 18, 4
  13              		.thumb
  14              		.syntax unified
  15              		.file	"new.cpp"
  16              		.text
  17              	.Ltext0:
  18              		.cfi_sections	.debug_frame
  19              		.section	.text._Znwj,"ax",%progbits
  20              		.align	1
  21              		.global	_Znwj
  22              		.thumb
  23              		.thumb_func
  25              	_Znwj:
  26              	.LFB7:
  27              		.cfi_startproc
  28              		@ args = 0, pretend = 0, frame = 0
  29              		@ frame_needed = 0, uses_anonymous_args = 0
  30              		@ link register save eliminated.
  31 0000 FFF7FEBF 		b	malloc
  32              		.cfi_endproc
  33              	.LFE7:
  35              		.section	.text._Znaj,"ax",%progbits
  36              		.align	1
  37              		.global	_Znaj
  38              		.thumb
  39              		.thumb_func
  41              	_Znaj:
  42              	.LFB1:
  43              		.file 1 "../../cores/mapleMX/new.cpp"
   1:../../cores/mapleMX/new.cpp **** /*
   2:../../cores/mapleMX/new.cpp ****   Copyright (c) 2014 Arduino.  All right reserved.
   3:../../cores/mapleMX/new.cpp **** 
   4:../../cores/mapleMX/new.cpp ****   This library is free software; you can redistribute it and/or
   5:../../cores/mapleMX/new.cpp ****   modify it under the terms of the GNU Lesser General Public
   6:../../cores/mapleMX/new.cpp ****   License as published by the Free Software Foundation; either
   7:../../cores/mapleMX/new.cpp ****   version 2.1 of the License, or (at your option) any later version.
   8:../../cores/mapleMX/new.cpp **** 
   9:../../cores/mapleMX/new.cpp ****   This library is distributed in the hope that it will be useful,
  10:../../cores/mapleMX/new.cpp ****   but WITHOUT ANY WARRANTY; without even the implied warranty of
  11:../../cores/mapleMX/new.cpp ****   MERCHANTABILITY or FITNESS FOR A PARTICULAR PURPOSE. 
  12:../../cores/mapleMX/new.cpp ****   See the GNU Lesser General Public License for more details.
  13:../../cores/mapleMX/new.cpp **** 
  14:../../cores/mapleMX/new.cpp ****   You should have received a copy of the GNU Lesser General Public
  15:../../cores/mapleMX/new.cpp ****   License along with this library; if not, write to the Free Software
  16:../../cores/mapleMX/new.cpp ****   Foundation, Inc., 51 Franklin St, Fifth Floor, Boston, MA  02110-1301  USA
  17:../../cores/mapleMX/new.cpp **** */
ARM GAS  /var/folders/19/rz7506jh8xn7x1006s6s574h0000gn/T//cc6hwaGh.s 			page 2


  18:../../cores/mapleMX/new.cpp **** 
  19:../../cores/mapleMX/new.cpp **** #include <stdlib.h>
  20:../../cores/mapleMX/new.cpp **** 
  21:../../cores/mapleMX/new.cpp **** void *operator new(size_t size) {
  22:../../cores/mapleMX/new.cpp ****   return malloc(size);
  23:../../cores/mapleMX/new.cpp **** }
  24:../../cores/mapleMX/new.cpp **** 
  25:../../cores/mapleMX/new.cpp **** void *operator new[](size_t size) {
  44              		.loc 1 25 0
  45              		.cfi_startproc
  46              		@ args = 0, pretend = 0, frame = 0
  47              		@ frame_needed = 0, uses_anonymous_args = 0
  48              		@ link register save eliminated.
  49              	.LVL0:
  26:../../cores/mapleMX/new.cpp ****   return malloc(size);
  50              		.loc 1 26 0
  51 0000 FFF7FEBF 		b	malloc
  52              	.LVL1:
  53              		.cfi_endproc
  54              	.LFE1:
  56              		.section	.text._ZdlPv,"ax",%progbits
  57              		.align	1
  58              		.global	_ZdlPv
  59              		.thumb
  60              		.thumb_func
  62              	_ZdlPv:
  63              	.LFB5:
  64              		.cfi_startproc
  65              		@ args = 0, pretend = 0, frame = 0
  66              		@ frame_needed = 0, uses_anonymous_args = 0
  67              		@ link register save eliminated.
  68 0000 FFF7FEBF 		b	free
  69              		.cfi_endproc
  70              	.LFE5:
  72              		.section	.text._ZdaPv,"ax",%progbits
  73              		.align	1
  74              		.global	_ZdaPv
  75              		.thumb
  76              		.thumb_func
  78              	_ZdaPv:
  79              	.LFB3:
  27:../../cores/mapleMX/new.cpp **** }
  28:../../cores/mapleMX/new.cpp **** 
  29:../../cores/mapleMX/new.cpp **** void operator delete(void * ptr) {
  30:../../cores/mapleMX/new.cpp ****   free(ptr);
  31:../../cores/mapleMX/new.cpp **** }
  32:../../cores/mapleMX/new.cpp **** 
  33:../../cores/mapleMX/new.cpp **** void operator delete[](void * ptr) {
  80              		.loc 1 33 0
  81              		.cfi_startproc
  82              		@ args = 0, pretend = 0, frame = 0
  83              		@ frame_needed = 0, uses_anonymous_args = 0
  84              		@ link register save eliminated.
  85              	.LVL2:
  34:../../cores/mapleMX/new.cpp ****   free(ptr);
  86              		.loc 1 34 0
  87 0000 FFF7FEBF 		b	free
ARM GAS  /var/folders/19/rz7506jh8xn7x1006s6s574h0000gn/T//cc6hwaGh.s 			page 3


  88              	.LVL3:
  89              		.cfi_endproc
  90              	.LFE3:
  92              		.text
  93              	.Letext0:
  94              		.file 2 "/Applications/Ac6/SystemWorkbench.app/Contents/Eclipse/plugins/fr.ac6.mcu.externaltools.a
  95              		.file 3 "/Applications/Ac6/SystemWorkbench.app/Contents/Eclipse/plugins/fr.ac6.mcu.externaltools.a
ARM GAS  /var/folders/19/rz7506jh8xn7x1006s6s574h0000gn/T//cc6hwaGh.s 			page 4

