ARM GAS  /var/folders/19/rz7506jh8xn7x1006s6s574h0000gn/T//ccvWvFkl.s 			page 1


   1              		.syntax unified
   2              		.cpu cortex-m4
   3              		.fpu softvfp
   4              		.eabi_attribute 20, 1
   5              		.eabi_attribute 21, 1
   6              		.eabi_attribute 23, 3
   7              		.eabi_attribute 24, 1
   8              		.eabi_attribute 25, 1
   9              		.eabi_attribute 26, 1
  10              		.eabi_attribute 30, 4
  11              		.eabi_attribute 34, 1
  12              		.eabi_attribute 18, 4
  13              		.thumb
  14              		.file	"sdio.c"
  15              		.text
  16              	.Ltext0:
  17              		.cfi_sections	.debug_frame
  18              		.section	.text.MX_SDIO_SD_Init,"ax",%progbits
  19              		.align	1
  20              		.global	MX_SDIO_SD_Init
  21              		.thumb
  22              		.thumb_func
  24              	MX_SDIO_SD_Init:
  25              	.LFB125:
  26              		.file 1 "Src/sdio.c"
   1:Src/sdio.c    **** /**
   2:Src/sdio.c    ****   ******************************************************************************
   3:Src/sdio.c    ****   * File Name          : SDIO.c
   4:Src/sdio.c    ****   * Description        : This file provides code for the configuration
   5:Src/sdio.c    ****   *                      of the SDIO instances.
   6:Src/sdio.c    ****   ******************************************************************************
   7:Src/sdio.c    ****   *
   8:Src/sdio.c    ****   * COPYRIGHT(c) 2016 STMicroelectronics
   9:Src/sdio.c    ****   *
  10:Src/sdio.c    ****   * Redistribution and use in source and binary forms, with or without modification,
  11:Src/sdio.c    ****   * are permitted provided that the following conditions are met:
  12:Src/sdio.c    ****   *   1. Redistributions of source code must retain the above copyright notice,
  13:Src/sdio.c    ****   *      this list of conditions and the following disclaimer.
  14:Src/sdio.c    ****   *   2. Redistributions in binary form must reproduce the above copyright notice,
  15:Src/sdio.c    ****   *      this list of conditions and the following disclaimer in the documentation
  16:Src/sdio.c    ****   *      and/or other materials provided with the distribution.
  17:Src/sdio.c    ****   *   3. Neither the name of STMicroelectronics nor the names of its contributors
  18:Src/sdio.c    ****   *      may be used to endorse or promote products derived from this software
  19:Src/sdio.c    ****   *      without specific prior written permission.
  20:Src/sdio.c    ****   *
  21:Src/sdio.c    ****   * THIS SOFTWARE IS PROVIDED BY THE COPYRIGHT HOLDERS AND CONTRIBUTORS "AS IS"
  22:Src/sdio.c    ****   * AND ANY EXPRESS OR IMPLIED WARRANTIES, INCLUDING, BUT NOT LIMITED TO, THE
  23:Src/sdio.c    ****   * IMPLIED WARRANTIES OF MERCHANTABILITY AND FITNESS FOR A PARTICULAR PURPOSE ARE
  24:Src/sdio.c    ****   * DISCLAIMED. IN NO EVENT SHALL THE COPYRIGHT HOLDER OR CONTRIBUTORS BE LIABLE
  25:Src/sdio.c    ****   * FOR ANY DIRECT, INDIRECT, INCIDENTAL, SPECIAL, EXEMPLARY, OR CONSEQUENTIAL
  26:Src/sdio.c    ****   * DAMAGES (INCLUDING, BUT NOT LIMITED TO, PROCUREMENT OF SUBSTITUTE GOODS OR
  27:Src/sdio.c    ****   * SERVICES; LOSS OF USE, DATA, OR PROFITS; OR BUSINESS INTERRUPTION) HOWEVER
  28:Src/sdio.c    ****   * CAUSED AND ON ANY THEORY OF LIABILITY, WHETHER IN CONTRACT, STRICT LIABILITY,
  29:Src/sdio.c    ****   * OR TORT (INCLUDING NEGLIGENCE OR OTHERWISE) ARISING IN ANY WAY OUT OF THE USE
  30:Src/sdio.c    ****   * OF THIS SOFTWARE, EVEN IF ADVISED OF THE POSSIBILITY OF SUCH DAMAGE.
  31:Src/sdio.c    ****   *
  32:Src/sdio.c    ****   ******************************************************************************
ARM GAS  /var/folders/19/rz7506jh8xn7x1006s6s574h0000gn/T//ccvWvFkl.s 			page 2


  33:Src/sdio.c    ****   */
  34:Src/sdio.c    **** 
  35:Src/sdio.c    **** /* Includes ------------------------------------------------------------------*/
  36:Src/sdio.c    **** #include "sdio.h"
  37:Src/sdio.c    **** 
  38:Src/sdio.c    **** #include "gpio.h"
  39:Src/sdio.c    **** 
  40:Src/sdio.c    **** /* USER CODE BEGIN 0 */
  41:Src/sdio.c    **** 
  42:Src/sdio.c    **** /* USER CODE END 0 */
  43:Src/sdio.c    **** 
  44:Src/sdio.c    **** SD_HandleTypeDef hsd;
  45:Src/sdio.c    **** HAL_SD_CardInfoTypedef SDCardInfo;
  46:Src/sdio.c    **** 
  47:Src/sdio.c    **** /* SDIO init function */
  48:Src/sdio.c    **** 
  49:Src/sdio.c    **** void MX_SDIO_SD_Init(void)
  50:Src/sdio.c    **** {
  27              		.loc 1 50 0
  28              		.cfi_startproc
  29              		@ args = 0, pretend = 0, frame = 0
  30              		@ frame_needed = 0, uses_anonymous_args = 0
  31              		@ link register save eliminated.
  51:Src/sdio.c    **** 
  52:Src/sdio.c    ****   hsd.Instance = SDIO;
  32              		.loc 1 52 0
  33 0000 054B     		ldr	r3, .L2
  34 0002 064A     		ldr	r2, .L2+4
  35 0004 1A60     		str	r2, [r3]
  53:Src/sdio.c    ****   hsd.Init.ClockEdge = SDIO_CLOCK_EDGE_RISING;
  36              		.loc 1 53 0
  37 0006 0022     		movs	r2, #0
  38 0008 5A60     		str	r2, [r3, #4]
  54:Src/sdio.c    ****   hsd.Init.ClockBypass = SDIO_CLOCK_BYPASS_DISABLE;
  39              		.loc 1 54 0
  40 000a 9A60     		str	r2, [r3, #8]
  55:Src/sdio.c    ****   hsd.Init.ClockPowerSave = SDIO_CLOCK_POWER_SAVE_DISABLE;
  41              		.loc 1 55 0
  42 000c DA60     		str	r2, [r3, #12]
  56:Src/sdio.c    ****   hsd.Init.BusWide = SDIO_BUS_WIDE_1B;
  43              		.loc 1 56 0
  44 000e 1A61     		str	r2, [r3, #16]
  57:Src/sdio.c    ****   hsd.Init.HardwareFlowControl = SDIO_HARDWARE_FLOW_CONTROL_DISABLE;
  45              		.loc 1 57 0
  46 0010 5A61     		str	r2, [r3, #20]
  58:Src/sdio.c    ****   hsd.Init.ClockDiv = 0;
  47              		.loc 1 58 0
  48 0012 9A61     		str	r2, [r3, #24]
  49 0014 7047     		bx	lr
  50              	.L3:
  51 0016 00BF     		.align	2
  52              	.L2:
  53 0018 00000000 		.word	hsd
  54 001c 002C0140 		.word	1073818624
  55              		.cfi_endproc
  56              	.LFE125:
  58              		.section	.text.HAL_SD_MspInit,"ax",%progbits
ARM GAS  /var/folders/19/rz7506jh8xn7x1006s6s574h0000gn/T//ccvWvFkl.s 			page 3


  59              		.align	1
  60              		.global	HAL_SD_MspInit
  61              		.thumb
  62              		.thumb_func
  64              	HAL_SD_MspInit:
  65              	.LFB126:
  59:Src/sdio.c    **** 
  60:Src/sdio.c    **** }
  61:Src/sdio.c    **** 
  62:Src/sdio.c    **** void HAL_SD_MspInit(SD_HandleTypeDef* hsd)
  63:Src/sdio.c    **** {
  66              		.loc 1 63 0
  67              		.cfi_startproc
  68              		@ args = 0, pretend = 0, frame = 24
  69              		@ frame_needed = 0, uses_anonymous_args = 0
  70              	.LVL0:
  71 0000 F0B5     		push	{r4, r5, r6, r7, lr}
  72              	.LCFI0:
  73              		.cfi_def_cfa_offset 20
  74              		.cfi_offset 4, -20
  75              		.cfi_offset 5, -16
  76              		.cfi_offset 6, -12
  77              		.cfi_offset 7, -8
  78              		.cfi_offset 14, -4
  64:Src/sdio.c    **** 
  65:Src/sdio.c    ****   GPIO_InitTypeDef GPIO_InitStruct;
  66:Src/sdio.c    ****   if(hsd->Instance==SDIO)
  79              		.loc 1 66 0
  80 0002 0268     		ldr	r2, [r0]
  81 0004 154B     		ldr	r3, .L7
  82 0006 9A42     		cmp	r2, r3
  63:Src/sdio.c    **** {
  83              		.loc 1 63 0
  84 0008 87B0     		sub	sp, sp, #28
  85              	.LCFI1:
  86              		.cfi_def_cfa_offset 48
  87              		.loc 1 66 0
  88 000a 25D1     		bne	.L4
  89              	.LBB2:
  67:Src/sdio.c    ****   {
  68:Src/sdio.c    ****   /* USER CODE BEGIN SDIO_MspInit 0 */
  69:Src/sdio.c    **** 
  70:Src/sdio.c    ****   /* USER CODE END SDIO_MspInit 0 */
  71:Src/sdio.c    ****     /* Peripheral clock enable */
  72:Src/sdio.c    ****     __SDIO_CLK_ENABLE();
  90              		.loc 1 72 0
  91 000c 0024     		movs	r4, #0
  92 000e 03F58633 		add	r3, r3, #68608
  93 0012 0094     		str	r4, [sp]
  94 0014 5A6C     		ldr	r2, [r3, #68]
  95              	.LBE2:
  73:Src/sdio.c    ****   
  74:Src/sdio.c    ****     /**SDIO GPIO Configuration    
  75:Src/sdio.c    ****     PC8     ------> SDIO_D0
  76:Src/sdio.c    ****     PC9     ------> SDIO_D1
  77:Src/sdio.c    ****     PC10     ------> SDIO_D2
  78:Src/sdio.c    ****     PC11     ------> SDIO_D3
ARM GAS  /var/folders/19/rz7506jh8xn7x1006s6s574h0000gn/T//ccvWvFkl.s 			page 4


  79:Src/sdio.c    ****     PC12     ------> SDIO_CK
  80:Src/sdio.c    ****     PD2     ------> SDIO_CMD 
  81:Src/sdio.c    ****     */
  82:Src/sdio.c    ****     GPIO_InitStruct.Pin = GPIO_PIN_8|GPIO_PIN_9|GPIO_PIN_10|GPIO_PIN_11 
  83:Src/sdio.c    ****                           |GPIO_PIN_12;
  84:Src/sdio.c    ****     GPIO_InitStruct.Mode = GPIO_MODE_AF_PP;
  85:Src/sdio.c    ****     GPIO_InitStruct.Pull = GPIO_NOPULL;
  86:Src/sdio.c    ****     GPIO_InitStruct.Speed = GPIO_SPEED_HIGH;
  87:Src/sdio.c    ****     GPIO_InitStruct.Alternate = GPIO_AF12_SDIO;
  88:Src/sdio.c    ****     HAL_GPIO_Init(GPIOC, &GPIO_InitStruct);
  96              		.loc 1 88 0
  97 0016 1248     		ldr	r0, .L7+4
  98              	.LVL1:
  99              	.LBB3:
  72:Src/sdio.c    ****     __SDIO_CLK_ENABLE();
 100              		.loc 1 72 0
 101 0018 42F40062 		orr	r2, r2, #2048
 102 001c 5A64     		str	r2, [r3, #68]
 103 001e 5B6C     		ldr	r3, [r3, #68]
 104              	.LBE3:
  85:Src/sdio.c    ****     GPIO_InitStruct.Pull = GPIO_NOPULL;
 105              		.loc 1 85 0
 106 0020 0394     		str	r4, [sp, #12]
 107              	.LBB4:
  72:Src/sdio.c    ****     __SDIO_CLK_ENABLE();
 108              		.loc 1 72 0
 109 0022 03F40063 		and	r3, r3, #2048
 110 0026 0093     		str	r3, [sp]
 111 0028 009B     		ldr	r3, [sp]
 112              	.LBE4:
  84:Src/sdio.c    ****     GPIO_InitStruct.Mode = GPIO_MODE_AF_PP;
 113              		.loc 1 84 0
 114 002a 0227     		movs	r7, #2
  82:Src/sdio.c    ****     GPIO_InitStruct.Pin = GPIO_PIN_8|GPIO_PIN_9|GPIO_PIN_10|GPIO_PIN_11 
 115              		.loc 1 82 0
 116 002c 4FF4F853 		mov	r3, #7936
  86:Src/sdio.c    ****     GPIO_InitStruct.Speed = GPIO_SPEED_HIGH;
 117              		.loc 1 86 0
 118 0030 0326     		movs	r6, #3
  87:Src/sdio.c    ****     GPIO_InitStruct.Alternate = GPIO_AF12_SDIO;
 119              		.loc 1 87 0
 120 0032 0C25     		movs	r5, #12
 121              		.loc 1 88 0
 122 0034 01A9     		add	r1, sp, #4
  82:Src/sdio.c    ****     GPIO_InitStruct.Pin = GPIO_PIN_8|GPIO_PIN_9|GPIO_PIN_10|GPIO_PIN_11 
 123              		.loc 1 82 0
 124 0036 0193     		str	r3, [sp, #4]
  84:Src/sdio.c    ****     GPIO_InitStruct.Mode = GPIO_MODE_AF_PP;
 125              		.loc 1 84 0
 126 0038 0297     		str	r7, [sp, #8]
  86:Src/sdio.c    ****     GPIO_InitStruct.Speed = GPIO_SPEED_HIGH;
 127              		.loc 1 86 0
 128 003a 0496     		str	r6, [sp, #16]
  87:Src/sdio.c    ****     GPIO_InitStruct.Alternate = GPIO_AF12_SDIO;
 129              		.loc 1 87 0
 130 003c 0595     		str	r5, [sp, #20]
 131              		.loc 1 88 0
ARM GAS  /var/folders/19/rz7506jh8xn7x1006s6s574h0000gn/T//ccvWvFkl.s 			page 5


 132 003e FFF7FEFF 		bl	HAL_GPIO_Init
 133              	.LVL2:
  89:Src/sdio.c    **** 
  90:Src/sdio.c    ****     GPIO_InitStruct.Pin = GPIO_PIN_2;
 134              		.loc 1 90 0
 135 0042 0423     		movs	r3, #4
  91:Src/sdio.c    ****     GPIO_InitStruct.Mode = GPIO_MODE_AF_PP;
  92:Src/sdio.c    ****     GPIO_InitStruct.Pull = GPIO_NOPULL;
  93:Src/sdio.c    ****     GPIO_InitStruct.Speed = GPIO_SPEED_HIGH;
  94:Src/sdio.c    ****     GPIO_InitStruct.Alternate = GPIO_AF12_SDIO;
  95:Src/sdio.c    ****     HAL_GPIO_Init(GPIOD, &GPIO_InitStruct);
 136              		.loc 1 95 0
 137 0044 0748     		ldr	r0, .L7+8
  90:Src/sdio.c    ****     GPIO_InitStruct.Pin = GPIO_PIN_2;
 138              		.loc 1 90 0
 139 0046 0193     		str	r3, [sp, #4]
 140              		.loc 1 95 0
 141 0048 0DEB0301 		add	r1, sp, r3
  91:Src/sdio.c    ****     GPIO_InitStruct.Mode = GPIO_MODE_AF_PP;
 142              		.loc 1 91 0
 143 004c 0297     		str	r7, [sp, #8]
  92:Src/sdio.c    ****     GPIO_InitStruct.Pull = GPIO_NOPULL;
 144              		.loc 1 92 0
 145 004e 0394     		str	r4, [sp, #12]
  93:Src/sdio.c    ****     GPIO_InitStruct.Speed = GPIO_SPEED_HIGH;
 146              		.loc 1 93 0
 147 0050 0496     		str	r6, [sp, #16]
  94:Src/sdio.c    ****     GPIO_InitStruct.Alternate = GPIO_AF12_SDIO;
 148              		.loc 1 94 0
 149 0052 0595     		str	r5, [sp, #20]
 150              		.loc 1 95 0
 151 0054 FFF7FEFF 		bl	HAL_GPIO_Init
 152              	.LVL3:
 153              	.L4:
  96:Src/sdio.c    **** 
  97:Src/sdio.c    ****   /* USER CODE BEGIN SDIO_MspInit 1 */
  98:Src/sdio.c    **** 
  99:Src/sdio.c    ****   /* USER CODE END SDIO_MspInit 1 */
 100:Src/sdio.c    ****   }
 101:Src/sdio.c    **** }
 154              		.loc 1 101 0
 155 0058 07B0     		add	sp, sp, #28
 156              		@ sp needed
 157 005a F0BD     		pop	{r4, r5, r6, r7, pc}
 158              	.L8:
 159              		.align	2
 160              	.L7:
 161 005c 002C0140 		.word	1073818624
 162 0060 00080240 		.word	1073874944
 163 0064 000C0240 		.word	1073875968
 164              		.cfi_endproc
 165              	.LFE126:
 167              		.section	.text.HAL_SD_MspDeInit,"ax",%progbits
 168              		.align	1
 169              		.global	HAL_SD_MspDeInit
 170              		.thumb
 171              		.thumb_func
ARM GAS  /var/folders/19/rz7506jh8xn7x1006s6s574h0000gn/T//ccvWvFkl.s 			page 6


 173              	HAL_SD_MspDeInit:
 174              	.LFB127:
 102:Src/sdio.c    **** 
 103:Src/sdio.c    **** void HAL_SD_MspDeInit(SD_HandleTypeDef* hsd)
 104:Src/sdio.c    **** {
 175              		.loc 1 104 0
 176              		.cfi_startproc
 177              		@ args = 0, pretend = 0, frame = 0
 178              		@ frame_needed = 0, uses_anonymous_args = 0
 179              	.LVL4:
 180 0000 08B5     		push	{r3, lr}
 181              	.LCFI2:
 182              		.cfi_def_cfa_offset 8
 183              		.cfi_offset 3, -8
 184              		.cfi_offset 14, -4
 105:Src/sdio.c    **** 
 106:Src/sdio.c    ****   if(hsd->Instance==SDIO)
 185              		.loc 1 106 0
 186 0002 0268     		ldr	r2, [r0]
 187 0004 0A4B     		ldr	r3, .L11
 188 0006 9A42     		cmp	r2, r3
 189 0008 10D1     		bne	.L9
 107:Src/sdio.c    ****   {
 108:Src/sdio.c    ****   /* USER CODE BEGIN SDIO_MspDeInit 0 */
 109:Src/sdio.c    **** 
 110:Src/sdio.c    ****   /* USER CODE END SDIO_MspDeInit 0 */
 111:Src/sdio.c    ****     /* Peripheral clock disable */
 112:Src/sdio.c    ****     __SDIO_CLK_DISABLE();
 190              		.loc 1 112 0
 191 000a 03F58633 		add	r3, r3, #68608
 113:Src/sdio.c    ****   
 114:Src/sdio.c    ****     /**SDIO GPIO Configuration    
 115:Src/sdio.c    ****     PC8     ------> SDIO_D0
 116:Src/sdio.c    ****     PC9     ------> SDIO_D1
 117:Src/sdio.c    ****     PC10     ------> SDIO_D2
 118:Src/sdio.c    ****     PC11     ------> SDIO_D3
 119:Src/sdio.c    ****     PC12     ------> SDIO_CK
 120:Src/sdio.c    ****     PD2     ------> SDIO_CMD 
 121:Src/sdio.c    ****     */
 122:Src/sdio.c    ****     HAL_GPIO_DeInit(GPIOC, GPIO_PIN_8|GPIO_PIN_9|GPIO_PIN_10|GPIO_PIN_11 
 192              		.loc 1 122 0
 193 000e 0948     		ldr	r0, .L11+4
 194              	.LVL5:
 112:Src/sdio.c    ****     __SDIO_CLK_DISABLE();
 195              		.loc 1 112 0
 196 0010 5A6C     		ldr	r2, [r3, #68]
 197 0012 22F40062 		bic	r2, r2, #2048
 198 0016 5A64     		str	r2, [r3, #68]
 199              		.loc 1 122 0
 200 0018 4FF4F851 		mov	r1, #7936
 201 001c FFF7FEFF 		bl	HAL_GPIO_DeInit
 202              	.LVL6:
 123:Src/sdio.c    ****                           |GPIO_PIN_12);
 124:Src/sdio.c    **** 
 125:Src/sdio.c    ****     HAL_GPIO_DeInit(GPIOD, GPIO_PIN_2);
 203              		.loc 1 125 0
 204 0020 0548     		ldr	r0, .L11+8
ARM GAS  /var/folders/19/rz7506jh8xn7x1006s6s574h0000gn/T//ccvWvFkl.s 			page 7


 205 0022 0421     		movs	r1, #4
 126:Src/sdio.c    **** 
 127:Src/sdio.c    ****   }
 128:Src/sdio.c    ****   /* USER CODE BEGIN SDIO_MspDeInit 1 */
 129:Src/sdio.c    **** 
 130:Src/sdio.c    ****   /* USER CODE END SDIO_MspDeInit 1 */
 131:Src/sdio.c    **** } 
 206              		.loc 1 131 0
 207 0024 BDE80840 		pop	{r3, lr}
 125:Src/sdio.c    ****     HAL_GPIO_DeInit(GPIOD, GPIO_PIN_2);
 208              		.loc 1 125 0
 209 0028 FFF7FEBF 		b	HAL_GPIO_DeInit
 210              	.LVL7:
 211              	.L9:
 212 002c 08BD     		pop	{r3, pc}
 213              	.L12:
 214 002e 00BF     		.align	2
 215              	.L11:
 216 0030 002C0140 		.word	1073818624
 217 0034 00080240 		.word	1073874944
 218 0038 000C0240 		.word	1073875968
 219              		.cfi_endproc
 220              	.LFE127:
 222              		.comm	SDCardInfo,88,8
 223              		.comm	hsd,96,4
 224              		.text
 225              	.Letext0:
 226              		.file 2 "/Users/Arethusa/Library/Arduino15/packages/arduino/tools/arm-none-eabi-gcc/4.8.3-2014q1/a
 227              		.file 3 "/Users/Arethusa/Library/Arduino15/packages/arduino/tools/arm-none-eabi-gcc/4.8.3-2014q1/a
 228              		.file 4 "Drivers/CMSIS/Device/ST/STM32F4xx/Include/stm32f401xe.h"
 229              		.file 5 "Drivers/STM32F4xx_HAL_Driver/Inc/stm32f4xx_hal_def.h"
 230              		.file 6 "Drivers/STM32F4xx_HAL_Driver/Inc/stm32f4xx_hal_gpio.h"
 231              		.file 7 "Drivers/STM32F4xx_HAL_Driver/Inc/stm32f4xx_hal_dma.h"
 232              		.file 8 "Drivers/STM32F4xx_HAL_Driver/Inc/stm32f4xx_ll_sdmmc.h"
 233              		.file 9 "Drivers/STM32F4xx_HAL_Driver/Inc/stm32f4xx_hal_sd.h"
 234              		.file 10 "Drivers/CMSIS/Include/core_cm4.h"
ARM GAS  /var/folders/19/rz7506jh8xn7x1006s6s574h0000gn/T//ccvWvFkl.s 			page 8

