ARM GAS  /var/folders/19/rz7506jh8xn7x1006s6s574h0000gn/T//cceW6kab.s 			page 1


   1              		.syntax unified
   2              		.cpu cortex-m4
   3              		.fpu softvfp
   4              		.eabi_attribute 20, 1
   5              		.eabi_attribute 21, 1
   6              		.eabi_attribute 23, 3
   7              		.eabi_attribute 24, 1
   8              		.eabi_attribute 25, 1
   9              		.eabi_attribute 26, 1
  10              		.eabi_attribute 30, 4
  11              		.eabi_attribute 34, 1
  12              		.eabi_attribute 18, 4
  13              		.thumb
  14              		.file	"stm32f4xx_hal_pcd.c"
  15              		.text
  16              	.Ltext0:
  17              		.cfi_sections	.debug_frame
  18              		.section	.text.HAL_PCD_MspInit,"ax",%progbits
  19              		.align	1
  20              		.weak	HAL_PCD_MspInit
  21              		.thumb
  22              		.thumb_func
  24              	HAL_PCD_MspInit:
  25              	.LFB127:
  26              		.file 1 "Drivers/STM32F4xx_HAL_Driver/Src/stm32f4xx_hal_pcd.c"
   1:Drivers/STM32F4xx_HAL_Driver/Src/stm32f4xx_hal_pcd.c **** /**
   2:Drivers/STM32F4xx_HAL_Driver/Src/stm32f4xx_hal_pcd.c ****   ******************************************************************************
   3:Drivers/STM32F4xx_HAL_Driver/Src/stm32f4xx_hal_pcd.c ****   * @file    stm32f4xx_hal_pcd.c
   4:Drivers/STM32F4xx_HAL_Driver/Src/stm32f4xx_hal_pcd.c ****   * @author  MCD Application Team
   5:Drivers/STM32F4xx_HAL_Driver/Src/stm32f4xx_hal_pcd.c ****   * @version V1.4.3
   6:Drivers/STM32F4xx_HAL_Driver/Src/stm32f4xx_hal_pcd.c ****   * @date    11-December-2015
   7:Drivers/STM32F4xx_HAL_Driver/Src/stm32f4xx_hal_pcd.c ****   * @brief   PCD HAL module driver.
   8:Drivers/STM32F4xx_HAL_Driver/Src/stm32f4xx_hal_pcd.c ****   *          This file provides firmware functions to manage the following 
   9:Drivers/STM32F4xx_HAL_Driver/Src/stm32f4xx_hal_pcd.c ****   *          functionalities of the USB Peripheral Controller:
  10:Drivers/STM32F4xx_HAL_Driver/Src/stm32f4xx_hal_pcd.c ****   *           + Initialization and de-initialization functions
  11:Drivers/STM32F4xx_HAL_Driver/Src/stm32f4xx_hal_pcd.c ****   *           + IO operation functions
  12:Drivers/STM32F4xx_HAL_Driver/Src/stm32f4xx_hal_pcd.c ****   *           + Peripheral Control functions 
  13:Drivers/STM32F4xx_HAL_Driver/Src/stm32f4xx_hal_pcd.c ****   *           + Peripheral State functions
  14:Drivers/STM32F4xx_HAL_Driver/Src/stm32f4xx_hal_pcd.c ****   *         
  15:Drivers/STM32F4xx_HAL_Driver/Src/stm32f4xx_hal_pcd.c ****   @verbatim
  16:Drivers/STM32F4xx_HAL_Driver/Src/stm32f4xx_hal_pcd.c ****   ==============================================================================
  17:Drivers/STM32F4xx_HAL_Driver/Src/stm32f4xx_hal_pcd.c ****                     ##### How to use this driver #####
  18:Drivers/STM32F4xx_HAL_Driver/Src/stm32f4xx_hal_pcd.c ****   ==============================================================================
  19:Drivers/STM32F4xx_HAL_Driver/Src/stm32f4xx_hal_pcd.c ****     [..]
  20:Drivers/STM32F4xx_HAL_Driver/Src/stm32f4xx_hal_pcd.c ****       The PCD HAL driver can be used as follows:
  21:Drivers/STM32F4xx_HAL_Driver/Src/stm32f4xx_hal_pcd.c **** 
  22:Drivers/STM32F4xx_HAL_Driver/Src/stm32f4xx_hal_pcd.c ****      (#) Declare a PCD_HandleTypeDef handle structure, for example:
  23:Drivers/STM32F4xx_HAL_Driver/Src/stm32f4xx_hal_pcd.c ****          PCD_HandleTypeDef  hpcd;
  24:Drivers/STM32F4xx_HAL_Driver/Src/stm32f4xx_hal_pcd.c ****         
  25:Drivers/STM32F4xx_HAL_Driver/Src/stm32f4xx_hal_pcd.c ****      (#) Fill parameters of Init structure in HCD handle
  26:Drivers/STM32F4xx_HAL_Driver/Src/stm32f4xx_hal_pcd.c ****   
  27:Drivers/STM32F4xx_HAL_Driver/Src/stm32f4xx_hal_pcd.c ****      (#) Call HAL_PCD_Init() API to initialize the PCD peripheral (Core, Device core, ...) 
  28:Drivers/STM32F4xx_HAL_Driver/Src/stm32f4xx_hal_pcd.c **** 
  29:Drivers/STM32F4xx_HAL_Driver/Src/stm32f4xx_hal_pcd.c ****      (#) Initialize the PCD low level resources through the HAL_PCD_MspInit() API:
  30:Drivers/STM32F4xx_HAL_Driver/Src/stm32f4xx_hal_pcd.c ****          (##) Enable the PCD/USB Low Level interface clock using 
  31:Drivers/STM32F4xx_HAL_Driver/Src/stm32f4xx_hal_pcd.c ****               (+++) __HAL_RCC_USB_OTG_FS_CLK_ENABLE();
  32:Drivers/STM32F4xx_HAL_Driver/Src/stm32f4xx_hal_pcd.c ****               (+++) __HAL_RCC_USB_OTG_HS_CLK_ENABLE(); (For High Speed Mode)
ARM GAS  /var/folders/19/rz7506jh8xn7x1006s6s574h0000gn/T//cceW6kab.s 			page 2


  33:Drivers/STM32F4xx_HAL_Driver/Src/stm32f4xx_hal_pcd.c ****            
  34:Drivers/STM32F4xx_HAL_Driver/Src/stm32f4xx_hal_pcd.c ****          (##) Initialize the related GPIO clocks
  35:Drivers/STM32F4xx_HAL_Driver/Src/stm32f4xx_hal_pcd.c ****          (##) Configure PCD pin-out
  36:Drivers/STM32F4xx_HAL_Driver/Src/stm32f4xx_hal_pcd.c ****          (##) Configure PCD NVIC interrupt
  37:Drivers/STM32F4xx_HAL_Driver/Src/stm32f4xx_hal_pcd.c ****     
  38:Drivers/STM32F4xx_HAL_Driver/Src/stm32f4xx_hal_pcd.c ****      (#)Associate the Upper USB device stack to the HAL PCD Driver:
  39:Drivers/STM32F4xx_HAL_Driver/Src/stm32f4xx_hal_pcd.c ****          (##) hpcd.pData = pdev;
  40:Drivers/STM32F4xx_HAL_Driver/Src/stm32f4xx_hal_pcd.c **** 
  41:Drivers/STM32F4xx_HAL_Driver/Src/stm32f4xx_hal_pcd.c ****      (#)Enable PCD transmission and reception:
  42:Drivers/STM32F4xx_HAL_Driver/Src/stm32f4xx_hal_pcd.c ****          (##) HAL_PCD_Start();
  43:Drivers/STM32F4xx_HAL_Driver/Src/stm32f4xx_hal_pcd.c **** 
  44:Drivers/STM32F4xx_HAL_Driver/Src/stm32f4xx_hal_pcd.c ****   @endverbatim
  45:Drivers/STM32F4xx_HAL_Driver/Src/stm32f4xx_hal_pcd.c ****   ******************************************************************************
  46:Drivers/STM32F4xx_HAL_Driver/Src/stm32f4xx_hal_pcd.c ****   * @attention
  47:Drivers/STM32F4xx_HAL_Driver/Src/stm32f4xx_hal_pcd.c ****   *
  48:Drivers/STM32F4xx_HAL_Driver/Src/stm32f4xx_hal_pcd.c ****   * <h2><center>&copy; COPYRIGHT(c) 2015 STMicroelectronics</center></h2>
  49:Drivers/STM32F4xx_HAL_Driver/Src/stm32f4xx_hal_pcd.c ****   *
  50:Drivers/STM32F4xx_HAL_Driver/Src/stm32f4xx_hal_pcd.c ****   * Redistribution and use in source and binary forms, with or without modification,
  51:Drivers/STM32F4xx_HAL_Driver/Src/stm32f4xx_hal_pcd.c ****   * are permitted provided that the following conditions are met:
  52:Drivers/STM32F4xx_HAL_Driver/Src/stm32f4xx_hal_pcd.c ****   *   1. Redistributions of source code must retain the above copyright notice,
  53:Drivers/STM32F4xx_HAL_Driver/Src/stm32f4xx_hal_pcd.c ****   *      this list of conditions and the following disclaimer.
  54:Drivers/STM32F4xx_HAL_Driver/Src/stm32f4xx_hal_pcd.c ****   *   2. Redistributions in binary form must reproduce the above copyright notice,
  55:Drivers/STM32F4xx_HAL_Driver/Src/stm32f4xx_hal_pcd.c ****   *      this list of conditions and the following disclaimer in the documentation
  56:Drivers/STM32F4xx_HAL_Driver/Src/stm32f4xx_hal_pcd.c ****   *      and/or other materials provided with the distribution.
  57:Drivers/STM32F4xx_HAL_Driver/Src/stm32f4xx_hal_pcd.c ****   *   3. Neither the name of STMicroelectronics nor the names of its contributors
  58:Drivers/STM32F4xx_HAL_Driver/Src/stm32f4xx_hal_pcd.c ****   *      may be used to endorse or promote products derived from this software
  59:Drivers/STM32F4xx_HAL_Driver/Src/stm32f4xx_hal_pcd.c ****   *      without specific prior written permission.
  60:Drivers/STM32F4xx_HAL_Driver/Src/stm32f4xx_hal_pcd.c ****   *
  61:Drivers/STM32F4xx_HAL_Driver/Src/stm32f4xx_hal_pcd.c ****   * THIS SOFTWARE IS PROVIDED BY THE COPYRIGHT HOLDERS AND CONTRIBUTORS "AS IS"
  62:Drivers/STM32F4xx_HAL_Driver/Src/stm32f4xx_hal_pcd.c ****   * AND ANY EXPRESS OR IMPLIED WARRANTIES, INCLUDING, BUT NOT LIMITED TO, THE
  63:Drivers/STM32F4xx_HAL_Driver/Src/stm32f4xx_hal_pcd.c ****   * IMPLIED WARRANTIES OF MERCHANTABILITY AND FITNESS FOR A PARTICULAR PURPOSE ARE
  64:Drivers/STM32F4xx_HAL_Driver/Src/stm32f4xx_hal_pcd.c ****   * DISCLAIMED. IN NO EVENT SHALL THE COPYRIGHT HOLDER OR CONTRIBUTORS BE LIABLE
  65:Drivers/STM32F4xx_HAL_Driver/Src/stm32f4xx_hal_pcd.c ****   * FOR ANY DIRECT, INDIRECT, INCIDENTAL, SPECIAL, EXEMPLARY, OR CONSEQUENTIAL
  66:Drivers/STM32F4xx_HAL_Driver/Src/stm32f4xx_hal_pcd.c ****   * DAMAGES (INCLUDING, BUT NOT LIMITED TO, PROCUREMENT OF SUBSTITUTE GOODS OR
  67:Drivers/STM32F4xx_HAL_Driver/Src/stm32f4xx_hal_pcd.c ****   * SERVICES; LOSS OF USE, DATA, OR PROFITS; OR BUSINESS INTERRUPTION) HOWEVER
  68:Drivers/STM32F4xx_HAL_Driver/Src/stm32f4xx_hal_pcd.c ****   * CAUSED AND ON ANY THEORY OF LIABILITY, WHETHER IN CONTRACT, STRICT LIABILITY,
  69:Drivers/STM32F4xx_HAL_Driver/Src/stm32f4xx_hal_pcd.c ****   * OR TORT (INCLUDING NEGLIGENCE OR OTHERWISE) ARISING IN ANY WAY OUT OF THE USE
  70:Drivers/STM32F4xx_HAL_Driver/Src/stm32f4xx_hal_pcd.c ****   * OF THIS SOFTWARE, EVEN IF ADVISED OF THE POSSIBILITY OF SUCH DAMAGE.
  71:Drivers/STM32F4xx_HAL_Driver/Src/stm32f4xx_hal_pcd.c ****   *
  72:Drivers/STM32F4xx_HAL_Driver/Src/stm32f4xx_hal_pcd.c ****   ******************************************************************************
  73:Drivers/STM32F4xx_HAL_Driver/Src/stm32f4xx_hal_pcd.c ****   */ 
  74:Drivers/STM32F4xx_HAL_Driver/Src/stm32f4xx_hal_pcd.c **** 
  75:Drivers/STM32F4xx_HAL_Driver/Src/stm32f4xx_hal_pcd.c **** /* Includes ------------------------------------------------------------------*/
  76:Drivers/STM32F4xx_HAL_Driver/Src/stm32f4xx_hal_pcd.c **** #include "stm32f4xx_hal.h"
  77:Drivers/STM32F4xx_HAL_Driver/Src/stm32f4xx_hal_pcd.c **** 
  78:Drivers/STM32F4xx_HAL_Driver/Src/stm32f4xx_hal_pcd.c **** /** @addtogroup STM32F4xx_HAL_Driver
  79:Drivers/STM32F4xx_HAL_Driver/Src/stm32f4xx_hal_pcd.c ****   * @{
  80:Drivers/STM32F4xx_HAL_Driver/Src/stm32f4xx_hal_pcd.c ****   */
  81:Drivers/STM32F4xx_HAL_Driver/Src/stm32f4xx_hal_pcd.c **** 
  82:Drivers/STM32F4xx_HAL_Driver/Src/stm32f4xx_hal_pcd.c **** /** @defgroup PCD PCD
  83:Drivers/STM32F4xx_HAL_Driver/Src/stm32f4xx_hal_pcd.c ****   * @brief PCD HAL module driver
  84:Drivers/STM32F4xx_HAL_Driver/Src/stm32f4xx_hal_pcd.c ****   * @{
  85:Drivers/STM32F4xx_HAL_Driver/Src/stm32f4xx_hal_pcd.c ****   */
  86:Drivers/STM32F4xx_HAL_Driver/Src/stm32f4xx_hal_pcd.c **** 
  87:Drivers/STM32F4xx_HAL_Driver/Src/stm32f4xx_hal_pcd.c **** #ifdef HAL_PCD_MODULE_ENABLED
  88:Drivers/STM32F4xx_HAL_Driver/Src/stm32f4xx_hal_pcd.c **** #if defined(STM32F405xx) || defined(STM32F415xx) || defined(STM32F407xx) || defined(STM32F417xx) ||
  89:Drivers/STM32F4xx_HAL_Driver/Src/stm32f4xx_hal_pcd.c ****     defined(STM32F427xx) || defined(STM32F437xx) || defined(STM32F429xx) || defined(STM32F439xx) ||
ARM GAS  /var/folders/19/rz7506jh8xn7x1006s6s574h0000gn/T//cceW6kab.s 			page 3


  90:Drivers/STM32F4xx_HAL_Driver/Src/stm32f4xx_hal_pcd.c ****     defined(STM32F401xC) || defined(STM32F401xE) || defined(STM32F411xE) || defined(STM32F446xx) ||
  91:Drivers/STM32F4xx_HAL_Driver/Src/stm32f4xx_hal_pcd.c ****     defined(STM32F469xx) || defined(STM32F479xx)
  92:Drivers/STM32F4xx_HAL_Driver/Src/stm32f4xx_hal_pcd.c **** /* Private types -------------------------------------------------------------*/
  93:Drivers/STM32F4xx_HAL_Driver/Src/stm32f4xx_hal_pcd.c **** /* Private variables ---------------------------------------------------------*/
  94:Drivers/STM32F4xx_HAL_Driver/Src/stm32f4xx_hal_pcd.c **** /* Private constants ---------------------------------------------------------*/
  95:Drivers/STM32F4xx_HAL_Driver/Src/stm32f4xx_hal_pcd.c **** /* Private macros ------------------------------------------------------------*/
  96:Drivers/STM32F4xx_HAL_Driver/Src/stm32f4xx_hal_pcd.c **** /** @defgroup PCD_Private_Macros PCD Private Macros
  97:Drivers/STM32F4xx_HAL_Driver/Src/stm32f4xx_hal_pcd.c ****   * @{
  98:Drivers/STM32F4xx_HAL_Driver/Src/stm32f4xx_hal_pcd.c ****   */ 
  99:Drivers/STM32F4xx_HAL_Driver/Src/stm32f4xx_hal_pcd.c **** #define PCD_MIN(a, b)  (((a) < (b)) ? (a) : (b))
 100:Drivers/STM32F4xx_HAL_Driver/Src/stm32f4xx_hal_pcd.c **** #define PCD_MAX(a, b)  (((a) > (b)) ? (a) : (b))
 101:Drivers/STM32F4xx_HAL_Driver/Src/stm32f4xx_hal_pcd.c **** /**
 102:Drivers/STM32F4xx_HAL_Driver/Src/stm32f4xx_hal_pcd.c ****   * @}
 103:Drivers/STM32F4xx_HAL_Driver/Src/stm32f4xx_hal_pcd.c ****   */
 104:Drivers/STM32F4xx_HAL_Driver/Src/stm32f4xx_hal_pcd.c **** 
 105:Drivers/STM32F4xx_HAL_Driver/Src/stm32f4xx_hal_pcd.c **** /* Private functions prototypes ----------------------------------------------*/
 106:Drivers/STM32F4xx_HAL_Driver/Src/stm32f4xx_hal_pcd.c **** /** @defgroup PCD_Private_Functions PCD Private Functions
 107:Drivers/STM32F4xx_HAL_Driver/Src/stm32f4xx_hal_pcd.c ****   * @{
 108:Drivers/STM32F4xx_HAL_Driver/Src/stm32f4xx_hal_pcd.c ****   */
 109:Drivers/STM32F4xx_HAL_Driver/Src/stm32f4xx_hal_pcd.c **** static HAL_StatusTypeDef PCD_WriteEmptyTxFifo(PCD_HandleTypeDef *hpcd, uint32_t epnum);
 110:Drivers/STM32F4xx_HAL_Driver/Src/stm32f4xx_hal_pcd.c **** /**
 111:Drivers/STM32F4xx_HAL_Driver/Src/stm32f4xx_hal_pcd.c ****   * @}
 112:Drivers/STM32F4xx_HAL_Driver/Src/stm32f4xx_hal_pcd.c ****   */
 113:Drivers/STM32F4xx_HAL_Driver/Src/stm32f4xx_hal_pcd.c **** 
 114:Drivers/STM32F4xx_HAL_Driver/Src/stm32f4xx_hal_pcd.c **** /* Exported functions --------------------------------------------------------*/
 115:Drivers/STM32F4xx_HAL_Driver/Src/stm32f4xx_hal_pcd.c **** /** @defgroup PCD_Exported_Functions PCD Exported Functions
 116:Drivers/STM32F4xx_HAL_Driver/Src/stm32f4xx_hal_pcd.c ****   * @{
 117:Drivers/STM32F4xx_HAL_Driver/Src/stm32f4xx_hal_pcd.c ****   */
 118:Drivers/STM32F4xx_HAL_Driver/Src/stm32f4xx_hal_pcd.c **** 
 119:Drivers/STM32F4xx_HAL_Driver/Src/stm32f4xx_hal_pcd.c **** /** @defgroup PCD_Exported_Functions_Group1 Initialization and de-initialization functions 
 120:Drivers/STM32F4xx_HAL_Driver/Src/stm32f4xx_hal_pcd.c ****  *  @brief    Initialization and Configuration functions 
 121:Drivers/STM32F4xx_HAL_Driver/Src/stm32f4xx_hal_pcd.c ****  *
 122:Drivers/STM32F4xx_HAL_Driver/Src/stm32f4xx_hal_pcd.c **** @verbatim 
 123:Drivers/STM32F4xx_HAL_Driver/Src/stm32f4xx_hal_pcd.c ****  ===============================================================================
 124:Drivers/STM32F4xx_HAL_Driver/Src/stm32f4xx_hal_pcd.c ****             ##### Initialization and de-initialization functions #####
 125:Drivers/STM32F4xx_HAL_Driver/Src/stm32f4xx_hal_pcd.c ****  ===============================================================================
 126:Drivers/STM32F4xx_HAL_Driver/Src/stm32f4xx_hal_pcd.c ****     [..]  This section provides functions allowing to:
 127:Drivers/STM32F4xx_HAL_Driver/Src/stm32f4xx_hal_pcd.c ****  
 128:Drivers/STM32F4xx_HAL_Driver/Src/stm32f4xx_hal_pcd.c **** @endverbatim
 129:Drivers/STM32F4xx_HAL_Driver/Src/stm32f4xx_hal_pcd.c ****   * @{
 130:Drivers/STM32F4xx_HAL_Driver/Src/stm32f4xx_hal_pcd.c ****   */
 131:Drivers/STM32F4xx_HAL_Driver/Src/stm32f4xx_hal_pcd.c **** 
 132:Drivers/STM32F4xx_HAL_Driver/Src/stm32f4xx_hal_pcd.c **** /**
 133:Drivers/STM32F4xx_HAL_Driver/Src/stm32f4xx_hal_pcd.c ****   * @brief  Initializes the PCD according to the specified
 134:Drivers/STM32F4xx_HAL_Driver/Src/stm32f4xx_hal_pcd.c ****   *         parameters in the PCD_InitTypeDef and initialize the associated handle.
 135:Drivers/STM32F4xx_HAL_Driver/Src/stm32f4xx_hal_pcd.c ****   * @param  hpcd: PCD handle
 136:Drivers/STM32F4xx_HAL_Driver/Src/stm32f4xx_hal_pcd.c ****   * @retval HAL status
 137:Drivers/STM32F4xx_HAL_Driver/Src/stm32f4xx_hal_pcd.c ****   */
 138:Drivers/STM32F4xx_HAL_Driver/Src/stm32f4xx_hal_pcd.c **** HAL_StatusTypeDef HAL_PCD_Init(PCD_HandleTypeDef *hpcd)
 139:Drivers/STM32F4xx_HAL_Driver/Src/stm32f4xx_hal_pcd.c **** { 
 140:Drivers/STM32F4xx_HAL_Driver/Src/stm32f4xx_hal_pcd.c ****   uint32_t i = 0;
 141:Drivers/STM32F4xx_HAL_Driver/Src/stm32f4xx_hal_pcd.c ****   
 142:Drivers/STM32F4xx_HAL_Driver/Src/stm32f4xx_hal_pcd.c ****   /* Check the PCD handle allocation */
 143:Drivers/STM32F4xx_HAL_Driver/Src/stm32f4xx_hal_pcd.c ****   if(hpcd == NULL)
 144:Drivers/STM32F4xx_HAL_Driver/Src/stm32f4xx_hal_pcd.c ****   {
 145:Drivers/STM32F4xx_HAL_Driver/Src/stm32f4xx_hal_pcd.c ****     return HAL_ERROR;
 146:Drivers/STM32F4xx_HAL_Driver/Src/stm32f4xx_hal_pcd.c ****   }
ARM GAS  /var/folders/19/rz7506jh8xn7x1006s6s574h0000gn/T//cceW6kab.s 			page 4


 147:Drivers/STM32F4xx_HAL_Driver/Src/stm32f4xx_hal_pcd.c ****   
 148:Drivers/STM32F4xx_HAL_Driver/Src/stm32f4xx_hal_pcd.c ****   /* Check the parameters */
 149:Drivers/STM32F4xx_HAL_Driver/Src/stm32f4xx_hal_pcd.c ****   assert_param(IS_PCD_ALL_INSTANCE(hpcd->Instance));
 150:Drivers/STM32F4xx_HAL_Driver/Src/stm32f4xx_hal_pcd.c **** 
 151:Drivers/STM32F4xx_HAL_Driver/Src/stm32f4xx_hal_pcd.c ****   hpcd->State = HAL_PCD_STATE_BUSY;
 152:Drivers/STM32F4xx_HAL_Driver/Src/stm32f4xx_hal_pcd.c ****   
 153:Drivers/STM32F4xx_HAL_Driver/Src/stm32f4xx_hal_pcd.c ****   /* Init the low level hardware : GPIO, CLOCK, NVIC... */
 154:Drivers/STM32F4xx_HAL_Driver/Src/stm32f4xx_hal_pcd.c ****   HAL_PCD_MspInit(hpcd);
 155:Drivers/STM32F4xx_HAL_Driver/Src/stm32f4xx_hal_pcd.c **** 
 156:Drivers/STM32F4xx_HAL_Driver/Src/stm32f4xx_hal_pcd.c ****   /* Disable the Interrupts */
 157:Drivers/STM32F4xx_HAL_Driver/Src/stm32f4xx_hal_pcd.c ****  __HAL_PCD_DISABLE(hpcd);
 158:Drivers/STM32F4xx_HAL_Driver/Src/stm32f4xx_hal_pcd.c ****  
 159:Drivers/STM32F4xx_HAL_Driver/Src/stm32f4xx_hal_pcd.c ****  /*Init the Core (common init.) */
 160:Drivers/STM32F4xx_HAL_Driver/Src/stm32f4xx_hal_pcd.c ****  USB_CoreInit(hpcd->Instance, hpcd->Init);
 161:Drivers/STM32F4xx_HAL_Driver/Src/stm32f4xx_hal_pcd.c ****  
 162:Drivers/STM32F4xx_HAL_Driver/Src/stm32f4xx_hal_pcd.c ****  /* Force Device Mode*/
 163:Drivers/STM32F4xx_HAL_Driver/Src/stm32f4xx_hal_pcd.c ****  USB_SetCurrentMode(hpcd->Instance , USB_OTG_DEVICE_MODE);
 164:Drivers/STM32F4xx_HAL_Driver/Src/stm32f4xx_hal_pcd.c ****  
 165:Drivers/STM32F4xx_HAL_Driver/Src/stm32f4xx_hal_pcd.c ****  /* Init endpoints structures */
 166:Drivers/STM32F4xx_HAL_Driver/Src/stm32f4xx_hal_pcd.c ****  for (i = 0; i < 15 ; i++)
 167:Drivers/STM32F4xx_HAL_Driver/Src/stm32f4xx_hal_pcd.c ****  {
 168:Drivers/STM32F4xx_HAL_Driver/Src/stm32f4xx_hal_pcd.c ****    /* Init ep structure */
 169:Drivers/STM32F4xx_HAL_Driver/Src/stm32f4xx_hal_pcd.c ****    hpcd->IN_ep[i].is_in = 1;
 170:Drivers/STM32F4xx_HAL_Driver/Src/stm32f4xx_hal_pcd.c ****    hpcd->IN_ep[i].num = i;
 171:Drivers/STM32F4xx_HAL_Driver/Src/stm32f4xx_hal_pcd.c ****    hpcd->IN_ep[i].tx_fifo_num = i;
 172:Drivers/STM32F4xx_HAL_Driver/Src/stm32f4xx_hal_pcd.c ****    /* Control until ep is activated */
 173:Drivers/STM32F4xx_HAL_Driver/Src/stm32f4xx_hal_pcd.c ****    hpcd->IN_ep[i].type = EP_TYPE_CTRL;
 174:Drivers/STM32F4xx_HAL_Driver/Src/stm32f4xx_hal_pcd.c ****    hpcd->IN_ep[i].maxpacket =  0;
 175:Drivers/STM32F4xx_HAL_Driver/Src/stm32f4xx_hal_pcd.c ****    hpcd->IN_ep[i].xfer_buff = 0;
 176:Drivers/STM32F4xx_HAL_Driver/Src/stm32f4xx_hal_pcd.c ****    hpcd->IN_ep[i].xfer_len = 0;
 177:Drivers/STM32F4xx_HAL_Driver/Src/stm32f4xx_hal_pcd.c ****  }
 178:Drivers/STM32F4xx_HAL_Driver/Src/stm32f4xx_hal_pcd.c ****  
 179:Drivers/STM32F4xx_HAL_Driver/Src/stm32f4xx_hal_pcd.c ****  for (i = 0; i < 15 ; i++)
 180:Drivers/STM32F4xx_HAL_Driver/Src/stm32f4xx_hal_pcd.c ****  {
 181:Drivers/STM32F4xx_HAL_Driver/Src/stm32f4xx_hal_pcd.c ****    hpcd->OUT_ep[i].is_in = 0;
 182:Drivers/STM32F4xx_HAL_Driver/Src/stm32f4xx_hal_pcd.c ****    hpcd->OUT_ep[i].num = i;
 183:Drivers/STM32F4xx_HAL_Driver/Src/stm32f4xx_hal_pcd.c ****    hpcd->IN_ep[i].tx_fifo_num = i;
 184:Drivers/STM32F4xx_HAL_Driver/Src/stm32f4xx_hal_pcd.c ****    /* Control until ep is activated */
 185:Drivers/STM32F4xx_HAL_Driver/Src/stm32f4xx_hal_pcd.c ****    hpcd->OUT_ep[i].type = EP_TYPE_CTRL;
 186:Drivers/STM32F4xx_HAL_Driver/Src/stm32f4xx_hal_pcd.c ****    hpcd->OUT_ep[i].maxpacket = 0;
 187:Drivers/STM32F4xx_HAL_Driver/Src/stm32f4xx_hal_pcd.c ****    hpcd->OUT_ep[i].xfer_buff = 0;
 188:Drivers/STM32F4xx_HAL_Driver/Src/stm32f4xx_hal_pcd.c ****    hpcd->OUT_ep[i].xfer_len = 0;
 189:Drivers/STM32F4xx_HAL_Driver/Src/stm32f4xx_hal_pcd.c ****    
 190:Drivers/STM32F4xx_HAL_Driver/Src/stm32f4xx_hal_pcd.c ****    hpcd->Instance->DIEPTXF[i] = 0;
 191:Drivers/STM32F4xx_HAL_Driver/Src/stm32f4xx_hal_pcd.c ****  }
 192:Drivers/STM32F4xx_HAL_Driver/Src/stm32f4xx_hal_pcd.c ****  
 193:Drivers/STM32F4xx_HAL_Driver/Src/stm32f4xx_hal_pcd.c ****  /* Init Device */
 194:Drivers/STM32F4xx_HAL_Driver/Src/stm32f4xx_hal_pcd.c ****  USB_DevInit(hpcd->Instance, hpcd->Init);
 195:Drivers/STM32F4xx_HAL_Driver/Src/stm32f4xx_hal_pcd.c ****  
 196:Drivers/STM32F4xx_HAL_Driver/Src/stm32f4xx_hal_pcd.c ****  hpcd->State= HAL_PCD_STATE_READY;
 197:Drivers/STM32F4xx_HAL_Driver/Src/stm32f4xx_hal_pcd.c ****  
 198:Drivers/STM32F4xx_HAL_Driver/Src/stm32f4xx_hal_pcd.c **** #ifdef USB_OTG_GLPMCFG_LPMEN
 199:Drivers/STM32F4xx_HAL_Driver/Src/stm32f4xx_hal_pcd.c ****  /* Activate LPM */
 200:Drivers/STM32F4xx_HAL_Driver/Src/stm32f4xx_hal_pcd.c ****  if (hpcd->Init.lpm_enable == 1)
 201:Drivers/STM32F4xx_HAL_Driver/Src/stm32f4xx_hal_pcd.c ****  {
 202:Drivers/STM32F4xx_HAL_Driver/Src/stm32f4xx_hal_pcd.c ****    HAL_PCDEx_ActivateLPM(hpcd);
 203:Drivers/STM32F4xx_HAL_Driver/Src/stm32f4xx_hal_pcd.c ****  }
ARM GAS  /var/folders/19/rz7506jh8xn7x1006s6s574h0000gn/T//cceW6kab.s 			page 5


 204:Drivers/STM32F4xx_HAL_Driver/Src/stm32f4xx_hal_pcd.c **** #endif /* USB_OTG_GLPMCFG_LPMEN */
 205:Drivers/STM32F4xx_HAL_Driver/Src/stm32f4xx_hal_pcd.c ****  
 206:Drivers/STM32F4xx_HAL_Driver/Src/stm32f4xx_hal_pcd.c **** #ifdef USB_OTG_GCCFG_BCDEN
 207:Drivers/STM32F4xx_HAL_Driver/Src/stm32f4xx_hal_pcd.c ****  /* Activate Battery charging */
 208:Drivers/STM32F4xx_HAL_Driver/Src/stm32f4xx_hal_pcd.c ****  if (hpcd->Init.battery_charging_enable ==1)
 209:Drivers/STM32F4xx_HAL_Driver/Src/stm32f4xx_hal_pcd.c ****  {
 210:Drivers/STM32F4xx_HAL_Driver/Src/stm32f4xx_hal_pcd.c ****    HAL_PCDEx_ActivateBCD(hpcd);
 211:Drivers/STM32F4xx_HAL_Driver/Src/stm32f4xx_hal_pcd.c ****  }
 212:Drivers/STM32F4xx_HAL_Driver/Src/stm32f4xx_hal_pcd.c **** #endif /* USB_OTG_GCCFG_BCDEN */
 213:Drivers/STM32F4xx_HAL_Driver/Src/stm32f4xx_hal_pcd.c ****  
 214:Drivers/STM32F4xx_HAL_Driver/Src/stm32f4xx_hal_pcd.c ****  USB_DevDisconnect (hpcd->Instance);  
 215:Drivers/STM32F4xx_HAL_Driver/Src/stm32f4xx_hal_pcd.c ****  return HAL_OK;
 216:Drivers/STM32F4xx_HAL_Driver/Src/stm32f4xx_hal_pcd.c **** }
 217:Drivers/STM32F4xx_HAL_Driver/Src/stm32f4xx_hal_pcd.c **** 
 218:Drivers/STM32F4xx_HAL_Driver/Src/stm32f4xx_hal_pcd.c **** /**
 219:Drivers/STM32F4xx_HAL_Driver/Src/stm32f4xx_hal_pcd.c ****   * @brief  DeInitializes the PCD peripheral. 
 220:Drivers/STM32F4xx_HAL_Driver/Src/stm32f4xx_hal_pcd.c ****   * @param  hpcd: PCD handle
 221:Drivers/STM32F4xx_HAL_Driver/Src/stm32f4xx_hal_pcd.c ****   * @retval HAL status
 222:Drivers/STM32F4xx_HAL_Driver/Src/stm32f4xx_hal_pcd.c ****   */
 223:Drivers/STM32F4xx_HAL_Driver/Src/stm32f4xx_hal_pcd.c **** HAL_StatusTypeDef HAL_PCD_DeInit(PCD_HandleTypeDef *hpcd)
 224:Drivers/STM32F4xx_HAL_Driver/Src/stm32f4xx_hal_pcd.c **** {
 225:Drivers/STM32F4xx_HAL_Driver/Src/stm32f4xx_hal_pcd.c ****   /* Check the PCD handle allocation */
 226:Drivers/STM32F4xx_HAL_Driver/Src/stm32f4xx_hal_pcd.c ****   if(hpcd == NULL)
 227:Drivers/STM32F4xx_HAL_Driver/Src/stm32f4xx_hal_pcd.c ****   {
 228:Drivers/STM32F4xx_HAL_Driver/Src/stm32f4xx_hal_pcd.c ****     return HAL_ERROR;
 229:Drivers/STM32F4xx_HAL_Driver/Src/stm32f4xx_hal_pcd.c ****   }
 230:Drivers/STM32F4xx_HAL_Driver/Src/stm32f4xx_hal_pcd.c **** 
 231:Drivers/STM32F4xx_HAL_Driver/Src/stm32f4xx_hal_pcd.c ****   hpcd->State = HAL_PCD_STATE_BUSY;
 232:Drivers/STM32F4xx_HAL_Driver/Src/stm32f4xx_hal_pcd.c ****   
 233:Drivers/STM32F4xx_HAL_Driver/Src/stm32f4xx_hal_pcd.c ****   /* Stop Device */
 234:Drivers/STM32F4xx_HAL_Driver/Src/stm32f4xx_hal_pcd.c ****   HAL_PCD_Stop(hpcd);
 235:Drivers/STM32F4xx_HAL_Driver/Src/stm32f4xx_hal_pcd.c ****     
 236:Drivers/STM32F4xx_HAL_Driver/Src/stm32f4xx_hal_pcd.c ****   /* DeInit the low level hardware */
 237:Drivers/STM32F4xx_HAL_Driver/Src/stm32f4xx_hal_pcd.c ****   HAL_PCD_MspDeInit(hpcd);
 238:Drivers/STM32F4xx_HAL_Driver/Src/stm32f4xx_hal_pcd.c ****   
 239:Drivers/STM32F4xx_HAL_Driver/Src/stm32f4xx_hal_pcd.c ****   hpcd->State = HAL_PCD_STATE_RESET; 
 240:Drivers/STM32F4xx_HAL_Driver/Src/stm32f4xx_hal_pcd.c ****   
 241:Drivers/STM32F4xx_HAL_Driver/Src/stm32f4xx_hal_pcd.c ****   return HAL_OK;
 242:Drivers/STM32F4xx_HAL_Driver/Src/stm32f4xx_hal_pcd.c **** }
 243:Drivers/STM32F4xx_HAL_Driver/Src/stm32f4xx_hal_pcd.c **** 
 244:Drivers/STM32F4xx_HAL_Driver/Src/stm32f4xx_hal_pcd.c **** /**
 245:Drivers/STM32F4xx_HAL_Driver/Src/stm32f4xx_hal_pcd.c ****   * @brief  Initializes the PCD MSP.
 246:Drivers/STM32F4xx_HAL_Driver/Src/stm32f4xx_hal_pcd.c ****   * @param  hpcd: PCD handle
 247:Drivers/STM32F4xx_HAL_Driver/Src/stm32f4xx_hal_pcd.c ****   * @retval None
 248:Drivers/STM32F4xx_HAL_Driver/Src/stm32f4xx_hal_pcd.c ****   */
 249:Drivers/STM32F4xx_HAL_Driver/Src/stm32f4xx_hal_pcd.c **** __weak void HAL_PCD_MspInit(PCD_HandleTypeDef *hpcd)
 250:Drivers/STM32F4xx_HAL_Driver/Src/stm32f4xx_hal_pcd.c **** {
  27              		.loc 1 250 0
  28              		.cfi_startproc
  29              		@ args = 0, pretend = 0, frame = 0
  30              		@ frame_needed = 0, uses_anonymous_args = 0
  31              		@ link register save eliminated.
  32              	.LVL0:
  33 0000 7047     		bx	lr
  34              		.cfi_endproc
  35              	.LFE127:
  37              		.section	.text.HAL_PCD_Init,"ax",%progbits
ARM GAS  /var/folders/19/rz7506jh8xn7x1006s6s574h0000gn/T//cceW6kab.s 			page 6


  38              		.align	1
  39              		.global	HAL_PCD_Init
  40              		.thumb
  41              		.thumb_func
  43              	HAL_PCD_Init:
  44              	.LFB125:
 139:Drivers/STM32F4xx_HAL_Driver/Src/stm32f4xx_hal_pcd.c **** { 
  45              		.loc 1 139 0
  46              		.cfi_startproc
  47              		@ args = 0, pretend = 0, frame = 0
  48              		@ frame_needed = 0, uses_anonymous_args = 0
  49              	.LVL1:
 139:Drivers/STM32F4xx_HAL_Driver/Src/stm32f4xx_hal_pcd.c **** { 
  50              		.loc 1 139 0
  51 0000 2DE9F041 		push	{r4, r5, r6, r7, r8, lr}
  52              	.LCFI0:
  53              		.cfi_def_cfa_offset 24
  54              		.cfi_offset 4, -24
  55              		.cfi_offset 5, -20
  56              		.cfi_offset 6, -16
  57              		.cfi_offset 7, -12
  58              		.cfi_offset 8, -8
  59              		.cfi_offset 14, -4
 143:Drivers/STM32F4xx_HAL_Driver/Src/stm32f4xx_hal_pcd.c ****   if(hpcd == NULL)
  60              		.loc 1 143 0
  61 0004 0646     		mov	r6, r0
 139:Drivers/STM32F4xx_HAL_Driver/Src/stm32f4xx_hal_pcd.c **** { 
  62              		.loc 1 139 0
  63 0006 8AB0     		sub	sp, sp, #40
  64              	.LCFI1:
  65              		.cfi_def_cfa_offset 64
 143:Drivers/STM32F4xx_HAL_Driver/Src/stm32f4xx_hal_pcd.c ****   if(hpcd == NULL)
  66              		.loc 1 143 0
  67 0008 0028     		cmp	r0, #0
  68 000a 64D0     		beq	.L8
 151:Drivers/STM32F4xx_HAL_Driver/Src/stm32f4xx_hal_pcd.c ****   hpcd->State = HAL_PCD_STATE_BUSY;
  69              		.loc 1 151 0
  70 000c 0323     		movs	r3, #3
 157:Drivers/STM32F4xx_HAL_Driver/Src/stm32f4xx_hal_pcd.c ****  __HAL_PCD_DISABLE(hpcd);
  71              		.loc 1 157 0
  72 000e 3446     		mov	r4, r6
 151:Drivers/STM32F4xx_HAL_Driver/Src/stm32f4xx_hal_pcd.c ****   hpcd->State = HAL_PCD_STATE_BUSY;
  73              		.loc 1 151 0
  74 0010 80F88133 		strb	r3, [r0, #897]
 154:Drivers/STM32F4xx_HAL_Driver/Src/stm32f4xx_hal_pcd.c ****   HAL_PCD_MspInit(hpcd);
  75              		.loc 1 154 0
  76 0014 FFF7FEFF 		bl	HAL_PCD_MspInit
  77              	.LVL2:
 157:Drivers/STM32F4xx_HAL_Driver/Src/stm32f4xx_hal_pcd.c ****  __HAL_PCD_DISABLE(hpcd);
  78              		.loc 1 157 0
  79 0018 54F8100B 		ldr	r0, [r4], #16
  80              	.LVL3:
  81 001c FFF7FEFF 		bl	USB_DisableGlobalInt
  82              	.LVL4:
 160:Drivers/STM32F4xx_HAL_Driver/Src/stm32f4xx_hal_pcd.c ****  USB_CoreInit(hpcd->Instance, hpcd->Init);
  83              		.loc 1 160 0
  84 0020 0FCC     		ldmia	r4!, {r0, r1, r2, r3}
ARM GAS  /var/folders/19/rz7506jh8xn7x1006s6s574h0000gn/T//cceW6kab.s 			page 7


  85 0022 6D46     		mov	r5, sp
  86 0024 0FC5     		stmia	r5!, {r0, r1, r2, r3}
  87 0026 0FCC     		ldmia	r4!, {r0, r1, r2, r3}
  88 0028 0FC5     		stmia	r5!, {r0, r1, r2, r3}
  89 002a 94E80300 		ldmia	r4, {r0, r1}
  90 002e 85E80300 		stmia	r5, {r0, r1}
  91 0032 06F10408 		add	r8, r6, #4
  92 0036 98E80E00 		ldmia	r8, {r1, r2, r3}
  93 003a 3068     		ldr	r0, [r6]
  94 003c FFF7FEFF 		bl	USB_CoreInit
  95              	.LVL5:
 163:Drivers/STM32F4xx_HAL_Driver/Src/stm32f4xx_hal_pcd.c ****  USB_SetCurrentMode(hpcd->Instance , USB_OTG_DEVICE_MODE);
  96              		.loc 1 163 0
  97 0040 0021     		movs	r1, #0
  98 0042 3068     		ldr	r0, [r6]
  99 0044 FFF7FEFF 		bl	USB_SetCurrentMode
 100              	.LVL6:
 101 0048 06F11005 		add	r5, r6, #16
 102 004c 3346     		mov	r3, r6
 166:Drivers/STM32F4xx_HAL_Driver/Src/stm32f4xx_hal_pcd.c ****  for (i = 0; i < 15 ; i++)
 103              		.loc 1 166 0
 104 004e 0021     		movs	r1, #0
 105              	.LVL7:
 106              	.L5:
 169:Drivers/STM32F4xx_HAL_Driver/Src/stm32f4xx_hal_pcd.c ****    hpcd->IN_ep[i].is_in = 1;
 107              		.loc 1 169 0 discriminator 2
 108 0050 0122     		movs	r2, #1
 170:Drivers/STM32F4xx_HAL_Driver/Src/stm32f4xx_hal_pcd.c ****    hpcd->IN_ep[i].num = i;
 109              		.loc 1 170 0 discriminator 2
 110 0052 83F83810 		strb	r1, [r3, #56]
 171:Drivers/STM32F4xx_HAL_Driver/Src/stm32f4xx_hal_pcd.c ****    hpcd->IN_ep[i].tx_fifo_num = i;
 111              		.loc 1 171 0 discriminator 2
 112 0056 D987     		strh	r1, [r3, #62]	@ movhi
 166:Drivers/STM32F4xx_HAL_Driver/Src/stm32f4xx_hal_pcd.c ****  for (i = 0; i < 15 ; i++)
 113              		.loc 1 166 0 discriminator 2
 114 0058 0131     		adds	r1, r1, #1
 115              	.LVL8:
 169:Drivers/STM32F4xx_HAL_Driver/Src/stm32f4xx_hal_pcd.c ****    hpcd->IN_ep[i].is_in = 1;
 116              		.loc 1 169 0 discriminator 2
 117 005a 83F83920 		strb	r2, [r3, #57]
 166:Drivers/STM32F4xx_HAL_Driver/Src/stm32f4xx_hal_pcd.c ****  for (i = 0; i < 15 ; i++)
 118              		.loc 1 166 0 discriminator 2
 119 005e 0F29     		cmp	r1, #15
 173:Drivers/STM32F4xx_HAL_Driver/Src/stm32f4xx_hal_pcd.c ****    hpcd->IN_ep[i].type = EP_TYPE_CTRL;
 120              		.loc 1 173 0 discriminator 2
 121 0060 4FF00002 		mov	r2, #0
 122 0064 83F83B20 		strb	r2, [r3, #59]
 174:Drivers/STM32F4xx_HAL_Driver/Src/stm32f4xx_hal_pcd.c ****    hpcd->IN_ep[i].maxpacket =  0;
 123              		.loc 1 174 0 discriminator 2
 124 0068 1A64     		str	r2, [r3, #64]
 175:Drivers/STM32F4xx_HAL_Driver/Src/stm32f4xx_hal_pcd.c ****    hpcd->IN_ep[i].xfer_buff = 0;
 125              		.loc 1 175 0 discriminator 2
 126 006a 5A64     		str	r2, [r3, #68]
 176:Drivers/STM32F4xx_HAL_Driver/Src/stm32f4xx_hal_pcd.c ****    hpcd->IN_ep[i].xfer_len = 0;
 127              		.loc 1 176 0 discriminator 2
 128 006c DA64     		str	r2, [r3, #76]
 129 006e 03F11C03 		add	r3, r3, #28
ARM GAS  /var/folders/19/rz7506jh8xn7x1006s6s574h0000gn/T//cceW6kab.s 			page 8


 166:Drivers/STM32F4xx_HAL_Driver/Src/stm32f4xx_hal_pcd.c ****  for (i = 0; i < 15 ; i++)
 130              		.loc 1 166 0 discriminator 2
 131 0072 EDD1     		bne	.L5
 190:Drivers/STM32F4xx_HAL_Driver/Src/stm32f4xx_hal_pcd.c ****    hpcd->Instance->DIEPTXF[i] = 0;
 132              		.loc 1 190 0
 133 0074 D6F800E0 		ldr	lr, [r6]
 134 0078 3346     		mov	r3, r6
 135              	.LVL9:
 136              	.L7:
 190:Drivers/STM32F4xx_HAL_Driver/Src/stm32f4xx_hal_pcd.c ****    hpcd->Instance->DIEPTXF[i] = 0;
 137              		.loc 1 190 0 is_stmt 0 discriminator 2
 138 007a 02F14001 		add	r1, r2, #64
 182:Drivers/STM32F4xx_HAL_Driver/Src/stm32f4xx_hal_pcd.c ****    hpcd->OUT_ep[i].num = i;
 139              		.loc 1 182 0 is_stmt 1 discriminator 2
 140 007e 83F8DC21 		strb	r2, [r3, #476]
 183:Drivers/STM32F4xx_HAL_Driver/Src/stm32f4xx_hal_pcd.c ****    hpcd->IN_ep[i].tx_fifo_num = i;
 141              		.loc 1 183 0 discriminator 2
 142 0082 DA87     		strh	r2, [r3, #62]	@ movhi
 190:Drivers/STM32F4xx_HAL_Driver/Src/stm32f4xx_hal_pcd.c ****    hpcd->Instance->DIEPTXF[i] = 0;
 143              		.loc 1 190 0 discriminator 2
 144 0084 0EEB8101 		add	r1, lr, r1, lsl #2
 179:Drivers/STM32F4xx_HAL_Driver/Src/stm32f4xx_hal_pcd.c ****  for (i = 0; i < 15 ; i++)
 145              		.loc 1 179 0 discriminator 2
 146 0088 0132     		adds	r2, r2, #1
 147              	.LVL10:
 181:Drivers/STM32F4xx_HAL_Driver/Src/stm32f4xx_hal_pcd.c ****    hpcd->OUT_ep[i].is_in = 0;
 148              		.loc 1 181 0 discriminator 2
 149 008a 0027     		movs	r7, #0
 179:Drivers/STM32F4xx_HAL_Driver/Src/stm32f4xx_hal_pcd.c ****  for (i = 0; i < 15 ; i++)
 150              		.loc 1 179 0 discriminator 2
 151 008c 0F2A     		cmp	r2, #15
 181:Drivers/STM32F4xx_HAL_Driver/Src/stm32f4xx_hal_pcd.c ****    hpcd->OUT_ep[i].is_in = 0;
 152              		.loc 1 181 0 discriminator 2
 153 008e 83F8DD71 		strb	r7, [r3, #477]
 185:Drivers/STM32F4xx_HAL_Driver/Src/stm32f4xx_hal_pcd.c ****    hpcd->OUT_ep[i].type = EP_TYPE_CTRL;
 154              		.loc 1 185 0 discriminator 2
 155 0092 83F8DF71 		strb	r7, [r3, #479]
 186:Drivers/STM32F4xx_HAL_Driver/Src/stm32f4xx_hal_pcd.c ****    hpcd->OUT_ep[i].maxpacket = 0;
 156              		.loc 1 186 0 discriminator 2
 157 0096 C3F8E471 		str	r7, [r3, #484]
 187:Drivers/STM32F4xx_HAL_Driver/Src/stm32f4xx_hal_pcd.c ****    hpcd->OUT_ep[i].xfer_buff = 0;
 158              		.loc 1 187 0 discriminator 2
 159 009a C3F8E871 		str	r7, [r3, #488]
 188:Drivers/STM32F4xx_HAL_Driver/Src/stm32f4xx_hal_pcd.c ****    hpcd->OUT_ep[i].xfer_len = 0;
 160              		.loc 1 188 0 discriminator 2
 161 009e C3F8F071 		str	r7, [r3, #496]
 190:Drivers/STM32F4xx_HAL_Driver/Src/stm32f4xx_hal_pcd.c ****    hpcd->Instance->DIEPTXF[i] = 0;
 162              		.loc 1 190 0 discriminator 2
 163 00a2 4F60     		str	r7, [r1, #4]
 164 00a4 03F11C03 		add	r3, r3, #28
 179:Drivers/STM32F4xx_HAL_Driver/Src/stm32f4xx_hal_pcd.c ****  for (i = 0; i < 15 ; i++)
 165              		.loc 1 179 0 discriminator 2
 166 00a8 E7D1     		bne	.L7
 194:Drivers/STM32F4xx_HAL_Driver/Src/stm32f4xx_hal_pcd.c ****  USB_DevInit(hpcd->Instance, hpcd->Init);
 167              		.loc 1 194 0
 168 00aa 0FCD     		ldmia	r5!, {r0, r1, r2, r3}
 169              	.LVL11:
ARM GAS  /var/folders/19/rz7506jh8xn7x1006s6s574h0000gn/T//cceW6kab.s 			page 9


 170 00ac 6C46     		mov	r4, sp
 171 00ae 0FC4     		stmia	r4!, {r0, r1, r2, r3}
 172 00b0 0FCD     		ldmia	r5!, {r0, r1, r2, r3}
 173 00b2 0FC4     		stmia	r4!, {r0, r1, r2, r3}
 174 00b4 95E80300 		ldmia	r5, {r0, r1}
 175 00b8 84E80300 		stmia	r4, {r0, r1}
 176 00bc 7046     		mov	r0, lr
 177 00be 98E80E00 		ldmia	r8, {r1, r2, r3}
 178 00c2 FFF7FEFF 		bl	USB_DevInit
 179              	.LVL12:
 196:Drivers/STM32F4xx_HAL_Driver/Src/stm32f4xx_hal_pcd.c ****  hpcd->State= HAL_PCD_STATE_READY;
 180              		.loc 1 196 0
 181 00c6 0123     		movs	r3, #1
 182 00c8 86F88133 		strb	r3, [r6, #897]
 214:Drivers/STM32F4xx_HAL_Driver/Src/stm32f4xx_hal_pcd.c ****  USB_DevDisconnect (hpcd->Instance);  
 183              		.loc 1 214 0
 184 00cc 3068     		ldr	r0, [r6]
 185 00ce FFF7FEFF 		bl	USB_DevDisconnect
 186              	.LVL13:
 215:Drivers/STM32F4xx_HAL_Driver/Src/stm32f4xx_hal_pcd.c ****  return HAL_OK;
 187              		.loc 1 215 0
 188 00d2 3846     		mov	r0, r7
 189 00d4 00E0     		b	.L3
 190              	.LVL14:
 191              	.L8:
 145:Drivers/STM32F4xx_HAL_Driver/Src/stm32f4xx_hal_pcd.c ****     return HAL_ERROR;
 192              		.loc 1 145 0
 193 00d6 0120     		movs	r0, #1
 194              	.LVL15:
 195              	.L3:
 216:Drivers/STM32F4xx_HAL_Driver/Src/stm32f4xx_hal_pcd.c **** }
 196              		.loc 1 216 0
 197 00d8 0AB0     		add	sp, sp, #40
 198              		@ sp needed
 199 00da BDE8F081 		pop	{r4, r5, r6, r7, r8, pc}
 200              		.cfi_endproc
 201              	.LFE125:
 203              		.section	.text.HAL_PCD_MspDeInit,"ax",%progbits
 204              		.align	1
 205              		.weak	HAL_PCD_MspDeInit
 206              		.thumb
 207              		.thumb_func
 209              	HAL_PCD_MspDeInit:
 210              	.LFB128:
 251:Drivers/STM32F4xx_HAL_Driver/Src/stm32f4xx_hal_pcd.c ****   /* Prevent unused argument(s) compilation warning */
 252:Drivers/STM32F4xx_HAL_Driver/Src/stm32f4xx_hal_pcd.c ****   UNUSED(hpcd);
 253:Drivers/STM32F4xx_HAL_Driver/Src/stm32f4xx_hal_pcd.c ****   /* NOTE : This function Should not be modified, when the callback is needed,
 254:Drivers/STM32F4xx_HAL_Driver/Src/stm32f4xx_hal_pcd.c ****             the HAL_PCD_MspInit could be implemented in the user file
 255:Drivers/STM32F4xx_HAL_Driver/Src/stm32f4xx_hal_pcd.c ****    */
 256:Drivers/STM32F4xx_HAL_Driver/Src/stm32f4xx_hal_pcd.c **** }
 257:Drivers/STM32F4xx_HAL_Driver/Src/stm32f4xx_hal_pcd.c **** 
 258:Drivers/STM32F4xx_HAL_Driver/Src/stm32f4xx_hal_pcd.c **** /**
 259:Drivers/STM32F4xx_HAL_Driver/Src/stm32f4xx_hal_pcd.c ****   * @brief  DeInitializes PCD MSP.
 260:Drivers/STM32F4xx_HAL_Driver/Src/stm32f4xx_hal_pcd.c ****   * @param  hpcd: PCD handle
 261:Drivers/STM32F4xx_HAL_Driver/Src/stm32f4xx_hal_pcd.c ****   * @retval None
 262:Drivers/STM32F4xx_HAL_Driver/Src/stm32f4xx_hal_pcd.c ****   */
 263:Drivers/STM32F4xx_HAL_Driver/Src/stm32f4xx_hal_pcd.c **** __weak void HAL_PCD_MspDeInit(PCD_HandleTypeDef *hpcd)
ARM GAS  /var/folders/19/rz7506jh8xn7x1006s6s574h0000gn/T//cceW6kab.s 			page 10


 264:Drivers/STM32F4xx_HAL_Driver/Src/stm32f4xx_hal_pcd.c **** {
 211              		.loc 1 264 0
 212              		.cfi_startproc
 213              		@ args = 0, pretend = 0, frame = 0
 214              		@ frame_needed = 0, uses_anonymous_args = 0
 215              		@ link register save eliminated.
 216              	.LVL16:
 217 0000 7047     		bx	lr
 218              		.cfi_endproc
 219              	.LFE128:
 221              		.section	.text.HAL_PCD_Start,"ax",%progbits
 222              		.align	1
 223              		.global	HAL_PCD_Start
 224              		.thumb
 225              		.thumb_func
 227              	HAL_PCD_Start:
 228              	.LFB129:
 265:Drivers/STM32F4xx_HAL_Driver/Src/stm32f4xx_hal_pcd.c ****   /* Prevent unused argument(s) compilation warning */
 266:Drivers/STM32F4xx_HAL_Driver/Src/stm32f4xx_hal_pcd.c ****   UNUSED(hpcd);
 267:Drivers/STM32F4xx_HAL_Driver/Src/stm32f4xx_hal_pcd.c ****   /* NOTE : This function Should not be modified, when the callback is needed,
 268:Drivers/STM32F4xx_HAL_Driver/Src/stm32f4xx_hal_pcd.c ****             the HAL_PCD_MspDeInit could be implemented in the user file
 269:Drivers/STM32F4xx_HAL_Driver/Src/stm32f4xx_hal_pcd.c ****    */
 270:Drivers/STM32F4xx_HAL_Driver/Src/stm32f4xx_hal_pcd.c **** }
 271:Drivers/STM32F4xx_HAL_Driver/Src/stm32f4xx_hal_pcd.c **** 
 272:Drivers/STM32F4xx_HAL_Driver/Src/stm32f4xx_hal_pcd.c **** /**
 273:Drivers/STM32F4xx_HAL_Driver/Src/stm32f4xx_hal_pcd.c ****   * @}
 274:Drivers/STM32F4xx_HAL_Driver/Src/stm32f4xx_hal_pcd.c ****   */
 275:Drivers/STM32F4xx_HAL_Driver/Src/stm32f4xx_hal_pcd.c **** 
 276:Drivers/STM32F4xx_HAL_Driver/Src/stm32f4xx_hal_pcd.c **** /** @defgroup PCD_Exported_Functions_Group2 Input and Output operation functions 
 277:Drivers/STM32F4xx_HAL_Driver/Src/stm32f4xx_hal_pcd.c ****  *  @brief   Data transfers functions 
 278:Drivers/STM32F4xx_HAL_Driver/Src/stm32f4xx_hal_pcd.c ****  *
 279:Drivers/STM32F4xx_HAL_Driver/Src/stm32f4xx_hal_pcd.c **** @verbatim 
 280:Drivers/STM32F4xx_HAL_Driver/Src/stm32f4xx_hal_pcd.c ****  ===============================================================================
 281:Drivers/STM32F4xx_HAL_Driver/Src/stm32f4xx_hal_pcd.c ****                       ##### IO operation functions #####
 282:Drivers/STM32F4xx_HAL_Driver/Src/stm32f4xx_hal_pcd.c ****  ===============================================================================  
 283:Drivers/STM32F4xx_HAL_Driver/Src/stm32f4xx_hal_pcd.c ****     [..]
 284:Drivers/STM32F4xx_HAL_Driver/Src/stm32f4xx_hal_pcd.c ****     This subsection provides a set of functions allowing to manage the PCD data 
 285:Drivers/STM32F4xx_HAL_Driver/Src/stm32f4xx_hal_pcd.c ****     transfers.
 286:Drivers/STM32F4xx_HAL_Driver/Src/stm32f4xx_hal_pcd.c **** 
 287:Drivers/STM32F4xx_HAL_Driver/Src/stm32f4xx_hal_pcd.c **** @endverbatim
 288:Drivers/STM32F4xx_HAL_Driver/Src/stm32f4xx_hal_pcd.c ****   * @{
 289:Drivers/STM32F4xx_HAL_Driver/Src/stm32f4xx_hal_pcd.c ****   */
 290:Drivers/STM32F4xx_HAL_Driver/Src/stm32f4xx_hal_pcd.c ****   
 291:Drivers/STM32F4xx_HAL_Driver/Src/stm32f4xx_hal_pcd.c **** /**
 292:Drivers/STM32F4xx_HAL_Driver/Src/stm32f4xx_hal_pcd.c ****   * @brief  Start The USB OTG Device.
 293:Drivers/STM32F4xx_HAL_Driver/Src/stm32f4xx_hal_pcd.c ****   * @param  hpcd: PCD handle
 294:Drivers/STM32F4xx_HAL_Driver/Src/stm32f4xx_hal_pcd.c ****   * @retval HAL status
 295:Drivers/STM32F4xx_HAL_Driver/Src/stm32f4xx_hal_pcd.c ****   */
 296:Drivers/STM32F4xx_HAL_Driver/Src/stm32f4xx_hal_pcd.c **** HAL_StatusTypeDef HAL_PCD_Start(PCD_HandleTypeDef *hpcd)
 297:Drivers/STM32F4xx_HAL_Driver/Src/stm32f4xx_hal_pcd.c **** { 
 229              		.loc 1 297 0
 230              		.cfi_startproc
 231              		@ args = 0, pretend = 0, frame = 0
 232              		@ frame_needed = 0, uses_anonymous_args = 0
 233              	.LVL17:
 298:Drivers/STM32F4xx_HAL_Driver/Src/stm32f4xx_hal_pcd.c ****   __HAL_LOCK(hpcd); 
 234              		.loc 1 298 0
ARM GAS  /var/folders/19/rz7506jh8xn7x1006s6s574h0000gn/T//cceW6kab.s 			page 11


 235 0000 90F88033 		ldrb	r3, [r0, #896]	@ zero_extendqisi2
 236 0004 012B     		cmp	r3, #1
 297:Drivers/STM32F4xx_HAL_Driver/Src/stm32f4xx_hal_pcd.c **** { 
 237              		.loc 1 297 0
 238 0006 10B5     		push	{r4, lr}
 239              	.LCFI2:
 240              		.cfi_def_cfa_offset 8
 241              		.cfi_offset 4, -8
 242              		.cfi_offset 14, -4
 297:Drivers/STM32F4xx_HAL_Driver/Src/stm32f4xx_hal_pcd.c **** { 
 243              		.loc 1 297 0
 244 0008 0446     		mov	r4, r0
 245              		.loc 1 298 0
 246 000a 0CD0     		beq	.L15
 247              		.loc 1 298 0 is_stmt 0 discriminator 2
 248 000c 0123     		movs	r3, #1
 249 000e 80F88033 		strb	r3, [r0, #896]
 299:Drivers/STM32F4xx_HAL_Driver/Src/stm32f4xx_hal_pcd.c ****   USB_DevConnect (hpcd->Instance);  
 250              		.loc 1 299 0 is_stmt 1 discriminator 2
 251 0012 0068     		ldr	r0, [r0]
 252              	.LVL18:
 253 0014 FFF7FEFF 		bl	USB_DevConnect
 254              	.LVL19:
 300:Drivers/STM32F4xx_HAL_Driver/Src/stm32f4xx_hal_pcd.c ****   __HAL_PCD_ENABLE(hpcd);
 255              		.loc 1 300 0 discriminator 2
 256 0018 2068     		ldr	r0, [r4]
 257 001a FFF7FEFF 		bl	USB_EnableGlobalInt
 258              	.LVL20:
 301:Drivers/STM32F4xx_HAL_Driver/Src/stm32f4xx_hal_pcd.c ****   __HAL_UNLOCK(hpcd); 
 259              		.loc 1 301 0 discriminator 2
 260 001e 0020     		movs	r0, #0
 261 0020 84F88003 		strb	r0, [r4, #896]
 302:Drivers/STM32F4xx_HAL_Driver/Src/stm32f4xx_hal_pcd.c ****   return HAL_OK;
 262              		.loc 1 302 0 discriminator 2
 263 0024 10BD     		pop	{r4, pc}
 264              	.LVL21:
 265              	.L15:
 298:Drivers/STM32F4xx_HAL_Driver/Src/stm32f4xx_hal_pcd.c ****   __HAL_LOCK(hpcd); 
 266              		.loc 1 298 0
 267 0026 0220     		movs	r0, #2
 268              	.LVL22:
 303:Drivers/STM32F4xx_HAL_Driver/Src/stm32f4xx_hal_pcd.c **** }
 269              		.loc 1 303 0
 270 0028 10BD     		pop	{r4, pc}
 271              		.cfi_endproc
 272              	.LFE129:
 274              		.section	.text.HAL_PCD_Stop,"ax",%progbits
 275              		.align	1
 276              		.global	HAL_PCD_Stop
 277              		.thumb
 278              		.thumb_func
 280              	HAL_PCD_Stop:
 281              	.LFB130:
 304:Drivers/STM32F4xx_HAL_Driver/Src/stm32f4xx_hal_pcd.c **** 
 305:Drivers/STM32F4xx_HAL_Driver/Src/stm32f4xx_hal_pcd.c **** /**
 306:Drivers/STM32F4xx_HAL_Driver/Src/stm32f4xx_hal_pcd.c ****   * @brief  Stop The USB OTG Device.
 307:Drivers/STM32F4xx_HAL_Driver/Src/stm32f4xx_hal_pcd.c ****   * @param  hpcd: PCD handle
ARM GAS  /var/folders/19/rz7506jh8xn7x1006s6s574h0000gn/T//cceW6kab.s 			page 12


 308:Drivers/STM32F4xx_HAL_Driver/Src/stm32f4xx_hal_pcd.c ****   * @retval HAL status
 309:Drivers/STM32F4xx_HAL_Driver/Src/stm32f4xx_hal_pcd.c ****   */
 310:Drivers/STM32F4xx_HAL_Driver/Src/stm32f4xx_hal_pcd.c **** HAL_StatusTypeDef HAL_PCD_Stop(PCD_HandleTypeDef *hpcd)
 311:Drivers/STM32F4xx_HAL_Driver/Src/stm32f4xx_hal_pcd.c **** { 
 282              		.loc 1 311 0
 283              		.cfi_startproc
 284              		@ args = 0, pretend = 0, frame = 0
 285              		@ frame_needed = 0, uses_anonymous_args = 0
 286              	.LVL23:
 312:Drivers/STM32F4xx_HAL_Driver/Src/stm32f4xx_hal_pcd.c ****   __HAL_LOCK(hpcd); 
 287              		.loc 1 312 0
 288 0000 90F88033 		ldrb	r3, [r0, #896]	@ zero_extendqisi2
 289 0004 012B     		cmp	r3, #1
 311:Drivers/STM32F4xx_HAL_Driver/Src/stm32f4xx_hal_pcd.c **** { 
 290              		.loc 1 311 0
 291 0006 10B5     		push	{r4, lr}
 292              	.LCFI3:
 293              		.cfi_def_cfa_offset 8
 294              		.cfi_offset 4, -8
 295              		.cfi_offset 14, -4
 311:Drivers/STM32F4xx_HAL_Driver/Src/stm32f4xx_hal_pcd.c **** { 
 296              		.loc 1 311 0
 297 0008 0446     		mov	r4, r0
 298              		.loc 1 312 0
 299 000a 0FD0     		beq	.L18
 300              		.loc 1 312 0 is_stmt 0 discriminator 2
 301 000c 0123     		movs	r3, #1
 302 000e 80F88033 		strb	r3, [r0, #896]
 313:Drivers/STM32F4xx_HAL_Driver/Src/stm32f4xx_hal_pcd.c ****   __HAL_PCD_DISABLE(hpcd);
 303              		.loc 1 313 0 is_stmt 1 discriminator 2
 304 0012 0068     		ldr	r0, [r0]
 305              	.LVL24:
 306 0014 FFF7FEFF 		bl	USB_DisableGlobalInt
 307              	.LVL25:
 314:Drivers/STM32F4xx_HAL_Driver/Src/stm32f4xx_hal_pcd.c ****   USB_StopDevice(hpcd->Instance);
 308              		.loc 1 314 0 discriminator 2
 309 0018 2068     		ldr	r0, [r4]
 310 001a FFF7FEFF 		bl	USB_StopDevice
 311              	.LVL26:
 315:Drivers/STM32F4xx_HAL_Driver/Src/stm32f4xx_hal_pcd.c ****   USB_DevDisconnect(hpcd->Instance);
 312              		.loc 1 315 0 discriminator 2
 313 001e 2068     		ldr	r0, [r4]
 314 0020 FFF7FEFF 		bl	USB_DevDisconnect
 315              	.LVL27:
 316:Drivers/STM32F4xx_HAL_Driver/Src/stm32f4xx_hal_pcd.c ****   __HAL_UNLOCK(hpcd); 
 316              		.loc 1 316 0 discriminator 2
 317 0024 0020     		movs	r0, #0
 318 0026 84F88003 		strb	r0, [r4, #896]
 317:Drivers/STM32F4xx_HAL_Driver/Src/stm32f4xx_hal_pcd.c ****   return HAL_OK;
 319              		.loc 1 317 0 discriminator 2
 320 002a 10BD     		pop	{r4, pc}
 321              	.LVL28:
 322              	.L18:
 312:Drivers/STM32F4xx_HAL_Driver/Src/stm32f4xx_hal_pcd.c ****   __HAL_LOCK(hpcd); 
 323              		.loc 1 312 0
 324 002c 0220     		movs	r0, #2
 325              	.LVL29:
ARM GAS  /var/folders/19/rz7506jh8xn7x1006s6s574h0000gn/T//cceW6kab.s 			page 13


 318:Drivers/STM32F4xx_HAL_Driver/Src/stm32f4xx_hal_pcd.c **** }
 326              		.loc 1 318 0
 327 002e 10BD     		pop	{r4, pc}
 328              		.cfi_endproc
 329              	.LFE130:
 331              		.section	.text.HAL_PCD_DeInit,"ax",%progbits
 332              		.align	1
 333              		.global	HAL_PCD_DeInit
 334              		.thumb
 335              		.thumb_func
 337              	HAL_PCD_DeInit:
 338              	.LFB126:
 224:Drivers/STM32F4xx_HAL_Driver/Src/stm32f4xx_hal_pcd.c **** {
 339              		.loc 1 224 0
 340              		.cfi_startproc
 341              		@ args = 0, pretend = 0, frame = 0
 342              		@ frame_needed = 0, uses_anonymous_args = 0
 343              	.LVL30:
 344 0000 10B5     		push	{r4, lr}
 345              	.LCFI4:
 346              		.cfi_def_cfa_offset 8
 347              		.cfi_offset 4, -8
 348              		.cfi_offset 14, -4
 226:Drivers/STM32F4xx_HAL_Driver/Src/stm32f4xx_hal_pcd.c ****   if(hpcd == NULL)
 349              		.loc 1 226 0
 350 0002 0446     		mov	r4, r0
 351 0004 58B1     		cbz	r0, .L21
 231:Drivers/STM32F4xx_HAL_Driver/Src/stm32f4xx_hal_pcd.c ****   hpcd->State = HAL_PCD_STATE_BUSY;
 352              		.loc 1 231 0
 353 0006 0323     		movs	r3, #3
 354 0008 80F88133 		strb	r3, [r0, #897]
 234:Drivers/STM32F4xx_HAL_Driver/Src/stm32f4xx_hal_pcd.c ****   HAL_PCD_Stop(hpcd);
 355              		.loc 1 234 0
 356 000c FFF7FEFF 		bl	HAL_PCD_Stop
 357              	.LVL31:
 237:Drivers/STM32F4xx_HAL_Driver/Src/stm32f4xx_hal_pcd.c ****   HAL_PCD_MspDeInit(hpcd);
 358              		.loc 1 237 0
 359 0010 2046     		mov	r0, r4
 360 0012 FFF7FEFF 		bl	HAL_PCD_MspDeInit
 361              	.LVL32:
 239:Drivers/STM32F4xx_HAL_Driver/Src/stm32f4xx_hal_pcd.c ****   hpcd->State = HAL_PCD_STATE_RESET; 
 362              		.loc 1 239 0
 363 0016 0020     		movs	r0, #0
 364 0018 84F88103 		strb	r0, [r4, #897]
 241:Drivers/STM32F4xx_HAL_Driver/Src/stm32f4xx_hal_pcd.c ****   return HAL_OK;
 365              		.loc 1 241 0
 366 001c 10BD     		pop	{r4, pc}
 367              	.LVL33:
 368              	.L21:
 228:Drivers/STM32F4xx_HAL_Driver/Src/stm32f4xx_hal_pcd.c ****     return HAL_ERROR;
 369              		.loc 1 228 0
 370 001e 0120     		movs	r0, #1
 371              	.LVL34:
 242:Drivers/STM32F4xx_HAL_Driver/Src/stm32f4xx_hal_pcd.c **** }
 372              		.loc 1 242 0
 373 0020 10BD     		pop	{r4, pc}
 374              		.cfi_endproc
ARM GAS  /var/folders/19/rz7506jh8xn7x1006s6s574h0000gn/T//cceW6kab.s 			page 14


 375              	.LFE126:
 377              		.section	.text.HAL_PCD_DataOutStageCallback,"ax",%progbits
 378              		.align	1
 379              		.weak	HAL_PCD_DataOutStageCallback
 380              		.thumb
 381              		.thumb_func
 383              	HAL_PCD_DataOutStageCallback:
 384              	.LFB132:
 319:Drivers/STM32F4xx_HAL_Driver/Src/stm32f4xx_hal_pcd.c **** 
 320:Drivers/STM32F4xx_HAL_Driver/Src/stm32f4xx_hal_pcd.c **** /**
 321:Drivers/STM32F4xx_HAL_Driver/Src/stm32f4xx_hal_pcd.c ****   * @brief  Handles PCD interrupt request.
 322:Drivers/STM32F4xx_HAL_Driver/Src/stm32f4xx_hal_pcd.c ****   * @param  hpcd: PCD handle
 323:Drivers/STM32F4xx_HAL_Driver/Src/stm32f4xx_hal_pcd.c ****   * @retval HAL status
 324:Drivers/STM32F4xx_HAL_Driver/Src/stm32f4xx_hal_pcd.c ****   */
 325:Drivers/STM32F4xx_HAL_Driver/Src/stm32f4xx_hal_pcd.c **** void HAL_PCD_IRQHandler(PCD_HandleTypeDef *hpcd)
 326:Drivers/STM32F4xx_HAL_Driver/Src/stm32f4xx_hal_pcd.c **** {
 327:Drivers/STM32F4xx_HAL_Driver/Src/stm32f4xx_hal_pcd.c ****   USB_OTG_GlobalTypeDef *USBx = hpcd->Instance;
 328:Drivers/STM32F4xx_HAL_Driver/Src/stm32f4xx_hal_pcd.c ****   uint32_t i = 0, ep_intr = 0, epint = 0, epnum = 0;
 329:Drivers/STM32F4xx_HAL_Driver/Src/stm32f4xx_hal_pcd.c ****   uint32_t fifoemptymsk = 0, temp = 0;
 330:Drivers/STM32F4xx_HAL_Driver/Src/stm32f4xx_hal_pcd.c ****   USB_OTG_EPTypeDef *ep;
 331:Drivers/STM32F4xx_HAL_Driver/Src/stm32f4xx_hal_pcd.c ****   
 332:Drivers/STM32F4xx_HAL_Driver/Src/stm32f4xx_hal_pcd.c ****   /* ensure that we are in device mode */
 333:Drivers/STM32F4xx_HAL_Driver/Src/stm32f4xx_hal_pcd.c ****   if (USB_GetMode(hpcd->Instance) == USB_OTG_MODE_DEVICE)
 334:Drivers/STM32F4xx_HAL_Driver/Src/stm32f4xx_hal_pcd.c ****   {    
 335:Drivers/STM32F4xx_HAL_Driver/Src/stm32f4xx_hal_pcd.c ****     /* avoid spurious interrupt */
 336:Drivers/STM32F4xx_HAL_Driver/Src/stm32f4xx_hal_pcd.c ****     if(__HAL_PCD_IS_INVALID_INTERRUPT(hpcd)) 
 337:Drivers/STM32F4xx_HAL_Driver/Src/stm32f4xx_hal_pcd.c ****     {
 338:Drivers/STM32F4xx_HAL_Driver/Src/stm32f4xx_hal_pcd.c ****       return;
 339:Drivers/STM32F4xx_HAL_Driver/Src/stm32f4xx_hal_pcd.c ****     }
 340:Drivers/STM32F4xx_HAL_Driver/Src/stm32f4xx_hal_pcd.c ****     
 341:Drivers/STM32F4xx_HAL_Driver/Src/stm32f4xx_hal_pcd.c ****     if(__HAL_PCD_GET_FLAG(hpcd, USB_OTG_GINTSTS_MMIS))
 342:Drivers/STM32F4xx_HAL_Driver/Src/stm32f4xx_hal_pcd.c ****     {
 343:Drivers/STM32F4xx_HAL_Driver/Src/stm32f4xx_hal_pcd.c ****      /* incorrect mode, acknowledge the interrupt */
 344:Drivers/STM32F4xx_HAL_Driver/Src/stm32f4xx_hal_pcd.c ****       __HAL_PCD_CLEAR_FLAG(hpcd, USB_OTG_GINTSTS_MMIS);
 345:Drivers/STM32F4xx_HAL_Driver/Src/stm32f4xx_hal_pcd.c ****     }
 346:Drivers/STM32F4xx_HAL_Driver/Src/stm32f4xx_hal_pcd.c ****     
 347:Drivers/STM32F4xx_HAL_Driver/Src/stm32f4xx_hal_pcd.c ****     if(__HAL_PCD_GET_FLAG(hpcd, USB_OTG_GINTSTS_OEPINT))
 348:Drivers/STM32F4xx_HAL_Driver/Src/stm32f4xx_hal_pcd.c ****     {
 349:Drivers/STM32F4xx_HAL_Driver/Src/stm32f4xx_hal_pcd.c ****       epnum = 0;
 350:Drivers/STM32F4xx_HAL_Driver/Src/stm32f4xx_hal_pcd.c ****       
 351:Drivers/STM32F4xx_HAL_Driver/Src/stm32f4xx_hal_pcd.c ****       /* Read in the device interrupt bits */
 352:Drivers/STM32F4xx_HAL_Driver/Src/stm32f4xx_hal_pcd.c ****       ep_intr = USB_ReadDevAllOutEpInterrupt(hpcd->Instance);
 353:Drivers/STM32F4xx_HAL_Driver/Src/stm32f4xx_hal_pcd.c ****       
 354:Drivers/STM32F4xx_HAL_Driver/Src/stm32f4xx_hal_pcd.c ****       while ( ep_intr )
 355:Drivers/STM32F4xx_HAL_Driver/Src/stm32f4xx_hal_pcd.c ****       {
 356:Drivers/STM32F4xx_HAL_Driver/Src/stm32f4xx_hal_pcd.c ****         if (ep_intr & 0x1)
 357:Drivers/STM32F4xx_HAL_Driver/Src/stm32f4xx_hal_pcd.c ****         {
 358:Drivers/STM32F4xx_HAL_Driver/Src/stm32f4xx_hal_pcd.c ****           epint = USB_ReadDevOutEPInterrupt(hpcd->Instance, epnum);
 359:Drivers/STM32F4xx_HAL_Driver/Src/stm32f4xx_hal_pcd.c ****           
 360:Drivers/STM32F4xx_HAL_Driver/Src/stm32f4xx_hal_pcd.c ****           if(( epint & USB_OTG_DOEPINT_XFRC) == USB_OTG_DOEPINT_XFRC)
 361:Drivers/STM32F4xx_HAL_Driver/Src/stm32f4xx_hal_pcd.c ****           {
 362:Drivers/STM32F4xx_HAL_Driver/Src/stm32f4xx_hal_pcd.c ****             CLEAR_OUT_EP_INTR(epnum, USB_OTG_DOEPINT_XFRC);
 363:Drivers/STM32F4xx_HAL_Driver/Src/stm32f4xx_hal_pcd.c ****             
 364:Drivers/STM32F4xx_HAL_Driver/Src/stm32f4xx_hal_pcd.c ****             if(hpcd->Init.dma_enable == 1)
 365:Drivers/STM32F4xx_HAL_Driver/Src/stm32f4xx_hal_pcd.c ****             {
 366:Drivers/STM32F4xx_HAL_Driver/Src/stm32f4xx_hal_pcd.c ****               hpcd->OUT_ep[epnum].xfer_count = hpcd->OUT_ep[epnum].maxpacket- (USBx_OUTEP(epnum)->D
 367:Drivers/STM32F4xx_HAL_Driver/Src/stm32f4xx_hal_pcd.c ****               hpcd->OUT_ep[epnum].xfer_buff += hpcd->OUT_ep[epnum].maxpacket;            
ARM GAS  /var/folders/19/rz7506jh8xn7x1006s6s574h0000gn/T//cceW6kab.s 			page 15


 368:Drivers/STM32F4xx_HAL_Driver/Src/stm32f4xx_hal_pcd.c ****             }
 369:Drivers/STM32F4xx_HAL_Driver/Src/stm32f4xx_hal_pcd.c ****             
 370:Drivers/STM32F4xx_HAL_Driver/Src/stm32f4xx_hal_pcd.c ****             HAL_PCD_DataOutStageCallback(hpcd, epnum);
 371:Drivers/STM32F4xx_HAL_Driver/Src/stm32f4xx_hal_pcd.c ****             if(hpcd->Init.dma_enable == 1)
 372:Drivers/STM32F4xx_HAL_Driver/Src/stm32f4xx_hal_pcd.c ****             {
 373:Drivers/STM32F4xx_HAL_Driver/Src/stm32f4xx_hal_pcd.c ****               if((epnum == 0) && (hpcd->OUT_ep[epnum].xfer_len == 0))
 374:Drivers/STM32F4xx_HAL_Driver/Src/stm32f4xx_hal_pcd.c ****               {
 375:Drivers/STM32F4xx_HAL_Driver/Src/stm32f4xx_hal_pcd.c ****                  /* this is ZLP, so prepare EP0 for next setup */
 376:Drivers/STM32F4xx_HAL_Driver/Src/stm32f4xx_hal_pcd.c ****                 USB_EP0_OutStart(hpcd->Instance, 1, (uint8_t *)hpcd->Setup);
 377:Drivers/STM32F4xx_HAL_Driver/Src/stm32f4xx_hal_pcd.c ****               }              
 378:Drivers/STM32F4xx_HAL_Driver/Src/stm32f4xx_hal_pcd.c ****             }
 379:Drivers/STM32F4xx_HAL_Driver/Src/stm32f4xx_hal_pcd.c ****           }
 380:Drivers/STM32F4xx_HAL_Driver/Src/stm32f4xx_hal_pcd.c ****           
 381:Drivers/STM32F4xx_HAL_Driver/Src/stm32f4xx_hal_pcd.c ****           if(( epint & USB_OTG_DOEPINT_STUP) == USB_OTG_DOEPINT_STUP)
 382:Drivers/STM32F4xx_HAL_Driver/Src/stm32f4xx_hal_pcd.c ****           {
 383:Drivers/STM32F4xx_HAL_Driver/Src/stm32f4xx_hal_pcd.c ****             /* Inform the upper layer that a setup packet is available */
 384:Drivers/STM32F4xx_HAL_Driver/Src/stm32f4xx_hal_pcd.c ****             HAL_PCD_SetupStageCallback(hpcd);
 385:Drivers/STM32F4xx_HAL_Driver/Src/stm32f4xx_hal_pcd.c ****             CLEAR_OUT_EP_INTR(epnum, USB_OTG_DOEPINT_STUP);
 386:Drivers/STM32F4xx_HAL_Driver/Src/stm32f4xx_hal_pcd.c ****           }
 387:Drivers/STM32F4xx_HAL_Driver/Src/stm32f4xx_hal_pcd.c ****           
 388:Drivers/STM32F4xx_HAL_Driver/Src/stm32f4xx_hal_pcd.c ****           if(( epint & USB_OTG_DOEPINT_OTEPDIS) == USB_OTG_DOEPINT_OTEPDIS)
 389:Drivers/STM32F4xx_HAL_Driver/Src/stm32f4xx_hal_pcd.c ****           {
 390:Drivers/STM32F4xx_HAL_Driver/Src/stm32f4xx_hal_pcd.c ****             CLEAR_OUT_EP_INTR(epnum, USB_OTG_DOEPINT_OTEPDIS);
 391:Drivers/STM32F4xx_HAL_Driver/Src/stm32f4xx_hal_pcd.c ****           }
 392:Drivers/STM32F4xx_HAL_Driver/Src/stm32f4xx_hal_pcd.c **** 
 393:Drivers/STM32F4xx_HAL_Driver/Src/stm32f4xx_hal_pcd.c **** #ifdef USB_OTG_DOEPINT_OTEPSPR 
 394:Drivers/STM32F4xx_HAL_Driver/Src/stm32f4xx_hal_pcd.c ****           /* Clear Status Phase Received interrupt */
 395:Drivers/STM32F4xx_HAL_Driver/Src/stm32f4xx_hal_pcd.c ****           if(( epint & USB_OTG_DOEPINT_OTEPSPR) == USB_OTG_DOEPINT_OTEPSPR)
 396:Drivers/STM32F4xx_HAL_Driver/Src/stm32f4xx_hal_pcd.c ****           {
 397:Drivers/STM32F4xx_HAL_Driver/Src/stm32f4xx_hal_pcd.c ****             CLEAR_OUT_EP_INTR(epnum, USB_OTG_DOEPINT_OTEPSPR);
 398:Drivers/STM32F4xx_HAL_Driver/Src/stm32f4xx_hal_pcd.c ****           }
 399:Drivers/STM32F4xx_HAL_Driver/Src/stm32f4xx_hal_pcd.c **** #endif /* USB_OTG_DOEPINT_OTEPSPR */
 400:Drivers/STM32F4xx_HAL_Driver/Src/stm32f4xx_hal_pcd.c ****         }
 401:Drivers/STM32F4xx_HAL_Driver/Src/stm32f4xx_hal_pcd.c ****         epnum++;
 402:Drivers/STM32F4xx_HAL_Driver/Src/stm32f4xx_hal_pcd.c ****         ep_intr >>= 1;
 403:Drivers/STM32F4xx_HAL_Driver/Src/stm32f4xx_hal_pcd.c ****       }
 404:Drivers/STM32F4xx_HAL_Driver/Src/stm32f4xx_hal_pcd.c ****     }
 405:Drivers/STM32F4xx_HAL_Driver/Src/stm32f4xx_hal_pcd.c ****     
 406:Drivers/STM32F4xx_HAL_Driver/Src/stm32f4xx_hal_pcd.c ****     if(__HAL_PCD_GET_FLAG(hpcd, USB_OTG_GINTSTS_IEPINT))
 407:Drivers/STM32F4xx_HAL_Driver/Src/stm32f4xx_hal_pcd.c ****     {
 408:Drivers/STM32F4xx_HAL_Driver/Src/stm32f4xx_hal_pcd.c ****       /* Read in the device interrupt bits */
 409:Drivers/STM32F4xx_HAL_Driver/Src/stm32f4xx_hal_pcd.c ****       ep_intr = USB_ReadDevAllInEpInterrupt(hpcd->Instance);
 410:Drivers/STM32F4xx_HAL_Driver/Src/stm32f4xx_hal_pcd.c ****       
 411:Drivers/STM32F4xx_HAL_Driver/Src/stm32f4xx_hal_pcd.c ****       epnum = 0;
 412:Drivers/STM32F4xx_HAL_Driver/Src/stm32f4xx_hal_pcd.c ****       
 413:Drivers/STM32F4xx_HAL_Driver/Src/stm32f4xx_hal_pcd.c ****       while ( ep_intr )
 414:Drivers/STM32F4xx_HAL_Driver/Src/stm32f4xx_hal_pcd.c ****       {
 415:Drivers/STM32F4xx_HAL_Driver/Src/stm32f4xx_hal_pcd.c ****         if (ep_intr & 0x1) /* In ITR */
 416:Drivers/STM32F4xx_HAL_Driver/Src/stm32f4xx_hal_pcd.c ****         {
 417:Drivers/STM32F4xx_HAL_Driver/Src/stm32f4xx_hal_pcd.c ****           epint = USB_ReadDevInEPInterrupt(hpcd->Instance, epnum);
 418:Drivers/STM32F4xx_HAL_Driver/Src/stm32f4xx_hal_pcd.c **** 
 419:Drivers/STM32F4xx_HAL_Driver/Src/stm32f4xx_hal_pcd.c ****            if(( epint & USB_OTG_DIEPINT_XFRC) == USB_OTG_DIEPINT_XFRC)
 420:Drivers/STM32F4xx_HAL_Driver/Src/stm32f4xx_hal_pcd.c ****           {
 421:Drivers/STM32F4xx_HAL_Driver/Src/stm32f4xx_hal_pcd.c ****             fifoemptymsk = 0x1 << epnum;
 422:Drivers/STM32F4xx_HAL_Driver/Src/stm32f4xx_hal_pcd.c ****             USBx_DEVICE->DIEPEMPMSK &= ~fifoemptymsk;
 423:Drivers/STM32F4xx_HAL_Driver/Src/stm32f4xx_hal_pcd.c ****             
 424:Drivers/STM32F4xx_HAL_Driver/Src/stm32f4xx_hal_pcd.c ****             CLEAR_IN_EP_INTR(epnum, USB_OTG_DIEPINT_XFRC);
ARM GAS  /var/folders/19/rz7506jh8xn7x1006s6s574h0000gn/T//cceW6kab.s 			page 16


 425:Drivers/STM32F4xx_HAL_Driver/Src/stm32f4xx_hal_pcd.c ****             
 426:Drivers/STM32F4xx_HAL_Driver/Src/stm32f4xx_hal_pcd.c ****             if (hpcd->Init.dma_enable == 1)
 427:Drivers/STM32F4xx_HAL_Driver/Src/stm32f4xx_hal_pcd.c ****             {
 428:Drivers/STM32F4xx_HAL_Driver/Src/stm32f4xx_hal_pcd.c ****               hpcd->IN_ep[epnum].xfer_buff += hpcd->IN_ep[epnum].maxpacket; 
 429:Drivers/STM32F4xx_HAL_Driver/Src/stm32f4xx_hal_pcd.c ****             }
 430:Drivers/STM32F4xx_HAL_Driver/Src/stm32f4xx_hal_pcd.c ****                                       
 431:Drivers/STM32F4xx_HAL_Driver/Src/stm32f4xx_hal_pcd.c ****             HAL_PCD_DataInStageCallback(hpcd, epnum);
 432:Drivers/STM32F4xx_HAL_Driver/Src/stm32f4xx_hal_pcd.c **** 
 433:Drivers/STM32F4xx_HAL_Driver/Src/stm32f4xx_hal_pcd.c ****             if (hpcd->Init.dma_enable == 1)
 434:Drivers/STM32F4xx_HAL_Driver/Src/stm32f4xx_hal_pcd.c ****             {
 435:Drivers/STM32F4xx_HAL_Driver/Src/stm32f4xx_hal_pcd.c ****               /* this is ZLP, so prepare EP0 for next setup */
 436:Drivers/STM32F4xx_HAL_Driver/Src/stm32f4xx_hal_pcd.c ****               if((epnum == 0) && (hpcd->IN_ep[epnum].xfer_len == 0))
 437:Drivers/STM32F4xx_HAL_Driver/Src/stm32f4xx_hal_pcd.c ****               {
 438:Drivers/STM32F4xx_HAL_Driver/Src/stm32f4xx_hal_pcd.c ****                 /* prepare to rx more setup packets */
 439:Drivers/STM32F4xx_HAL_Driver/Src/stm32f4xx_hal_pcd.c ****                 USB_EP0_OutStart(hpcd->Instance, 1, (uint8_t *)hpcd->Setup);
 440:Drivers/STM32F4xx_HAL_Driver/Src/stm32f4xx_hal_pcd.c ****               }
 441:Drivers/STM32F4xx_HAL_Driver/Src/stm32f4xx_hal_pcd.c ****             }           
 442:Drivers/STM32F4xx_HAL_Driver/Src/stm32f4xx_hal_pcd.c ****           }
 443:Drivers/STM32F4xx_HAL_Driver/Src/stm32f4xx_hal_pcd.c ****            if(( epint & USB_OTG_DIEPINT_TOC) == USB_OTG_DIEPINT_TOC)
 444:Drivers/STM32F4xx_HAL_Driver/Src/stm32f4xx_hal_pcd.c ****           {
 445:Drivers/STM32F4xx_HAL_Driver/Src/stm32f4xx_hal_pcd.c ****             CLEAR_IN_EP_INTR(epnum, USB_OTG_DIEPINT_TOC);
 446:Drivers/STM32F4xx_HAL_Driver/Src/stm32f4xx_hal_pcd.c ****           }
 447:Drivers/STM32F4xx_HAL_Driver/Src/stm32f4xx_hal_pcd.c ****           if(( epint & USB_OTG_DIEPINT_ITTXFE) == USB_OTG_DIEPINT_ITTXFE)
 448:Drivers/STM32F4xx_HAL_Driver/Src/stm32f4xx_hal_pcd.c ****           {
 449:Drivers/STM32F4xx_HAL_Driver/Src/stm32f4xx_hal_pcd.c ****             CLEAR_IN_EP_INTR(epnum, USB_OTG_DIEPINT_ITTXFE);
 450:Drivers/STM32F4xx_HAL_Driver/Src/stm32f4xx_hal_pcd.c ****           }
 451:Drivers/STM32F4xx_HAL_Driver/Src/stm32f4xx_hal_pcd.c ****           if(( epint & USB_OTG_DIEPINT_INEPNE) == USB_OTG_DIEPINT_INEPNE)
 452:Drivers/STM32F4xx_HAL_Driver/Src/stm32f4xx_hal_pcd.c ****           {
 453:Drivers/STM32F4xx_HAL_Driver/Src/stm32f4xx_hal_pcd.c ****             CLEAR_IN_EP_INTR(epnum, USB_OTG_DIEPINT_INEPNE);
 454:Drivers/STM32F4xx_HAL_Driver/Src/stm32f4xx_hal_pcd.c ****           }
 455:Drivers/STM32F4xx_HAL_Driver/Src/stm32f4xx_hal_pcd.c ****           if(( epint & USB_OTG_DIEPINT_EPDISD) == USB_OTG_DIEPINT_EPDISD)
 456:Drivers/STM32F4xx_HAL_Driver/Src/stm32f4xx_hal_pcd.c ****           {
 457:Drivers/STM32F4xx_HAL_Driver/Src/stm32f4xx_hal_pcd.c ****             CLEAR_IN_EP_INTR(epnum, USB_OTG_DIEPINT_EPDISD);
 458:Drivers/STM32F4xx_HAL_Driver/Src/stm32f4xx_hal_pcd.c ****           }       
 459:Drivers/STM32F4xx_HAL_Driver/Src/stm32f4xx_hal_pcd.c ****           if(( epint & USB_OTG_DIEPINT_TXFE) == USB_OTG_DIEPINT_TXFE)
 460:Drivers/STM32F4xx_HAL_Driver/Src/stm32f4xx_hal_pcd.c ****           {
 461:Drivers/STM32F4xx_HAL_Driver/Src/stm32f4xx_hal_pcd.c ****             PCD_WriteEmptyTxFifo(hpcd , epnum);
 462:Drivers/STM32F4xx_HAL_Driver/Src/stm32f4xx_hal_pcd.c ****           }
 463:Drivers/STM32F4xx_HAL_Driver/Src/stm32f4xx_hal_pcd.c ****         }
 464:Drivers/STM32F4xx_HAL_Driver/Src/stm32f4xx_hal_pcd.c ****         epnum++;
 465:Drivers/STM32F4xx_HAL_Driver/Src/stm32f4xx_hal_pcd.c ****         ep_intr >>= 1;
 466:Drivers/STM32F4xx_HAL_Driver/Src/stm32f4xx_hal_pcd.c ****       }
 467:Drivers/STM32F4xx_HAL_Driver/Src/stm32f4xx_hal_pcd.c ****     }
 468:Drivers/STM32F4xx_HAL_Driver/Src/stm32f4xx_hal_pcd.c ****     
 469:Drivers/STM32F4xx_HAL_Driver/Src/stm32f4xx_hal_pcd.c ****     /* Handle Resume Interrupt */
 470:Drivers/STM32F4xx_HAL_Driver/Src/stm32f4xx_hal_pcd.c ****     if(__HAL_PCD_GET_FLAG(hpcd, USB_OTG_GINTSTS_WKUINT))
 471:Drivers/STM32F4xx_HAL_Driver/Src/stm32f4xx_hal_pcd.c ****     {    
 472:Drivers/STM32F4xx_HAL_Driver/Src/stm32f4xx_hal_pcd.c ****       /* Clear the Remote Wake-up Signaling */
 473:Drivers/STM32F4xx_HAL_Driver/Src/stm32f4xx_hal_pcd.c ****       USBx_DEVICE->DCTL &= ~USB_OTG_DCTL_RWUSIG;
 474:Drivers/STM32F4xx_HAL_Driver/Src/stm32f4xx_hal_pcd.c **** 
 475:Drivers/STM32F4xx_HAL_Driver/Src/stm32f4xx_hal_pcd.c **** #ifdef USB_OTG_GLPMCFG_LPMEN
 476:Drivers/STM32F4xx_HAL_Driver/Src/stm32f4xx_hal_pcd.c ****       if(hpcd->LPM_State == LPM_L1)
 477:Drivers/STM32F4xx_HAL_Driver/Src/stm32f4xx_hal_pcd.c ****       {
 478:Drivers/STM32F4xx_HAL_Driver/Src/stm32f4xx_hal_pcd.c ****         hpcd->LPM_State = LPM_L0;
 479:Drivers/STM32F4xx_HAL_Driver/Src/stm32f4xx_hal_pcd.c ****         HAL_PCDEx_LPM_Callback(hpcd, PCD_LPM_L0_ACTIVE);
 480:Drivers/STM32F4xx_HAL_Driver/Src/stm32f4xx_hal_pcd.c ****       }
 481:Drivers/STM32F4xx_HAL_Driver/Src/stm32f4xx_hal_pcd.c ****       else
ARM GAS  /var/folders/19/rz7506jh8xn7x1006s6s574h0000gn/T//cceW6kab.s 			page 17


 482:Drivers/STM32F4xx_HAL_Driver/Src/stm32f4xx_hal_pcd.c **** #endif /* USB_OTG_GLPMCFG_LPMEN */
 483:Drivers/STM32F4xx_HAL_Driver/Src/stm32f4xx_hal_pcd.c ****       {
 484:Drivers/STM32F4xx_HAL_Driver/Src/stm32f4xx_hal_pcd.c ****         HAL_PCD_ResumeCallback(hpcd);
 485:Drivers/STM32F4xx_HAL_Driver/Src/stm32f4xx_hal_pcd.c ****       }
 486:Drivers/STM32F4xx_HAL_Driver/Src/stm32f4xx_hal_pcd.c ****       
 487:Drivers/STM32F4xx_HAL_Driver/Src/stm32f4xx_hal_pcd.c ****       __HAL_PCD_CLEAR_FLAG(hpcd, USB_OTG_GINTSTS_WKUINT);
 488:Drivers/STM32F4xx_HAL_Driver/Src/stm32f4xx_hal_pcd.c ****     }
 489:Drivers/STM32F4xx_HAL_Driver/Src/stm32f4xx_hal_pcd.c ****     
 490:Drivers/STM32F4xx_HAL_Driver/Src/stm32f4xx_hal_pcd.c ****     /* Handle Suspend Interrupt */
 491:Drivers/STM32F4xx_HAL_Driver/Src/stm32f4xx_hal_pcd.c ****     if(__HAL_PCD_GET_FLAG(hpcd, USB_OTG_GINTSTS_USBSUSP))
 492:Drivers/STM32F4xx_HAL_Driver/Src/stm32f4xx_hal_pcd.c ****     {
 493:Drivers/STM32F4xx_HAL_Driver/Src/stm32f4xx_hal_pcd.c ****       if((USBx_DEVICE->DSTS & USB_OTG_DSTS_SUSPSTS) == USB_OTG_DSTS_SUSPSTS)
 494:Drivers/STM32F4xx_HAL_Driver/Src/stm32f4xx_hal_pcd.c ****       {
 495:Drivers/STM32F4xx_HAL_Driver/Src/stm32f4xx_hal_pcd.c ****         
 496:Drivers/STM32F4xx_HAL_Driver/Src/stm32f4xx_hal_pcd.c ****         HAL_PCD_SuspendCallback(hpcd);
 497:Drivers/STM32F4xx_HAL_Driver/Src/stm32f4xx_hal_pcd.c ****       }
 498:Drivers/STM32F4xx_HAL_Driver/Src/stm32f4xx_hal_pcd.c ****       __HAL_PCD_CLEAR_FLAG(hpcd, USB_OTG_GINTSTS_USBSUSP);
 499:Drivers/STM32F4xx_HAL_Driver/Src/stm32f4xx_hal_pcd.c ****     }
 500:Drivers/STM32F4xx_HAL_Driver/Src/stm32f4xx_hal_pcd.c **** 
 501:Drivers/STM32F4xx_HAL_Driver/Src/stm32f4xx_hal_pcd.c **** #ifdef USB_OTG_GLPMCFG_LPMEN
 502:Drivers/STM32F4xx_HAL_Driver/Src/stm32f4xx_hal_pcd.c ****     /* Handle LPM Interrupt */ 
 503:Drivers/STM32F4xx_HAL_Driver/Src/stm32f4xx_hal_pcd.c ****     if(__HAL_PCD_GET_FLAG(hpcd, USB_OTG_GINTSTS_LPMINT))
 504:Drivers/STM32F4xx_HAL_Driver/Src/stm32f4xx_hal_pcd.c ****     {
 505:Drivers/STM32F4xx_HAL_Driver/Src/stm32f4xx_hal_pcd.c ****       __HAL_PCD_CLEAR_FLAG(hpcd, USB_OTG_GINTSTS_LPMINT);      
 506:Drivers/STM32F4xx_HAL_Driver/Src/stm32f4xx_hal_pcd.c ****       if( hpcd->LPM_State == LPM_L0)
 507:Drivers/STM32F4xx_HAL_Driver/Src/stm32f4xx_hal_pcd.c ****       {
 508:Drivers/STM32F4xx_HAL_Driver/Src/stm32f4xx_hal_pcd.c ****         hpcd->LPM_State = LPM_L1;
 509:Drivers/STM32F4xx_HAL_Driver/Src/stm32f4xx_hal_pcd.c ****         hpcd->BESL = (hpcd->Instance->GLPMCFG & USB_OTG_GLPMCFG_BESL) >>2 ;
 510:Drivers/STM32F4xx_HAL_Driver/Src/stm32f4xx_hal_pcd.c ****         HAL_PCDEx_LPM_Callback(hpcd, PCD_LPM_L1_ACTIVE);
 511:Drivers/STM32F4xx_HAL_Driver/Src/stm32f4xx_hal_pcd.c ****       }
 512:Drivers/STM32F4xx_HAL_Driver/Src/stm32f4xx_hal_pcd.c ****       else
 513:Drivers/STM32F4xx_HAL_Driver/Src/stm32f4xx_hal_pcd.c ****       {
 514:Drivers/STM32F4xx_HAL_Driver/Src/stm32f4xx_hal_pcd.c ****         HAL_PCD_SuspendCallback(hpcd);
 515:Drivers/STM32F4xx_HAL_Driver/Src/stm32f4xx_hal_pcd.c ****       }
 516:Drivers/STM32F4xx_HAL_Driver/Src/stm32f4xx_hal_pcd.c ****     }
 517:Drivers/STM32F4xx_HAL_Driver/Src/stm32f4xx_hal_pcd.c **** #endif /* USB_OTG_GLPMCFG_LPMEN */
 518:Drivers/STM32F4xx_HAL_Driver/Src/stm32f4xx_hal_pcd.c **** 
 519:Drivers/STM32F4xx_HAL_Driver/Src/stm32f4xx_hal_pcd.c ****     /* Handle Reset Interrupt */
 520:Drivers/STM32F4xx_HAL_Driver/Src/stm32f4xx_hal_pcd.c ****     if(__HAL_PCD_GET_FLAG(hpcd, USB_OTG_GINTSTS_USBRST))
 521:Drivers/STM32F4xx_HAL_Driver/Src/stm32f4xx_hal_pcd.c ****     {
 522:Drivers/STM32F4xx_HAL_Driver/Src/stm32f4xx_hal_pcd.c ****       USBx_DEVICE->DCTL &= ~USB_OTG_DCTL_RWUSIG; 
 523:Drivers/STM32F4xx_HAL_Driver/Src/stm32f4xx_hal_pcd.c ****       USB_FlushTxFifo(hpcd->Instance ,  0 );
 524:Drivers/STM32F4xx_HAL_Driver/Src/stm32f4xx_hal_pcd.c ****       
 525:Drivers/STM32F4xx_HAL_Driver/Src/stm32f4xx_hal_pcd.c ****       for (i = 0; i < hpcd->Init.dev_endpoints ; i++)
 526:Drivers/STM32F4xx_HAL_Driver/Src/stm32f4xx_hal_pcd.c ****       {
 527:Drivers/STM32F4xx_HAL_Driver/Src/stm32f4xx_hal_pcd.c ****         USBx_INEP(i)->DIEPINT = 0xFF;
 528:Drivers/STM32F4xx_HAL_Driver/Src/stm32f4xx_hal_pcd.c ****         USBx_OUTEP(i)->DOEPINT = 0xFF;
 529:Drivers/STM32F4xx_HAL_Driver/Src/stm32f4xx_hal_pcd.c ****       }
 530:Drivers/STM32F4xx_HAL_Driver/Src/stm32f4xx_hal_pcd.c ****       USBx_DEVICE->DAINT = 0xFFFFFFFF;
 531:Drivers/STM32F4xx_HAL_Driver/Src/stm32f4xx_hal_pcd.c ****       USBx_DEVICE->DAINTMSK |= 0x10001;
 532:Drivers/STM32F4xx_HAL_Driver/Src/stm32f4xx_hal_pcd.c ****       
 533:Drivers/STM32F4xx_HAL_Driver/Src/stm32f4xx_hal_pcd.c ****       if(hpcd->Init.use_dedicated_ep1)
 534:Drivers/STM32F4xx_HAL_Driver/Src/stm32f4xx_hal_pcd.c ****       {
 535:Drivers/STM32F4xx_HAL_Driver/Src/stm32f4xx_hal_pcd.c ****         USBx_DEVICE->DOUTEP1MSK |= (USB_OTG_DOEPMSK_STUPM | USB_OTG_DOEPMSK_XFRCM | USB_OTG_DOEPMSK
 536:Drivers/STM32F4xx_HAL_Driver/Src/stm32f4xx_hal_pcd.c ****         USBx_DEVICE->DINEP1MSK |= (USB_OTG_DIEPMSK_TOM | USB_OTG_DIEPMSK_XFRCM | USB_OTG_DIEPMSK_EP
 537:Drivers/STM32F4xx_HAL_Driver/Src/stm32f4xx_hal_pcd.c ****       }
 538:Drivers/STM32F4xx_HAL_Driver/Src/stm32f4xx_hal_pcd.c ****       else
ARM GAS  /var/folders/19/rz7506jh8xn7x1006s6s574h0000gn/T//cceW6kab.s 			page 18


 539:Drivers/STM32F4xx_HAL_Driver/Src/stm32f4xx_hal_pcd.c ****       {
 540:Drivers/STM32F4xx_HAL_Driver/Src/stm32f4xx_hal_pcd.c **** #ifdef USB_OTG_DOEPINT_OTEPSPR
 541:Drivers/STM32F4xx_HAL_Driver/Src/stm32f4xx_hal_pcd.c ****         USBx_DEVICE->DOEPMSK |= (USB_OTG_DOEPMSK_STUPM | USB_OTG_DOEPMSK_XFRCM | USB_OTG_DOEPMSK_EP
 542:Drivers/STM32F4xx_HAL_Driver/Src/stm32f4xx_hal_pcd.c **** #else
 543:Drivers/STM32F4xx_HAL_Driver/Src/stm32f4xx_hal_pcd.c ****         USBx_DEVICE->DOEPMSK |= (USB_OTG_DOEPMSK_STUPM | USB_OTG_DOEPMSK_XFRCM | USB_OTG_DOEPMSK_EP
 544:Drivers/STM32F4xx_HAL_Driver/Src/stm32f4xx_hal_pcd.c **** #endif /* USB_OTG_DOEPINT_OTEPSPR */
 545:Drivers/STM32F4xx_HAL_Driver/Src/stm32f4xx_hal_pcd.c ****         USBx_DEVICE->DIEPMSK |= (USB_OTG_DIEPMSK_TOM | USB_OTG_DIEPMSK_XFRCM | USB_OTG_DIEPMSK_EPDM
 546:Drivers/STM32F4xx_HAL_Driver/Src/stm32f4xx_hal_pcd.c ****       }
 547:Drivers/STM32F4xx_HAL_Driver/Src/stm32f4xx_hal_pcd.c ****       
 548:Drivers/STM32F4xx_HAL_Driver/Src/stm32f4xx_hal_pcd.c ****       /* Set Default Address to 0 */
 549:Drivers/STM32F4xx_HAL_Driver/Src/stm32f4xx_hal_pcd.c ****       USBx_DEVICE->DCFG &= ~USB_OTG_DCFG_DAD;
 550:Drivers/STM32F4xx_HAL_Driver/Src/stm32f4xx_hal_pcd.c ****       
 551:Drivers/STM32F4xx_HAL_Driver/Src/stm32f4xx_hal_pcd.c ****       /* setup EP0 to receive SETUP packets */
 552:Drivers/STM32F4xx_HAL_Driver/Src/stm32f4xx_hal_pcd.c ****       USB_EP0_OutStart(hpcd->Instance, hpcd->Init.dma_enable, (uint8_t *)hpcd->Setup);
 553:Drivers/STM32F4xx_HAL_Driver/Src/stm32f4xx_hal_pcd.c ****         
 554:Drivers/STM32F4xx_HAL_Driver/Src/stm32f4xx_hal_pcd.c ****       __HAL_PCD_CLEAR_FLAG(hpcd, USB_OTG_GINTSTS_USBRST);
 555:Drivers/STM32F4xx_HAL_Driver/Src/stm32f4xx_hal_pcd.c ****     }
 556:Drivers/STM32F4xx_HAL_Driver/Src/stm32f4xx_hal_pcd.c ****     
 557:Drivers/STM32F4xx_HAL_Driver/Src/stm32f4xx_hal_pcd.c ****     /* Handle Enumeration done Interrupt */
 558:Drivers/STM32F4xx_HAL_Driver/Src/stm32f4xx_hal_pcd.c ****     if(__HAL_PCD_GET_FLAG(hpcd, USB_OTG_GINTSTS_ENUMDNE))
 559:Drivers/STM32F4xx_HAL_Driver/Src/stm32f4xx_hal_pcd.c ****     {
 560:Drivers/STM32F4xx_HAL_Driver/Src/stm32f4xx_hal_pcd.c ****       USB_ActivateSetup(hpcd->Instance);
 561:Drivers/STM32F4xx_HAL_Driver/Src/stm32f4xx_hal_pcd.c ****       hpcd->Instance->GUSBCFG &= ~USB_OTG_GUSBCFG_TRDT;
 562:Drivers/STM32F4xx_HAL_Driver/Src/stm32f4xx_hal_pcd.c ****       
 563:Drivers/STM32F4xx_HAL_Driver/Src/stm32f4xx_hal_pcd.c ****       if ( USB_GetDevSpeed(hpcd->Instance) == USB_OTG_SPEED_HIGH)
 564:Drivers/STM32F4xx_HAL_Driver/Src/stm32f4xx_hal_pcd.c ****       {
 565:Drivers/STM32F4xx_HAL_Driver/Src/stm32f4xx_hal_pcd.c ****         hpcd->Init.speed            = USB_OTG_SPEED_HIGH;
 566:Drivers/STM32F4xx_HAL_Driver/Src/stm32f4xx_hal_pcd.c ****         hpcd->Init.ep0_mps          = USB_OTG_HS_MAX_PACKET_SIZE ;    
 567:Drivers/STM32F4xx_HAL_Driver/Src/stm32f4xx_hal_pcd.c ****         hpcd->Instance->GUSBCFG |= (uint32_t)((USBD_HS_TRDT_VALUE << 10) & USB_OTG_GUSBCFG_TRDT);
 568:Drivers/STM32F4xx_HAL_Driver/Src/stm32f4xx_hal_pcd.c ****       }
 569:Drivers/STM32F4xx_HAL_Driver/Src/stm32f4xx_hal_pcd.c ****       else
 570:Drivers/STM32F4xx_HAL_Driver/Src/stm32f4xx_hal_pcd.c ****       {
 571:Drivers/STM32F4xx_HAL_Driver/Src/stm32f4xx_hal_pcd.c ****         hpcd->Init.speed            = USB_OTG_SPEED_FULL;
 572:Drivers/STM32F4xx_HAL_Driver/Src/stm32f4xx_hal_pcd.c ****         hpcd->Init.ep0_mps          = USB_OTG_FS_MAX_PACKET_SIZE ;  
 573:Drivers/STM32F4xx_HAL_Driver/Src/stm32f4xx_hal_pcd.c ****         hpcd->Instance->GUSBCFG |= (uint32_t)((USBD_FS_TRDT_VALUE << 10) & USB_OTG_GUSBCFG_TRDT);
 574:Drivers/STM32F4xx_HAL_Driver/Src/stm32f4xx_hal_pcd.c ****       }
 575:Drivers/STM32F4xx_HAL_Driver/Src/stm32f4xx_hal_pcd.c ****       
 576:Drivers/STM32F4xx_HAL_Driver/Src/stm32f4xx_hal_pcd.c ****       HAL_PCD_ResetCallback(hpcd);
 577:Drivers/STM32F4xx_HAL_Driver/Src/stm32f4xx_hal_pcd.c ****       
 578:Drivers/STM32F4xx_HAL_Driver/Src/stm32f4xx_hal_pcd.c ****       __HAL_PCD_CLEAR_FLAG(hpcd, USB_OTG_GINTSTS_ENUMDNE);
 579:Drivers/STM32F4xx_HAL_Driver/Src/stm32f4xx_hal_pcd.c ****     }
 580:Drivers/STM32F4xx_HAL_Driver/Src/stm32f4xx_hal_pcd.c **** 
 581:Drivers/STM32F4xx_HAL_Driver/Src/stm32f4xx_hal_pcd.c ****     /* Handle RxQLevel Interrupt */
 582:Drivers/STM32F4xx_HAL_Driver/Src/stm32f4xx_hal_pcd.c ****     if(__HAL_PCD_GET_FLAG(hpcd, USB_OTG_GINTSTS_RXFLVL))
 583:Drivers/STM32F4xx_HAL_Driver/Src/stm32f4xx_hal_pcd.c ****     {
 584:Drivers/STM32F4xx_HAL_Driver/Src/stm32f4xx_hal_pcd.c ****       USB_MASK_INTERRUPT(hpcd->Instance, USB_OTG_GINTSTS_RXFLVL);
 585:Drivers/STM32F4xx_HAL_Driver/Src/stm32f4xx_hal_pcd.c ****       
 586:Drivers/STM32F4xx_HAL_Driver/Src/stm32f4xx_hal_pcd.c ****       temp = USBx->GRXSTSP;
 587:Drivers/STM32F4xx_HAL_Driver/Src/stm32f4xx_hal_pcd.c ****       
 588:Drivers/STM32F4xx_HAL_Driver/Src/stm32f4xx_hal_pcd.c ****       ep = &hpcd->OUT_ep[temp & USB_OTG_GRXSTSP_EPNUM];
 589:Drivers/STM32F4xx_HAL_Driver/Src/stm32f4xx_hal_pcd.c ****       
 590:Drivers/STM32F4xx_HAL_Driver/Src/stm32f4xx_hal_pcd.c ****       if(((temp & USB_OTG_GRXSTSP_PKTSTS) >> 17) ==  STS_DATA_UPDT)
 591:Drivers/STM32F4xx_HAL_Driver/Src/stm32f4xx_hal_pcd.c ****       {
 592:Drivers/STM32F4xx_HAL_Driver/Src/stm32f4xx_hal_pcd.c ****         if((temp & USB_OTG_GRXSTSP_BCNT) != 0)
 593:Drivers/STM32F4xx_HAL_Driver/Src/stm32f4xx_hal_pcd.c ****         {
 594:Drivers/STM32F4xx_HAL_Driver/Src/stm32f4xx_hal_pcd.c ****           USB_ReadPacket(USBx, ep->xfer_buff, (temp & USB_OTG_GRXSTSP_BCNT) >> 4);
 595:Drivers/STM32F4xx_HAL_Driver/Src/stm32f4xx_hal_pcd.c ****           ep->xfer_buff += (temp & USB_OTG_GRXSTSP_BCNT) >> 4;
ARM GAS  /var/folders/19/rz7506jh8xn7x1006s6s574h0000gn/T//cceW6kab.s 			page 19


 596:Drivers/STM32F4xx_HAL_Driver/Src/stm32f4xx_hal_pcd.c ****           ep->xfer_count += (temp & USB_OTG_GRXSTSP_BCNT) >> 4;
 597:Drivers/STM32F4xx_HAL_Driver/Src/stm32f4xx_hal_pcd.c ****         }
 598:Drivers/STM32F4xx_HAL_Driver/Src/stm32f4xx_hal_pcd.c ****       }
 599:Drivers/STM32F4xx_HAL_Driver/Src/stm32f4xx_hal_pcd.c ****       else if (((temp & USB_OTG_GRXSTSP_PKTSTS) >> 17) ==  STS_SETUP_UPDT)
 600:Drivers/STM32F4xx_HAL_Driver/Src/stm32f4xx_hal_pcd.c ****       {
 601:Drivers/STM32F4xx_HAL_Driver/Src/stm32f4xx_hal_pcd.c ****         USB_ReadPacket(USBx, (uint8_t *)hpcd->Setup, 8);
 602:Drivers/STM32F4xx_HAL_Driver/Src/stm32f4xx_hal_pcd.c ****         ep->xfer_count += (temp & USB_OTG_GRXSTSP_BCNT) >> 4;
 603:Drivers/STM32F4xx_HAL_Driver/Src/stm32f4xx_hal_pcd.c ****       }
 604:Drivers/STM32F4xx_HAL_Driver/Src/stm32f4xx_hal_pcd.c ****       USB_UNMASK_INTERRUPT(hpcd->Instance, USB_OTG_GINTSTS_RXFLVL);
 605:Drivers/STM32F4xx_HAL_Driver/Src/stm32f4xx_hal_pcd.c ****     }
 606:Drivers/STM32F4xx_HAL_Driver/Src/stm32f4xx_hal_pcd.c ****     
 607:Drivers/STM32F4xx_HAL_Driver/Src/stm32f4xx_hal_pcd.c ****     /* Handle SOF Interrupt */
 608:Drivers/STM32F4xx_HAL_Driver/Src/stm32f4xx_hal_pcd.c ****     if(__HAL_PCD_GET_FLAG(hpcd, USB_OTG_GINTSTS_SOF))
 609:Drivers/STM32F4xx_HAL_Driver/Src/stm32f4xx_hal_pcd.c ****     {
 610:Drivers/STM32F4xx_HAL_Driver/Src/stm32f4xx_hal_pcd.c ****       HAL_PCD_SOFCallback(hpcd);
 611:Drivers/STM32F4xx_HAL_Driver/Src/stm32f4xx_hal_pcd.c ****       __HAL_PCD_CLEAR_FLAG(hpcd, USB_OTG_GINTSTS_SOF);
 612:Drivers/STM32F4xx_HAL_Driver/Src/stm32f4xx_hal_pcd.c ****     }
 613:Drivers/STM32F4xx_HAL_Driver/Src/stm32f4xx_hal_pcd.c ****     
 614:Drivers/STM32F4xx_HAL_Driver/Src/stm32f4xx_hal_pcd.c ****     /* Handle Incomplete ISO IN Interrupt */
 615:Drivers/STM32F4xx_HAL_Driver/Src/stm32f4xx_hal_pcd.c ****     if(__HAL_PCD_GET_FLAG(hpcd, USB_OTG_GINTSTS_IISOIXFR))
 616:Drivers/STM32F4xx_HAL_Driver/Src/stm32f4xx_hal_pcd.c ****     {
 617:Drivers/STM32F4xx_HAL_Driver/Src/stm32f4xx_hal_pcd.c ****       HAL_PCD_ISOINIncompleteCallback(hpcd, epnum);
 618:Drivers/STM32F4xx_HAL_Driver/Src/stm32f4xx_hal_pcd.c ****       __HAL_PCD_CLEAR_FLAG(hpcd, USB_OTG_GINTSTS_IISOIXFR);
 619:Drivers/STM32F4xx_HAL_Driver/Src/stm32f4xx_hal_pcd.c ****     } 
 620:Drivers/STM32F4xx_HAL_Driver/Src/stm32f4xx_hal_pcd.c ****     
 621:Drivers/STM32F4xx_HAL_Driver/Src/stm32f4xx_hal_pcd.c ****     /* Handle Incomplete ISO OUT Interrupt */
 622:Drivers/STM32F4xx_HAL_Driver/Src/stm32f4xx_hal_pcd.c ****     if(__HAL_PCD_GET_FLAG(hpcd, USB_OTG_GINTSTS_PXFR_INCOMPISOOUT))
 623:Drivers/STM32F4xx_HAL_Driver/Src/stm32f4xx_hal_pcd.c ****     {
 624:Drivers/STM32F4xx_HAL_Driver/Src/stm32f4xx_hal_pcd.c ****       HAL_PCD_ISOOUTIncompleteCallback(hpcd, epnum);
 625:Drivers/STM32F4xx_HAL_Driver/Src/stm32f4xx_hal_pcd.c ****       __HAL_PCD_CLEAR_FLAG(hpcd, USB_OTG_GINTSTS_PXFR_INCOMPISOOUT);
 626:Drivers/STM32F4xx_HAL_Driver/Src/stm32f4xx_hal_pcd.c ****     } 
 627:Drivers/STM32F4xx_HAL_Driver/Src/stm32f4xx_hal_pcd.c ****     
 628:Drivers/STM32F4xx_HAL_Driver/Src/stm32f4xx_hal_pcd.c ****     /* Handle Connection event Interrupt */
 629:Drivers/STM32F4xx_HAL_Driver/Src/stm32f4xx_hal_pcd.c ****     if(__HAL_PCD_GET_FLAG(hpcd, USB_OTG_GINTSTS_SRQINT))
 630:Drivers/STM32F4xx_HAL_Driver/Src/stm32f4xx_hal_pcd.c ****     {
 631:Drivers/STM32F4xx_HAL_Driver/Src/stm32f4xx_hal_pcd.c ****       HAL_PCD_ConnectCallback(hpcd);
 632:Drivers/STM32F4xx_HAL_Driver/Src/stm32f4xx_hal_pcd.c ****       __HAL_PCD_CLEAR_FLAG(hpcd, USB_OTG_GINTSTS_SRQINT);
 633:Drivers/STM32F4xx_HAL_Driver/Src/stm32f4xx_hal_pcd.c ****     } 
 634:Drivers/STM32F4xx_HAL_Driver/Src/stm32f4xx_hal_pcd.c ****     
 635:Drivers/STM32F4xx_HAL_Driver/Src/stm32f4xx_hal_pcd.c ****     /* Handle Disconnection event Interrupt */
 636:Drivers/STM32F4xx_HAL_Driver/Src/stm32f4xx_hal_pcd.c ****     if(__HAL_PCD_GET_FLAG(hpcd, USB_OTG_GINTSTS_OTGINT))
 637:Drivers/STM32F4xx_HAL_Driver/Src/stm32f4xx_hal_pcd.c ****     {
 638:Drivers/STM32F4xx_HAL_Driver/Src/stm32f4xx_hal_pcd.c ****       temp = hpcd->Instance->GOTGINT;
 639:Drivers/STM32F4xx_HAL_Driver/Src/stm32f4xx_hal_pcd.c ****       
 640:Drivers/STM32F4xx_HAL_Driver/Src/stm32f4xx_hal_pcd.c ****       if((temp & USB_OTG_GOTGINT_SEDET) == USB_OTG_GOTGINT_SEDET)
 641:Drivers/STM32F4xx_HAL_Driver/Src/stm32f4xx_hal_pcd.c ****       {
 642:Drivers/STM32F4xx_HAL_Driver/Src/stm32f4xx_hal_pcd.c ****         HAL_PCD_DisconnectCallback(hpcd);
 643:Drivers/STM32F4xx_HAL_Driver/Src/stm32f4xx_hal_pcd.c ****       }
 644:Drivers/STM32F4xx_HAL_Driver/Src/stm32f4xx_hal_pcd.c ****       hpcd->Instance->GOTGINT |= temp;
 645:Drivers/STM32F4xx_HAL_Driver/Src/stm32f4xx_hal_pcd.c ****     }
 646:Drivers/STM32F4xx_HAL_Driver/Src/stm32f4xx_hal_pcd.c ****   }
 647:Drivers/STM32F4xx_HAL_Driver/Src/stm32f4xx_hal_pcd.c **** }
 648:Drivers/STM32F4xx_HAL_Driver/Src/stm32f4xx_hal_pcd.c **** 
 649:Drivers/STM32F4xx_HAL_Driver/Src/stm32f4xx_hal_pcd.c **** /**
 650:Drivers/STM32F4xx_HAL_Driver/Src/stm32f4xx_hal_pcd.c ****   * @brief  Data OUT stage callback.
 651:Drivers/STM32F4xx_HAL_Driver/Src/stm32f4xx_hal_pcd.c ****   * @param  hpcd: PCD handle
 652:Drivers/STM32F4xx_HAL_Driver/Src/stm32f4xx_hal_pcd.c ****   * @param  epnum: endpoint number  
ARM GAS  /var/folders/19/rz7506jh8xn7x1006s6s574h0000gn/T//cceW6kab.s 			page 20


 653:Drivers/STM32F4xx_HAL_Driver/Src/stm32f4xx_hal_pcd.c ****   * @retval None
 654:Drivers/STM32F4xx_HAL_Driver/Src/stm32f4xx_hal_pcd.c ****   */
 655:Drivers/STM32F4xx_HAL_Driver/Src/stm32f4xx_hal_pcd.c ****  __weak void HAL_PCD_DataOutStageCallback(PCD_HandleTypeDef *hpcd, uint8_t epnum)
 656:Drivers/STM32F4xx_HAL_Driver/Src/stm32f4xx_hal_pcd.c **** {
 385              		.loc 1 656 0
 386              		.cfi_startproc
 387              		@ args = 0, pretend = 0, frame = 0
 388              		@ frame_needed = 0, uses_anonymous_args = 0
 389              		@ link register save eliminated.
 390              	.LVL35:
 391 0000 7047     		bx	lr
 392              		.cfi_endproc
 393              	.LFE132:
 395              		.section	.text.HAL_PCD_DataInStageCallback,"ax",%progbits
 396              		.align	1
 397              		.weak	HAL_PCD_DataInStageCallback
 398              		.thumb
 399              		.thumb_func
 401              	HAL_PCD_DataInStageCallback:
 402              	.LFB133:
 657:Drivers/STM32F4xx_HAL_Driver/Src/stm32f4xx_hal_pcd.c ****   /* Prevent unused argument(s) compilation warning */
 658:Drivers/STM32F4xx_HAL_Driver/Src/stm32f4xx_hal_pcd.c ****   UNUSED(hpcd);
 659:Drivers/STM32F4xx_HAL_Driver/Src/stm32f4xx_hal_pcd.c ****   UNUSED(epnum);
 660:Drivers/STM32F4xx_HAL_Driver/Src/stm32f4xx_hal_pcd.c ****   /* NOTE : This function Should not be modified, when the callback is needed,
 661:Drivers/STM32F4xx_HAL_Driver/Src/stm32f4xx_hal_pcd.c ****             the HAL_PCD_DataOutStageCallback could be implemented in the user file
 662:Drivers/STM32F4xx_HAL_Driver/Src/stm32f4xx_hal_pcd.c ****    */ 
 663:Drivers/STM32F4xx_HAL_Driver/Src/stm32f4xx_hal_pcd.c **** }
 664:Drivers/STM32F4xx_HAL_Driver/Src/stm32f4xx_hal_pcd.c **** 
 665:Drivers/STM32F4xx_HAL_Driver/Src/stm32f4xx_hal_pcd.c **** /**
 666:Drivers/STM32F4xx_HAL_Driver/Src/stm32f4xx_hal_pcd.c ****   * @brief  Data IN stage callback.
 667:Drivers/STM32F4xx_HAL_Driver/Src/stm32f4xx_hal_pcd.c ****   * @param  hpcd: PCD handle
 668:Drivers/STM32F4xx_HAL_Driver/Src/stm32f4xx_hal_pcd.c ****   * @param  epnum: endpoint number
 669:Drivers/STM32F4xx_HAL_Driver/Src/stm32f4xx_hal_pcd.c ****   * @retval None
 670:Drivers/STM32F4xx_HAL_Driver/Src/stm32f4xx_hal_pcd.c ****   */
 671:Drivers/STM32F4xx_HAL_Driver/Src/stm32f4xx_hal_pcd.c ****  __weak void HAL_PCD_DataInStageCallback(PCD_HandleTypeDef *hpcd, uint8_t epnum)
 672:Drivers/STM32F4xx_HAL_Driver/Src/stm32f4xx_hal_pcd.c **** {
 403              		.loc 1 672 0
 404              		.cfi_startproc
 405              		@ args = 0, pretend = 0, frame = 0
 406              		@ frame_needed = 0, uses_anonymous_args = 0
 407              		@ link register save eliminated.
 408              	.LVL36:
 409 0000 7047     		bx	lr
 410              		.cfi_endproc
 411              	.LFE133:
 413              		.section	.text.HAL_PCD_SetupStageCallback,"ax",%progbits
 414              		.align	1
 415              		.weak	HAL_PCD_SetupStageCallback
 416              		.thumb
 417              		.thumb_func
 419              	HAL_PCD_SetupStageCallback:
 420              	.LFB134:
 673:Drivers/STM32F4xx_HAL_Driver/Src/stm32f4xx_hal_pcd.c ****   /* Prevent unused argument(s) compilation warning */
 674:Drivers/STM32F4xx_HAL_Driver/Src/stm32f4xx_hal_pcd.c ****   UNUSED(hpcd);
 675:Drivers/STM32F4xx_HAL_Driver/Src/stm32f4xx_hal_pcd.c ****   UNUSED(epnum);
 676:Drivers/STM32F4xx_HAL_Driver/Src/stm32f4xx_hal_pcd.c ****   /* NOTE : This function Should not be modified, when the callback is needed,
 677:Drivers/STM32F4xx_HAL_Driver/Src/stm32f4xx_hal_pcd.c ****             the HAL_PCD_DataInStageCallback could be implemented in the user file
ARM GAS  /var/folders/19/rz7506jh8xn7x1006s6s574h0000gn/T//cceW6kab.s 			page 21


 678:Drivers/STM32F4xx_HAL_Driver/Src/stm32f4xx_hal_pcd.c ****    */ 
 679:Drivers/STM32F4xx_HAL_Driver/Src/stm32f4xx_hal_pcd.c **** }
 680:Drivers/STM32F4xx_HAL_Driver/Src/stm32f4xx_hal_pcd.c **** /**
 681:Drivers/STM32F4xx_HAL_Driver/Src/stm32f4xx_hal_pcd.c ****   * @brief  Setup stage callback.
 682:Drivers/STM32F4xx_HAL_Driver/Src/stm32f4xx_hal_pcd.c ****   * @param  hpcd: PCD handle
 683:Drivers/STM32F4xx_HAL_Driver/Src/stm32f4xx_hal_pcd.c ****   * @retval None
 684:Drivers/STM32F4xx_HAL_Driver/Src/stm32f4xx_hal_pcd.c ****   */
 685:Drivers/STM32F4xx_HAL_Driver/Src/stm32f4xx_hal_pcd.c ****  __weak void HAL_PCD_SetupStageCallback(PCD_HandleTypeDef *hpcd)
 686:Drivers/STM32F4xx_HAL_Driver/Src/stm32f4xx_hal_pcd.c **** {
 421              		.loc 1 686 0
 422              		.cfi_startproc
 423              		@ args = 0, pretend = 0, frame = 0
 424              		@ frame_needed = 0, uses_anonymous_args = 0
 425              		@ link register save eliminated.
 426              	.LVL37:
 427 0000 7047     		bx	lr
 428              		.cfi_endproc
 429              	.LFE134:
 431              		.section	.text.HAL_PCD_SOFCallback,"ax",%progbits
 432              		.align	1
 433              		.weak	HAL_PCD_SOFCallback
 434              		.thumb
 435              		.thumb_func
 437              	HAL_PCD_SOFCallback:
 438              	.LFB135:
 687:Drivers/STM32F4xx_HAL_Driver/Src/stm32f4xx_hal_pcd.c ****   /* Prevent unused argument(s) compilation warning */
 688:Drivers/STM32F4xx_HAL_Driver/Src/stm32f4xx_hal_pcd.c ****   UNUSED(hpcd);
 689:Drivers/STM32F4xx_HAL_Driver/Src/stm32f4xx_hal_pcd.c ****   /* NOTE : This function Should not be modified, when the callback is needed,
 690:Drivers/STM32F4xx_HAL_Driver/Src/stm32f4xx_hal_pcd.c ****             the HAL_PCD_SetupStageCallback could be implemented in the user file
 691:Drivers/STM32F4xx_HAL_Driver/Src/stm32f4xx_hal_pcd.c ****    */ 
 692:Drivers/STM32F4xx_HAL_Driver/Src/stm32f4xx_hal_pcd.c **** }
 693:Drivers/STM32F4xx_HAL_Driver/Src/stm32f4xx_hal_pcd.c **** 
 694:Drivers/STM32F4xx_HAL_Driver/Src/stm32f4xx_hal_pcd.c **** /**
 695:Drivers/STM32F4xx_HAL_Driver/Src/stm32f4xx_hal_pcd.c ****   * @brief  USB Start Of Frame callback.
 696:Drivers/STM32F4xx_HAL_Driver/Src/stm32f4xx_hal_pcd.c ****   * @param  hpcd: PCD handle
 697:Drivers/STM32F4xx_HAL_Driver/Src/stm32f4xx_hal_pcd.c ****   * @retval None
 698:Drivers/STM32F4xx_HAL_Driver/Src/stm32f4xx_hal_pcd.c ****   */
 699:Drivers/STM32F4xx_HAL_Driver/Src/stm32f4xx_hal_pcd.c ****  __weak void HAL_PCD_SOFCallback(PCD_HandleTypeDef *hpcd)
 700:Drivers/STM32F4xx_HAL_Driver/Src/stm32f4xx_hal_pcd.c **** {
 439              		.loc 1 700 0
 440              		.cfi_startproc
 441              		@ args = 0, pretend = 0, frame = 0
 442              		@ frame_needed = 0, uses_anonymous_args = 0
 443              		@ link register save eliminated.
 444              	.LVL38:
 445 0000 7047     		bx	lr
 446              		.cfi_endproc
 447              	.LFE135:
 449              		.section	.text.HAL_PCD_ResetCallback,"ax",%progbits
 450              		.align	1
 451              		.weak	HAL_PCD_ResetCallback
 452              		.thumb
 453              		.thumb_func
 455              	HAL_PCD_ResetCallback:
 456              	.LFB136:
 701:Drivers/STM32F4xx_HAL_Driver/Src/stm32f4xx_hal_pcd.c ****   /* Prevent unused argument(s) compilation warning */
 702:Drivers/STM32F4xx_HAL_Driver/Src/stm32f4xx_hal_pcd.c ****   UNUSED(hpcd);
ARM GAS  /var/folders/19/rz7506jh8xn7x1006s6s574h0000gn/T//cceW6kab.s 			page 22


 703:Drivers/STM32F4xx_HAL_Driver/Src/stm32f4xx_hal_pcd.c ****   /* NOTE : This function Should not be modified, when the callback is needed,
 704:Drivers/STM32F4xx_HAL_Driver/Src/stm32f4xx_hal_pcd.c ****             the HAL_PCD_SOFCallback could be implemented in the user file
 705:Drivers/STM32F4xx_HAL_Driver/Src/stm32f4xx_hal_pcd.c ****    */ 
 706:Drivers/STM32F4xx_HAL_Driver/Src/stm32f4xx_hal_pcd.c **** }
 707:Drivers/STM32F4xx_HAL_Driver/Src/stm32f4xx_hal_pcd.c **** 
 708:Drivers/STM32F4xx_HAL_Driver/Src/stm32f4xx_hal_pcd.c **** /**
 709:Drivers/STM32F4xx_HAL_Driver/Src/stm32f4xx_hal_pcd.c ****   * @brief  USB Reset callback.
 710:Drivers/STM32F4xx_HAL_Driver/Src/stm32f4xx_hal_pcd.c ****   * @param  hpcd: PCD handle
 711:Drivers/STM32F4xx_HAL_Driver/Src/stm32f4xx_hal_pcd.c ****   * @retval None
 712:Drivers/STM32F4xx_HAL_Driver/Src/stm32f4xx_hal_pcd.c ****   */
 713:Drivers/STM32F4xx_HAL_Driver/Src/stm32f4xx_hal_pcd.c ****  __weak void HAL_PCD_ResetCallback(PCD_HandleTypeDef *hpcd)
 714:Drivers/STM32F4xx_HAL_Driver/Src/stm32f4xx_hal_pcd.c **** {
 457              		.loc 1 714 0
 458              		.cfi_startproc
 459              		@ args = 0, pretend = 0, frame = 0
 460              		@ frame_needed = 0, uses_anonymous_args = 0
 461              		@ link register save eliminated.
 462              	.LVL39:
 463 0000 7047     		bx	lr
 464              		.cfi_endproc
 465              	.LFE136:
 467              		.section	.text.HAL_PCD_SuspendCallback,"ax",%progbits
 468              		.align	1
 469              		.weak	HAL_PCD_SuspendCallback
 470              		.thumb
 471              		.thumb_func
 473              	HAL_PCD_SuspendCallback:
 474              	.LFB137:
 715:Drivers/STM32F4xx_HAL_Driver/Src/stm32f4xx_hal_pcd.c ****   /* Prevent unused argument(s) compilation warning */
 716:Drivers/STM32F4xx_HAL_Driver/Src/stm32f4xx_hal_pcd.c ****   UNUSED(hpcd);
 717:Drivers/STM32F4xx_HAL_Driver/Src/stm32f4xx_hal_pcd.c ****   /* NOTE : This function Should not be modified, when the callback is needed,
 718:Drivers/STM32F4xx_HAL_Driver/Src/stm32f4xx_hal_pcd.c ****             the HAL_PCD_ResetCallback could be implemented in the user file
 719:Drivers/STM32F4xx_HAL_Driver/Src/stm32f4xx_hal_pcd.c ****    */ 
 720:Drivers/STM32F4xx_HAL_Driver/Src/stm32f4xx_hal_pcd.c **** }
 721:Drivers/STM32F4xx_HAL_Driver/Src/stm32f4xx_hal_pcd.c **** 
 722:Drivers/STM32F4xx_HAL_Driver/Src/stm32f4xx_hal_pcd.c **** /**
 723:Drivers/STM32F4xx_HAL_Driver/Src/stm32f4xx_hal_pcd.c ****   * @brief  Suspend event callback.
 724:Drivers/STM32F4xx_HAL_Driver/Src/stm32f4xx_hal_pcd.c ****   * @param  hpcd: PCD handle
 725:Drivers/STM32F4xx_HAL_Driver/Src/stm32f4xx_hal_pcd.c ****   * @retval None
 726:Drivers/STM32F4xx_HAL_Driver/Src/stm32f4xx_hal_pcd.c ****   */
 727:Drivers/STM32F4xx_HAL_Driver/Src/stm32f4xx_hal_pcd.c ****  __weak void HAL_PCD_SuspendCallback(PCD_HandleTypeDef *hpcd)
 728:Drivers/STM32F4xx_HAL_Driver/Src/stm32f4xx_hal_pcd.c **** {
 475              		.loc 1 728 0
 476              		.cfi_startproc
 477              		@ args = 0, pretend = 0, frame = 0
 478              		@ frame_needed = 0, uses_anonymous_args = 0
 479              		@ link register save eliminated.
 480              	.LVL40:
 481 0000 7047     		bx	lr
 482              		.cfi_endproc
 483              	.LFE137:
 485              		.section	.text.HAL_PCD_ResumeCallback,"ax",%progbits
 486              		.align	1
 487              		.weak	HAL_PCD_ResumeCallback
 488              		.thumb
 489              		.thumb_func
 491              	HAL_PCD_ResumeCallback:
ARM GAS  /var/folders/19/rz7506jh8xn7x1006s6s574h0000gn/T//cceW6kab.s 			page 23


 492              	.LFB138:
 729:Drivers/STM32F4xx_HAL_Driver/Src/stm32f4xx_hal_pcd.c ****   /* Prevent unused argument(s) compilation warning */
 730:Drivers/STM32F4xx_HAL_Driver/Src/stm32f4xx_hal_pcd.c ****   UNUSED(hpcd);
 731:Drivers/STM32F4xx_HAL_Driver/Src/stm32f4xx_hal_pcd.c ****   /* NOTE : This function Should not be modified, when the callback is needed,
 732:Drivers/STM32F4xx_HAL_Driver/Src/stm32f4xx_hal_pcd.c ****             the HAL_PCD_SuspendCallback could be implemented in the user file
 733:Drivers/STM32F4xx_HAL_Driver/Src/stm32f4xx_hal_pcd.c ****    */ 
 734:Drivers/STM32F4xx_HAL_Driver/Src/stm32f4xx_hal_pcd.c **** }
 735:Drivers/STM32F4xx_HAL_Driver/Src/stm32f4xx_hal_pcd.c **** 
 736:Drivers/STM32F4xx_HAL_Driver/Src/stm32f4xx_hal_pcd.c **** /**
 737:Drivers/STM32F4xx_HAL_Driver/Src/stm32f4xx_hal_pcd.c ****   * @brief  Resume event callback.
 738:Drivers/STM32F4xx_HAL_Driver/Src/stm32f4xx_hal_pcd.c ****   * @param  hpcd: PCD handle
 739:Drivers/STM32F4xx_HAL_Driver/Src/stm32f4xx_hal_pcd.c ****   * @retval None
 740:Drivers/STM32F4xx_HAL_Driver/Src/stm32f4xx_hal_pcd.c ****   */
 741:Drivers/STM32F4xx_HAL_Driver/Src/stm32f4xx_hal_pcd.c ****  __weak void HAL_PCD_ResumeCallback(PCD_HandleTypeDef *hpcd)
 742:Drivers/STM32F4xx_HAL_Driver/Src/stm32f4xx_hal_pcd.c **** {
 493              		.loc 1 742 0
 494              		.cfi_startproc
 495              		@ args = 0, pretend = 0, frame = 0
 496              		@ frame_needed = 0, uses_anonymous_args = 0
 497              		@ link register save eliminated.
 498              	.LVL41:
 499 0000 7047     		bx	lr
 500              		.cfi_endproc
 501              	.LFE138:
 503              		.section	.text.HAL_PCD_ISOOUTIncompleteCallback,"ax",%progbits
 504              		.align	1
 505              		.weak	HAL_PCD_ISOOUTIncompleteCallback
 506              		.thumb
 507              		.thumb_func
 509              	HAL_PCD_ISOOUTIncompleteCallback:
 510              	.LFB139:
 743:Drivers/STM32F4xx_HAL_Driver/Src/stm32f4xx_hal_pcd.c ****   /* Prevent unused argument(s) compilation warning */
 744:Drivers/STM32F4xx_HAL_Driver/Src/stm32f4xx_hal_pcd.c ****   UNUSED(hpcd);
 745:Drivers/STM32F4xx_HAL_Driver/Src/stm32f4xx_hal_pcd.c ****   /* NOTE : This function Should not be modified, when the callback is needed,
 746:Drivers/STM32F4xx_HAL_Driver/Src/stm32f4xx_hal_pcd.c ****             the HAL_PCD_ResumeCallback could be implemented in the user file
 747:Drivers/STM32F4xx_HAL_Driver/Src/stm32f4xx_hal_pcd.c ****    */ 
 748:Drivers/STM32F4xx_HAL_Driver/Src/stm32f4xx_hal_pcd.c **** }
 749:Drivers/STM32F4xx_HAL_Driver/Src/stm32f4xx_hal_pcd.c **** 
 750:Drivers/STM32F4xx_HAL_Driver/Src/stm32f4xx_hal_pcd.c **** /**
 751:Drivers/STM32F4xx_HAL_Driver/Src/stm32f4xx_hal_pcd.c ****   * @brief  Incomplete ISO OUT callback.
 752:Drivers/STM32F4xx_HAL_Driver/Src/stm32f4xx_hal_pcd.c ****   * @param  hpcd: PCD handle
 753:Drivers/STM32F4xx_HAL_Driver/Src/stm32f4xx_hal_pcd.c ****   * @param  epnum: endpoint number
 754:Drivers/STM32F4xx_HAL_Driver/Src/stm32f4xx_hal_pcd.c ****   * @retval None
 755:Drivers/STM32F4xx_HAL_Driver/Src/stm32f4xx_hal_pcd.c ****   */
 756:Drivers/STM32F4xx_HAL_Driver/Src/stm32f4xx_hal_pcd.c ****  __weak void HAL_PCD_ISOOUTIncompleteCallback(PCD_HandleTypeDef *hpcd, uint8_t epnum)
 757:Drivers/STM32F4xx_HAL_Driver/Src/stm32f4xx_hal_pcd.c **** {
 511              		.loc 1 757 0
 512              		.cfi_startproc
 513              		@ args = 0, pretend = 0, frame = 0
 514              		@ frame_needed = 0, uses_anonymous_args = 0
 515              		@ link register save eliminated.
 516              	.LVL42:
 517 0000 7047     		bx	lr
 518              		.cfi_endproc
 519              	.LFE139:
 521              		.section	.text.HAL_PCD_ISOINIncompleteCallback,"ax",%progbits
 522              		.align	1
ARM GAS  /var/folders/19/rz7506jh8xn7x1006s6s574h0000gn/T//cceW6kab.s 			page 24


 523              		.weak	HAL_PCD_ISOINIncompleteCallback
 524              		.thumb
 525              		.thumb_func
 527              	HAL_PCD_ISOINIncompleteCallback:
 528              	.LFB140:
 758:Drivers/STM32F4xx_HAL_Driver/Src/stm32f4xx_hal_pcd.c ****   /* Prevent unused argument(s) compilation warning */
 759:Drivers/STM32F4xx_HAL_Driver/Src/stm32f4xx_hal_pcd.c ****   UNUSED(hpcd);
 760:Drivers/STM32F4xx_HAL_Driver/Src/stm32f4xx_hal_pcd.c ****   UNUSED(epnum);
 761:Drivers/STM32F4xx_HAL_Driver/Src/stm32f4xx_hal_pcd.c ****   /* NOTE : This function Should not be modified, when the callback is needed,
 762:Drivers/STM32F4xx_HAL_Driver/Src/stm32f4xx_hal_pcd.c ****             the HAL_PCD_ISOOUTIncompleteCallback could be implemented in the user file
 763:Drivers/STM32F4xx_HAL_Driver/Src/stm32f4xx_hal_pcd.c ****    */ 
 764:Drivers/STM32F4xx_HAL_Driver/Src/stm32f4xx_hal_pcd.c **** }
 765:Drivers/STM32F4xx_HAL_Driver/Src/stm32f4xx_hal_pcd.c **** 
 766:Drivers/STM32F4xx_HAL_Driver/Src/stm32f4xx_hal_pcd.c **** /**
 767:Drivers/STM32F4xx_HAL_Driver/Src/stm32f4xx_hal_pcd.c ****   * @brief  Incomplete ISO IN callback.
 768:Drivers/STM32F4xx_HAL_Driver/Src/stm32f4xx_hal_pcd.c ****   * @param  hpcd: PCD handle
 769:Drivers/STM32F4xx_HAL_Driver/Src/stm32f4xx_hal_pcd.c ****   * @param  epnum: endpoint number  
 770:Drivers/STM32F4xx_HAL_Driver/Src/stm32f4xx_hal_pcd.c ****   * @retval None
 771:Drivers/STM32F4xx_HAL_Driver/Src/stm32f4xx_hal_pcd.c ****   */
 772:Drivers/STM32F4xx_HAL_Driver/Src/stm32f4xx_hal_pcd.c ****  __weak void HAL_PCD_ISOINIncompleteCallback(PCD_HandleTypeDef *hpcd, uint8_t epnum)
 773:Drivers/STM32F4xx_HAL_Driver/Src/stm32f4xx_hal_pcd.c **** {
 529              		.loc 1 773 0
 530              		.cfi_startproc
 531              		@ args = 0, pretend = 0, frame = 0
 532              		@ frame_needed = 0, uses_anonymous_args = 0
 533              		@ link register save eliminated.
 534              	.LVL43:
 535 0000 7047     		bx	lr
 536              		.cfi_endproc
 537              	.LFE140:
 539              		.section	.text.HAL_PCD_ConnectCallback,"ax",%progbits
 540              		.align	1
 541              		.weak	HAL_PCD_ConnectCallback
 542              		.thumb
 543              		.thumb_func
 545              	HAL_PCD_ConnectCallback:
 546              	.LFB141:
 774:Drivers/STM32F4xx_HAL_Driver/Src/stm32f4xx_hal_pcd.c ****   /* Prevent unused argument(s) compilation warning */
 775:Drivers/STM32F4xx_HAL_Driver/Src/stm32f4xx_hal_pcd.c ****   UNUSED(hpcd);
 776:Drivers/STM32F4xx_HAL_Driver/Src/stm32f4xx_hal_pcd.c ****   UNUSED(epnum);
 777:Drivers/STM32F4xx_HAL_Driver/Src/stm32f4xx_hal_pcd.c ****   /* NOTE : This function Should not be modified, when the callback is needed,
 778:Drivers/STM32F4xx_HAL_Driver/Src/stm32f4xx_hal_pcd.c ****             the HAL_PCD_ISOINIncompleteCallback could be implemented in the user file
 779:Drivers/STM32F4xx_HAL_Driver/Src/stm32f4xx_hal_pcd.c ****    */ 
 780:Drivers/STM32F4xx_HAL_Driver/Src/stm32f4xx_hal_pcd.c **** }
 781:Drivers/STM32F4xx_HAL_Driver/Src/stm32f4xx_hal_pcd.c **** 
 782:Drivers/STM32F4xx_HAL_Driver/Src/stm32f4xx_hal_pcd.c **** /**
 783:Drivers/STM32F4xx_HAL_Driver/Src/stm32f4xx_hal_pcd.c ****   * @brief  Connection event callback.
 784:Drivers/STM32F4xx_HAL_Driver/Src/stm32f4xx_hal_pcd.c ****   * @param  hpcd: PCD handle
 785:Drivers/STM32F4xx_HAL_Driver/Src/stm32f4xx_hal_pcd.c ****   * @retval None
 786:Drivers/STM32F4xx_HAL_Driver/Src/stm32f4xx_hal_pcd.c ****   */
 787:Drivers/STM32F4xx_HAL_Driver/Src/stm32f4xx_hal_pcd.c ****  __weak void HAL_PCD_ConnectCallback(PCD_HandleTypeDef *hpcd)
 788:Drivers/STM32F4xx_HAL_Driver/Src/stm32f4xx_hal_pcd.c **** {
 547              		.loc 1 788 0
 548              		.cfi_startproc
 549              		@ args = 0, pretend = 0, frame = 0
 550              		@ frame_needed = 0, uses_anonymous_args = 0
 551              		@ link register save eliminated.
ARM GAS  /var/folders/19/rz7506jh8xn7x1006s6s574h0000gn/T//cceW6kab.s 			page 25


 552              	.LVL44:
 553 0000 7047     		bx	lr
 554              		.cfi_endproc
 555              	.LFE141:
 557              		.section	.text.HAL_PCD_DisconnectCallback,"ax",%progbits
 558              		.align	1
 559              		.weak	HAL_PCD_DisconnectCallback
 560              		.thumb
 561              		.thumb_func
 563              	HAL_PCD_DisconnectCallback:
 564              	.LFB142:
 789:Drivers/STM32F4xx_HAL_Driver/Src/stm32f4xx_hal_pcd.c ****   /* Prevent unused argument(s) compilation warning */
 790:Drivers/STM32F4xx_HAL_Driver/Src/stm32f4xx_hal_pcd.c ****   UNUSED(hpcd);
 791:Drivers/STM32F4xx_HAL_Driver/Src/stm32f4xx_hal_pcd.c ****   /* NOTE : This function Should not be modified, when the callback is needed,
 792:Drivers/STM32F4xx_HAL_Driver/Src/stm32f4xx_hal_pcd.c ****             the HAL_PCD_ConnectCallback could be implemented in the user file
 793:Drivers/STM32F4xx_HAL_Driver/Src/stm32f4xx_hal_pcd.c ****    */ 
 794:Drivers/STM32F4xx_HAL_Driver/Src/stm32f4xx_hal_pcd.c **** }
 795:Drivers/STM32F4xx_HAL_Driver/Src/stm32f4xx_hal_pcd.c **** 
 796:Drivers/STM32F4xx_HAL_Driver/Src/stm32f4xx_hal_pcd.c **** /**
 797:Drivers/STM32F4xx_HAL_Driver/Src/stm32f4xx_hal_pcd.c ****   * @brief  Disconnection event callback.
 798:Drivers/STM32F4xx_HAL_Driver/Src/stm32f4xx_hal_pcd.c ****   * @param  hpcd: PCD handle
 799:Drivers/STM32F4xx_HAL_Driver/Src/stm32f4xx_hal_pcd.c ****   * @retval None
 800:Drivers/STM32F4xx_HAL_Driver/Src/stm32f4xx_hal_pcd.c ****   */
 801:Drivers/STM32F4xx_HAL_Driver/Src/stm32f4xx_hal_pcd.c ****  __weak void HAL_PCD_DisconnectCallback(PCD_HandleTypeDef *hpcd)
 802:Drivers/STM32F4xx_HAL_Driver/Src/stm32f4xx_hal_pcd.c **** {
 565              		.loc 1 802 0
 566              		.cfi_startproc
 567              		@ args = 0, pretend = 0, frame = 0
 568              		@ frame_needed = 0, uses_anonymous_args = 0
 569              		@ link register save eliminated.
 570              	.LVL45:
 571 0000 7047     		bx	lr
 572              		.cfi_endproc
 573              	.LFE142:
 575              		.section	.text.HAL_PCD_IRQHandler,"ax",%progbits
 576              		.align	1
 577              		.global	HAL_PCD_IRQHandler
 578              		.thumb
 579              		.thumb_func
 581              	HAL_PCD_IRQHandler:
 582              	.LFB131:
 326:Drivers/STM32F4xx_HAL_Driver/Src/stm32f4xx_hal_pcd.c **** {
 583              		.loc 1 326 0
 584              		.cfi_startproc
 585              		@ args = 0, pretend = 0, frame = 16
 586              		@ frame_needed = 0, uses_anonymous_args = 0
 587              	.LVL46:
 326:Drivers/STM32F4xx_HAL_Driver/Src/stm32f4xx_hal_pcd.c **** {
 588              		.loc 1 326 0
 589 0000 2DE9F04F 		push	{r4, r5, r6, r7, r8, r9, r10, fp, lr}
 590              	.LCFI5:
 591              		.cfi_def_cfa_offset 36
 592              		.cfi_offset 4, -36
 593              		.cfi_offset 5, -32
 594              		.cfi_offset 6, -28
 595              		.cfi_offset 7, -24
 596              		.cfi_offset 8, -20
ARM GAS  /var/folders/19/rz7506jh8xn7x1006s6s574h0000gn/T//cceW6kab.s 			page 26


 597              		.cfi_offset 9, -16
 598              		.cfi_offset 10, -12
 599              		.cfi_offset 11, -8
 600              		.cfi_offset 14, -4
 327:Drivers/STM32F4xx_HAL_Driver/Src/stm32f4xx_hal_pcd.c ****   USB_OTG_GlobalTypeDef *USBx = hpcd->Instance;
 601              		.loc 1 327 0
 602 0004 0768     		ldr	r7, [r0]
 603              	.LVL47:
 326:Drivers/STM32F4xx_HAL_Driver/Src/stm32f4xx_hal_pcd.c **** {
 604              		.loc 1 326 0
 605 0006 87B0     		sub	sp, sp, #28
 606              	.LCFI6:
 607              		.cfi_def_cfa_offset 64
 326:Drivers/STM32F4xx_HAL_Driver/Src/stm32f4xx_hal_pcd.c **** {
 608              		.loc 1 326 0
 609 0008 0446     		mov	r4, r0
 333:Drivers/STM32F4xx_HAL_Driver/Src/stm32f4xx_hal_pcd.c ****   if (USB_GetMode(hpcd->Instance) == USB_OTG_MODE_DEVICE)
 610              		.loc 1 333 0
 611 000a 3846     		mov	r0, r7
 612              	.LVL48:
 613 000c FFF7FEFF 		bl	USB_GetMode
 614              	.LVL49:
 615 0010 0028     		cmp	r0, #0
 616 0012 40F02D82 		bne	.L33
 336:Drivers/STM32F4xx_HAL_Driver/Src/stm32f4xx_hal_pcd.c ****     if(__HAL_PCD_IS_INVALID_INTERRUPT(hpcd)) 
 617              		.loc 1 336 0
 618 0016 2068     		ldr	r0, [r4]
 619 0018 FFF7FEFF 		bl	USB_ReadInterrupts
 620              	.LVL50:
 621 001c 0028     		cmp	r0, #0
 622 001e 00F02782 		beq	.L33
 341:Drivers/STM32F4xx_HAL_Driver/Src/stm32f4xx_hal_pcd.c ****     if(__HAL_PCD_GET_FLAG(hpcd, USB_OTG_GINTSTS_MMIS))
 623              		.loc 1 341 0
 624 0022 2068     		ldr	r0, [r4]
 625 0024 FFF7FEFF 		bl	USB_ReadInterrupts
 626              	.LVL51:
 627 0028 8207     		lsls	r2, r0, #30
 628 002a 04D5     		bpl	.L37
 344:Drivers/STM32F4xx_HAL_Driver/Src/stm32f4xx_hal_pcd.c ****       __HAL_PCD_CLEAR_FLAG(hpcd, USB_OTG_GINTSTS_MMIS);
 629              		.loc 1 344 0
 630 002c 2368     		ldr	r3, [r4]
 631 002e 5A69     		ldr	r2, [r3, #20]
 632 0030 02F00202 		and	r2, r2, #2
 633 0034 5A61     		str	r2, [r3, #20]
 634              	.L37:
 347:Drivers/STM32F4xx_HAL_Driver/Src/stm32f4xx_hal_pcd.c ****     if(__HAL_PCD_GET_FLAG(hpcd, USB_OTG_GINTSTS_OEPINT))
 635              		.loc 1 347 0
 636 0036 2068     		ldr	r0, [r4]
 637 0038 FFF7FEFF 		bl	USB_ReadInterrupts
 638              	.LVL52:
 639 003c 10F40020 		ands	r0, r0, #524288
 640 0040 4DD0     		beq	.L91
 352:Drivers/STM32F4xx_HAL_Driver/Src/stm32f4xx_hal_pcd.c ****       ep_intr = USB_ReadDevAllOutEpInterrupt(hpcd->Instance);
 641              		.loc 1 352 0
 642 0042 2068     		ldr	r0, [r4]
 643 0044 FFF7FEFF 		bl	USB_ReadDevAllOutEpInterrupt
 644              	.LVL53:
ARM GAS  /var/folders/19/rz7506jh8xn7x1006s6s574h0000gn/T//cceW6kab.s 			page 27


 645 0048 07F53065 		add	r5, r7, #2816
 646 004c 8146     		mov	r9, r0
 647              	.LVL54:
 648 004e A046     		mov	r8, r4
 349:Drivers/STM32F4xx_HAL_Driver/Src/stm32f4xx_hal_pcd.c ****       epnum = 0;
 649              		.loc 1 349 0
 650 0050 0026     		movs	r6, #0
 651              	.LVL55:
 652              	.L39:
 354:Drivers/STM32F4xx_HAL_Driver/Src/stm32f4xx_hal_pcd.c ****       while ( ep_intr )
 653              		.loc 1 354 0 discriminator 1
 654 0052 B9F1000F 		cmp	r9, #0
 655 0056 43D0     		beq	.L38
 356:Drivers/STM32F4xx_HAL_Driver/Src/stm32f4xx_hal_pcd.c ****         if (ep_intr & 0x1)
 656              		.loc 1 356 0
 657 0058 19F0010F 		tst	r9, #1
 658 005c 38D0     		beq	.L41
 358:Drivers/STM32F4xx_HAL_Driver/Src/stm32f4xx_hal_pcd.c ****           epint = USB_ReadDevOutEPInterrupt(hpcd->Instance, epnum);
 659              		.loc 1 358 0
 660 005e 5FFA86FB 		uxtb	fp, r6
 661 0062 2068     		ldr	r0, [r4]
 662 0064 5946     		mov	r1, fp
 663 0066 FFF7FEFF 		bl	USB_ReadDevOutEPInterrupt
 664              	.LVL56:
 360:Drivers/STM32F4xx_HAL_Driver/Src/stm32f4xx_hal_pcd.c ****           if(( epint & USB_OTG_DOEPINT_XFRC) == USB_OTG_DOEPINT_XFRC)
 665              		.loc 1 360 0
 666 006a 10F0010F 		tst	r0, #1
 358:Drivers/STM32F4xx_HAL_Driver/Src/stm32f4xx_hal_pcd.c ****           epint = USB_ReadDevOutEPInterrupt(hpcd->Instance, epnum);
 667              		.loc 1 358 0
 668 006e 8246     		mov	r10, r0
 669              	.LVL57:
 360:Drivers/STM32F4xx_HAL_Driver/Src/stm32f4xx_hal_pcd.c ****           if(( epint & USB_OTG_DOEPINT_XFRC) == USB_OTG_DOEPINT_XFRC)
 670              		.loc 1 360 0
 671 0070 21D0     		beq	.L43
 362:Drivers/STM32F4xx_HAL_Driver/Src/stm32f4xx_hal_pcd.c ****             CLEAR_OUT_EP_INTR(epnum, USB_OTG_DOEPINT_XFRC);
 672              		.loc 1 362 0
 673 0072 0123     		movs	r3, #1
 674 0074 AB60     		str	r3, [r5, #8]
 364:Drivers/STM32F4xx_HAL_Driver/Src/stm32f4xx_hal_pcd.c ****             if(hpcd->Init.dma_enable == 1)
 675              		.loc 1 364 0
 676 0076 2369     		ldr	r3, [r4, #16]
 677 0078 012B     		cmp	r3, #1
 678 007a 0CD1     		bne	.L44
 366:Drivers/STM32F4xx_HAL_Driver/Src/stm32f4xx_hal_pcd.c ****               hpcd->OUT_ep[epnum].xfer_count = hpcd->OUT_ep[epnum].maxpacket- (USBx_OUTEP(epnum)->D
 679              		.loc 1 366 0
 680 007c 2A69     		ldr	r2, [r5, #16]
 681 007e D8F8E431 		ldr	r3, [r8, #484]
 682 0082 C2F31202 		ubfx	r2, r2, #0, #19
 683 0086 9A1A     		subs	r2, r3, r2
 684 0088 C8F8F421 		str	r2, [r8, #500]
 367:Drivers/STM32F4xx_HAL_Driver/Src/stm32f4xx_hal_pcd.c ****               hpcd->OUT_ep[epnum].xfer_buff += hpcd->OUT_ep[epnum].maxpacket;            
 685              		.loc 1 367 0
 686 008c D8F8E821 		ldr	r2, [r8, #488]
 687 0090 1344     		add	r3, r3, r2
 688 0092 C8F8E831 		str	r3, [r8, #488]
 689              	.L44:
 370:Drivers/STM32F4xx_HAL_Driver/Src/stm32f4xx_hal_pcd.c ****             HAL_PCD_DataOutStageCallback(hpcd, epnum);
ARM GAS  /var/folders/19/rz7506jh8xn7x1006s6s574h0000gn/T//cceW6kab.s 			page 28


 690              		.loc 1 370 0
 691 0096 5946     		mov	r1, fp
 692 0098 2046     		mov	r0, r4
 693              	.LVL58:
 694 009a FFF7FEFF 		bl	HAL_PCD_DataOutStageCallback
 695              	.LVL59:
 371:Drivers/STM32F4xx_HAL_Driver/Src/stm32f4xx_hal_pcd.c ****             if(hpcd->Init.dma_enable == 1)
 696              		.loc 1 371 0
 697 009e 2169     		ldr	r1, [r4, #16]
 698 00a0 0129     		cmp	r1, #1
 699 00a2 08D1     		bne	.L43
 373:Drivers/STM32F4xx_HAL_Driver/Src/stm32f4xx_hal_pcd.c ****               if((epnum == 0) && (hpcd->OUT_ep[epnum].xfer_len == 0))
 700              		.loc 1 373 0
 701 00a4 3EB9     		cbnz	r6, .L43
 373:Drivers/STM32F4xx_HAL_Driver/Src/stm32f4xx_hal_pcd.c ****               if((epnum == 0) && (hpcd->OUT_ep[epnum].xfer_len == 0))
 702              		.loc 1 373 0 is_stmt 0 discriminator 1
 703 00a6 D4F8F031 		ldr	r3, [r4, #496]
 704 00aa 23B9     		cbnz	r3, .L43
 376:Drivers/STM32F4xx_HAL_Driver/Src/stm32f4xx_hal_pcd.c ****                 USB_EP0_OutStart(hpcd->Instance, 1, (uint8_t *)hpcd->Setup);
 705              		.loc 1 376 0 is_stmt 1
 706 00ac 2068     		ldr	r0, [r4]
 707 00ae 04F56172 		add	r2, r4, #900
 708 00b2 FFF7FEFF 		bl	USB_EP0_OutStart
 709              	.LVL60:
 710              	.L43:
 381:Drivers/STM32F4xx_HAL_Driver/Src/stm32f4xx_hal_pcd.c ****           if(( epint & USB_OTG_DOEPINT_STUP) == USB_OTG_DOEPINT_STUP)
 711              		.loc 1 381 0
 712 00b6 1AF0080F 		tst	r10, #8
 713 00ba 04D0     		beq	.L46
 384:Drivers/STM32F4xx_HAL_Driver/Src/stm32f4xx_hal_pcd.c ****             HAL_PCD_SetupStageCallback(hpcd);
 714              		.loc 1 384 0
 715 00bc 2046     		mov	r0, r4
 716 00be FFF7FEFF 		bl	HAL_PCD_SetupStageCallback
 717              	.LVL61:
 385:Drivers/STM32F4xx_HAL_Driver/Src/stm32f4xx_hal_pcd.c ****             CLEAR_OUT_EP_INTR(epnum, USB_OTG_DOEPINT_STUP);
 718              		.loc 1 385 0
 719 00c2 0823     		movs	r3, #8
 720 00c4 AB60     		str	r3, [r5, #8]
 721              	.L46:
 388:Drivers/STM32F4xx_HAL_Driver/Src/stm32f4xx_hal_pcd.c ****           if(( epint & USB_OTG_DOEPINT_OTEPDIS) == USB_OTG_DOEPINT_OTEPDIS)
 722              		.loc 1 388 0
 723 00c6 1AF0100F 		tst	r10, #16
 390:Drivers/STM32F4xx_HAL_Driver/Src/stm32f4xx_hal_pcd.c ****             CLEAR_OUT_EP_INTR(epnum, USB_OTG_DOEPINT_OTEPDIS);
 724              		.loc 1 390 0
 725 00ca 1CBF     		itt	ne
 726 00cc 1023     		movne	r3, #16
 727 00ce AB60     		strne	r3, [r5, #8]
 728              	.LVL62:
 729              	.L41:
 401:Drivers/STM32F4xx_HAL_Driver/Src/stm32f4xx_hal_pcd.c ****         epnum++;
 730              		.loc 1 401 0
 731 00d0 0136     		adds	r6, r6, #1
 732              	.LVL63:
 402:Drivers/STM32F4xx_HAL_Driver/Src/stm32f4xx_hal_pcd.c ****         ep_intr >>= 1;
 733              		.loc 1 402 0
 734 00d2 4FEA5909 		lsr	r9, r9, #1
 735              	.LVL64:
ARM GAS  /var/folders/19/rz7506jh8xn7x1006s6s574h0000gn/T//cceW6kab.s 			page 29


 736 00d6 2035     		adds	r5, r5, #32
 737 00d8 08F11C08 		add	r8, r8, #28
 738 00dc B9E7     		b	.L39
 739              	.LVL65:
 740              	.L91:
 328:Drivers/STM32F4xx_HAL_Driver/Src/stm32f4xx_hal_pcd.c ****   uint32_t i = 0, ep_intr = 0, epint = 0, epnum = 0;
 741              		.loc 1 328 0
 742 00de 0646     		mov	r6, r0
 743              	.LVL66:
 744              	.L38:
 406:Drivers/STM32F4xx_HAL_Driver/Src/stm32f4xx_hal_pcd.c ****     if(__HAL_PCD_GET_FLAG(hpcd, USB_OTG_GINTSTS_IEPINT))
 745              		.loc 1 406 0
 746 00e0 2068     		ldr	r0, [r4]
 747 00e2 FFF7FEFF 		bl	USB_ReadInterrupts
 748              	.LVL67:
 749 00e6 4303     		lsls	r3, r0, #13
 750 00e8 40F1AA80 		bpl	.L49
 409:Drivers/STM32F4xx_HAL_Driver/Src/stm32f4xx_hal_pcd.c ****       ep_intr = USB_ReadDevAllInEpInterrupt(hpcd->Instance);
 751              		.loc 1 409 0
 752 00ec 2068     		ldr	r0, [r4]
 753 00ee FFF7FEFF 		bl	USB_ReadDevAllInEpInterrupt
 754              	.LVL68:
 755 00f2 2546     		mov	r5, r4
 756 00f4 8246     		mov	r10, r0
 757              	.LVL69:
 758 00f6 07F51068 		add	r8, r7, #2304
 411:Drivers/STM32F4xx_HAL_Driver/Src/stm32f4xx_hal_pcd.c ****       epnum = 0;
 759              		.loc 1 411 0
 760 00fa 0026     		movs	r6, #0
 761              	.LVL70:
 762              	.L50:
 413:Drivers/STM32F4xx_HAL_Driver/Src/stm32f4xx_hal_pcd.c ****       while ( ep_intr )
 763              		.loc 1 413 0 discriminator 1
 764 00fc BAF1000F 		cmp	r10, #0
 765 0100 00F09E80 		beq	.L49
 415:Drivers/STM32F4xx_HAL_Driver/Src/stm32f4xx_hal_pcd.c ****         if (ep_intr & 0x1) /* In ITR */
 766              		.loc 1 415 0
 767 0104 1AF0010F 		tst	r10, #1
 768 0108 00F09380 		beq	.L52
 417:Drivers/STM32F4xx_HAL_Driver/Src/stm32f4xx_hal_pcd.c ****           epint = USB_ReadDevInEPInterrupt(hpcd->Instance, epnum);
 769              		.loc 1 417 0
 770 010c 5FFA86FB 		uxtb	fp, r6
 771 0110 2068     		ldr	r0, [r4]
 772 0112 5946     		mov	r1, fp
 773 0114 FFF7FEFF 		bl	USB_ReadDevInEPInterrupt
 774              	.LVL71:
 419:Drivers/STM32F4xx_HAL_Driver/Src/stm32f4xx_hal_pcd.c ****            if(( epint & USB_OTG_DIEPINT_XFRC) == USB_OTG_DIEPINT_XFRC)
 775              		.loc 1 419 0
 776 0118 10F0010F 		tst	r0, #1
 417:Drivers/STM32F4xx_HAL_Driver/Src/stm32f4xx_hal_pcd.c ****           epint = USB_ReadDevInEPInterrupt(hpcd->Instance, epnum);
 777              		.loc 1 417 0
 778 011c 8146     		mov	r9, r0
 779              	.LVL72:
 419:Drivers/STM32F4xx_HAL_Driver/Src/stm32f4xx_hal_pcd.c ****            if(( epint & USB_OTG_DIEPINT_XFRC) == USB_OTG_DIEPINT_XFRC)
 780              		.loc 1 419 0
 781 011e 20D0     		beq	.L54
 782              	.LVL73:
ARM GAS  /var/folders/19/rz7506jh8xn7x1006s6s574h0000gn/T//cceW6kab.s 			page 30


 422:Drivers/STM32F4xx_HAL_Driver/Src/stm32f4xx_hal_pcd.c ****             USBx_DEVICE->DIEPEMPMSK &= ~fifoemptymsk;
 783              		.loc 1 422 0
 784 0120 D7F83418 		ldr	r1, [r7, #2100]
 421:Drivers/STM32F4xx_HAL_Driver/Src/stm32f4xx_hal_pcd.c ****             fifoemptymsk = 0x1 << epnum;
 785              		.loc 1 421 0
 786 0124 0123     		movs	r3, #1
 787 0126 03FA06F0 		lsl	r0, r3, r6
 788              	.LVL74:
 422:Drivers/STM32F4xx_HAL_Driver/Src/stm32f4xx_hal_pcd.c ****             USBx_DEVICE->DIEPEMPMSK &= ~fifoemptymsk;
 789              		.loc 1 422 0
 790 012a 21EA0001 		bic	r1, r1, r0
 791 012e C7F83418 		str	r1, [r7, #2100]
 424:Drivers/STM32F4xx_HAL_Driver/Src/stm32f4xx_hal_pcd.c ****             CLEAR_IN_EP_INTR(epnum, USB_OTG_DIEPINT_XFRC);
 792              		.loc 1 424 0
 793 0132 C8F80830 		str	r3, [r8, #8]
 426:Drivers/STM32F4xx_HAL_Driver/Src/stm32f4xx_hal_pcd.c ****             if (hpcd->Init.dma_enable == 1)
 794              		.loc 1 426 0
 795 0136 2369     		ldr	r3, [r4, #16]
 796 0138 012B     		cmp	r3, #1
 797 013a 03D1     		bne	.L55
 428:Drivers/STM32F4xx_HAL_Driver/Src/stm32f4xx_hal_pcd.c ****               hpcd->IN_ep[epnum].xfer_buff += hpcd->IN_ep[epnum].maxpacket; 
 798              		.loc 1 428 0
 799 013c 6A6C     		ldr	r2, [r5, #68]
 800 013e 2B6C     		ldr	r3, [r5, #64]
 801 0140 1344     		add	r3, r3, r2
 802 0142 6B64     		str	r3, [r5, #68]
 803              	.L55:
 431:Drivers/STM32F4xx_HAL_Driver/Src/stm32f4xx_hal_pcd.c ****             HAL_PCD_DataInStageCallback(hpcd, epnum);
 804              		.loc 1 431 0
 805 0144 5946     		mov	r1, fp
 806 0146 2046     		mov	r0, r4
 807              	.LVL75:
 808 0148 FFF7FEFF 		bl	HAL_PCD_DataInStageCallback
 809              	.LVL76:
 433:Drivers/STM32F4xx_HAL_Driver/Src/stm32f4xx_hal_pcd.c ****             if (hpcd->Init.dma_enable == 1)
 810              		.loc 1 433 0
 811 014c 2169     		ldr	r1, [r4, #16]
 812 014e 0129     		cmp	r1, #1
 813 0150 07D1     		bne	.L54
 436:Drivers/STM32F4xx_HAL_Driver/Src/stm32f4xx_hal_pcd.c ****               if((epnum == 0) && (hpcd->IN_ep[epnum].xfer_len == 0))
 814              		.loc 1 436 0
 815 0152 36B9     		cbnz	r6, .L54
 436:Drivers/STM32F4xx_HAL_Driver/Src/stm32f4xx_hal_pcd.c ****               if((epnum == 0) && (hpcd->IN_ep[epnum].xfer_len == 0))
 816              		.loc 1 436 0 is_stmt 0 discriminator 1
 817 0154 E36C     		ldr	r3, [r4, #76]
 818 0156 23B9     		cbnz	r3, .L54
 439:Drivers/STM32F4xx_HAL_Driver/Src/stm32f4xx_hal_pcd.c ****                 USB_EP0_OutStart(hpcd->Instance, 1, (uint8_t *)hpcd->Setup);
 819              		.loc 1 439 0 is_stmt 1
 820 0158 2068     		ldr	r0, [r4]
 821 015a 04F56172 		add	r2, r4, #900
 822 015e FFF7FEFF 		bl	USB_EP0_OutStart
 823              	.LVL77:
 824              	.L54:
 443:Drivers/STM32F4xx_HAL_Driver/Src/stm32f4xx_hal_pcd.c ****            if(( epint & USB_OTG_DIEPINT_TOC) == USB_OTG_DIEPINT_TOC)
 825              		.loc 1 443 0
 826 0162 19F0080F 		tst	r9, #8
 445:Drivers/STM32F4xx_HAL_Driver/Src/stm32f4xx_hal_pcd.c ****             CLEAR_IN_EP_INTR(epnum, USB_OTG_DIEPINT_TOC);
ARM GAS  /var/folders/19/rz7506jh8xn7x1006s6s574h0000gn/T//cceW6kab.s 			page 31


 827              		.loc 1 445 0
 828 0166 1CBF     		itt	ne
 829 0168 0823     		movne	r3, #8
 830 016a C8F80830 		strne	r3, [r8, #8]
 447:Drivers/STM32F4xx_HAL_Driver/Src/stm32f4xx_hal_pcd.c ****           if(( epint & USB_OTG_DIEPINT_ITTXFE) == USB_OTG_DIEPINT_ITTXFE)
 831              		.loc 1 447 0
 832 016e 19F0100F 		tst	r9, #16
 449:Drivers/STM32F4xx_HAL_Driver/Src/stm32f4xx_hal_pcd.c ****             CLEAR_IN_EP_INTR(epnum, USB_OTG_DIEPINT_ITTXFE);
 833              		.loc 1 449 0
 834 0172 1CBF     		itt	ne
 835 0174 1023     		movne	r3, #16
 836 0176 C8F80830 		strne	r3, [r8, #8]
 451:Drivers/STM32F4xx_HAL_Driver/Src/stm32f4xx_hal_pcd.c ****           if(( epint & USB_OTG_DIEPINT_INEPNE) == USB_OTG_DIEPINT_INEPNE)
 837              		.loc 1 451 0
 838 017a 19F0400F 		tst	r9, #64
 453:Drivers/STM32F4xx_HAL_Driver/Src/stm32f4xx_hal_pcd.c ****             CLEAR_IN_EP_INTR(epnum, USB_OTG_DIEPINT_INEPNE);
 839              		.loc 1 453 0
 840 017e 1CBF     		itt	ne
 841 0180 4023     		movne	r3, #64
 842 0182 C8F80830 		strne	r3, [r8, #8]
 455:Drivers/STM32F4xx_HAL_Driver/Src/stm32f4xx_hal_pcd.c ****           if(( epint & USB_OTG_DIEPINT_EPDISD) == USB_OTG_DIEPINT_EPDISD)
 843              		.loc 1 455 0
 844 0186 19F0020F 		tst	r9, #2
 457:Drivers/STM32F4xx_HAL_Driver/Src/stm32f4xx_hal_pcd.c ****             CLEAR_IN_EP_INTR(epnum, USB_OTG_DIEPINT_EPDISD);
 845              		.loc 1 457 0
 846 018a 1CBF     		itt	ne
 847 018c 0223     		movne	r3, #2
 848 018e C8F80830 		strne	r3, [r8, #8]
 459:Drivers/STM32F4xx_HAL_Driver/Src/stm32f4xx_hal_pcd.c ****           if(( epint & USB_OTG_DIEPINT_TXFE) == USB_OTG_DIEPINT_TXFE)
 849              		.loc 1 459 0
 850 0192 19F0800F 		tst	r9, #128
 851 0196 4CD0     		beq	.L52
 852              	.LVL78:
 853              	.LBB4:
 854              	.LBB5:
 803:Drivers/STM32F4xx_HAL_Driver/Src/stm32f4xx_hal_pcd.c ****   /* Prevent unused argument(s) compilation warning */
 804:Drivers/STM32F4xx_HAL_Driver/Src/stm32f4xx_hal_pcd.c ****   UNUSED(hpcd);
 805:Drivers/STM32F4xx_HAL_Driver/Src/stm32f4xx_hal_pcd.c ****   /* NOTE : This function Should not be modified, when the callback is needed,
 806:Drivers/STM32F4xx_HAL_Driver/Src/stm32f4xx_hal_pcd.c ****             the HAL_PCD_DisconnectCallback could be implemented in the user file
 807:Drivers/STM32F4xx_HAL_Driver/Src/stm32f4xx_hal_pcd.c ****    */ 
 808:Drivers/STM32F4xx_HAL_Driver/Src/stm32f4xx_hal_pcd.c **** }
 809:Drivers/STM32F4xx_HAL_Driver/Src/stm32f4xx_hal_pcd.c **** 
 810:Drivers/STM32F4xx_HAL_Driver/Src/stm32f4xx_hal_pcd.c **** /**
 811:Drivers/STM32F4xx_HAL_Driver/Src/stm32f4xx_hal_pcd.c ****   * @}
 812:Drivers/STM32F4xx_HAL_Driver/Src/stm32f4xx_hal_pcd.c ****   */
 813:Drivers/STM32F4xx_HAL_Driver/Src/stm32f4xx_hal_pcd.c **** 
 814:Drivers/STM32F4xx_HAL_Driver/Src/stm32f4xx_hal_pcd.c **** /** @defgroup PCD_Exported_Functions_Group3 Peripheral Control functions
 815:Drivers/STM32F4xx_HAL_Driver/Src/stm32f4xx_hal_pcd.c ****  *  @brief   management functions
 816:Drivers/STM32F4xx_HAL_Driver/Src/stm32f4xx_hal_pcd.c ****  *
 817:Drivers/STM32F4xx_HAL_Driver/Src/stm32f4xx_hal_pcd.c **** @verbatim 
 818:Drivers/STM32F4xx_HAL_Driver/Src/stm32f4xx_hal_pcd.c ****  ===============================================================================
 819:Drivers/STM32F4xx_HAL_Driver/Src/stm32f4xx_hal_pcd.c ****                       ##### Peripheral Control functions #####
 820:Drivers/STM32F4xx_HAL_Driver/Src/stm32f4xx_hal_pcd.c ****  ===============================================================================  
 821:Drivers/STM32F4xx_HAL_Driver/Src/stm32f4xx_hal_pcd.c ****     [..]
 822:Drivers/STM32F4xx_HAL_Driver/Src/stm32f4xx_hal_pcd.c ****     This subsection provides a set of functions allowing to control the PCD data 
 823:Drivers/STM32F4xx_HAL_Driver/Src/stm32f4xx_hal_pcd.c ****     transfers.
 824:Drivers/STM32F4xx_HAL_Driver/Src/stm32f4xx_hal_pcd.c **** 
ARM GAS  /var/folders/19/rz7506jh8xn7x1006s6s574h0000gn/T//cceW6kab.s 			page 32


 825:Drivers/STM32F4xx_HAL_Driver/Src/stm32f4xx_hal_pcd.c **** @endverbatim
 826:Drivers/STM32F4xx_HAL_Driver/Src/stm32f4xx_hal_pcd.c ****   * @{
 827:Drivers/STM32F4xx_HAL_Driver/Src/stm32f4xx_hal_pcd.c ****   */
 828:Drivers/STM32F4xx_HAL_Driver/Src/stm32f4xx_hal_pcd.c **** 
 829:Drivers/STM32F4xx_HAL_Driver/Src/stm32f4xx_hal_pcd.c **** /**
 830:Drivers/STM32F4xx_HAL_Driver/Src/stm32f4xx_hal_pcd.c ****   * @brief  Connect the USB device.
 831:Drivers/STM32F4xx_HAL_Driver/Src/stm32f4xx_hal_pcd.c ****   * @param  hpcd: PCD handle
 832:Drivers/STM32F4xx_HAL_Driver/Src/stm32f4xx_hal_pcd.c ****   * @retval HAL status
 833:Drivers/STM32F4xx_HAL_Driver/Src/stm32f4xx_hal_pcd.c ****   */
 834:Drivers/STM32F4xx_HAL_Driver/Src/stm32f4xx_hal_pcd.c **** HAL_StatusTypeDef HAL_PCD_DevConnect(PCD_HandleTypeDef *hpcd)
 835:Drivers/STM32F4xx_HAL_Driver/Src/stm32f4xx_hal_pcd.c **** {
 836:Drivers/STM32F4xx_HAL_Driver/Src/stm32f4xx_hal_pcd.c ****   __HAL_LOCK(hpcd); 
 837:Drivers/STM32F4xx_HAL_Driver/Src/stm32f4xx_hal_pcd.c ****   USB_DevConnect(hpcd->Instance);
 838:Drivers/STM32F4xx_HAL_Driver/Src/stm32f4xx_hal_pcd.c ****   __HAL_UNLOCK(hpcd); 
 839:Drivers/STM32F4xx_HAL_Driver/Src/stm32f4xx_hal_pcd.c ****   return HAL_OK;
 840:Drivers/STM32F4xx_HAL_Driver/Src/stm32f4xx_hal_pcd.c **** }
 841:Drivers/STM32F4xx_HAL_Driver/Src/stm32f4xx_hal_pcd.c **** 
 842:Drivers/STM32F4xx_HAL_Driver/Src/stm32f4xx_hal_pcd.c **** /**
 843:Drivers/STM32F4xx_HAL_Driver/Src/stm32f4xx_hal_pcd.c ****   * @brief  Disconnect the USB device.
 844:Drivers/STM32F4xx_HAL_Driver/Src/stm32f4xx_hal_pcd.c ****   * @param  hpcd: PCD handle
 845:Drivers/STM32F4xx_HAL_Driver/Src/stm32f4xx_hal_pcd.c ****   * @retval HAL status
 846:Drivers/STM32F4xx_HAL_Driver/Src/stm32f4xx_hal_pcd.c ****   */
 847:Drivers/STM32F4xx_HAL_Driver/Src/stm32f4xx_hal_pcd.c **** HAL_StatusTypeDef HAL_PCD_DevDisconnect(PCD_HandleTypeDef *hpcd)
 848:Drivers/STM32F4xx_HAL_Driver/Src/stm32f4xx_hal_pcd.c **** {
 849:Drivers/STM32F4xx_HAL_Driver/Src/stm32f4xx_hal_pcd.c ****   __HAL_LOCK(hpcd); 
 850:Drivers/STM32F4xx_HAL_Driver/Src/stm32f4xx_hal_pcd.c ****   USB_DevDisconnect(hpcd->Instance);
 851:Drivers/STM32F4xx_HAL_Driver/Src/stm32f4xx_hal_pcd.c ****   __HAL_UNLOCK(hpcd); 
 852:Drivers/STM32F4xx_HAL_Driver/Src/stm32f4xx_hal_pcd.c ****   return HAL_OK;
 853:Drivers/STM32F4xx_HAL_Driver/Src/stm32f4xx_hal_pcd.c **** }
 854:Drivers/STM32F4xx_HAL_Driver/Src/stm32f4xx_hal_pcd.c **** 
 855:Drivers/STM32F4xx_HAL_Driver/Src/stm32f4xx_hal_pcd.c **** /**
 856:Drivers/STM32F4xx_HAL_Driver/Src/stm32f4xx_hal_pcd.c ****   * @brief  Set the USB Device address. 
 857:Drivers/STM32F4xx_HAL_Driver/Src/stm32f4xx_hal_pcd.c ****   * @param  hpcd: PCD handle
 858:Drivers/STM32F4xx_HAL_Driver/Src/stm32f4xx_hal_pcd.c ****   * @param  address: new device address
 859:Drivers/STM32F4xx_HAL_Driver/Src/stm32f4xx_hal_pcd.c ****   * @retval HAL status
 860:Drivers/STM32F4xx_HAL_Driver/Src/stm32f4xx_hal_pcd.c ****   */
 861:Drivers/STM32F4xx_HAL_Driver/Src/stm32f4xx_hal_pcd.c **** HAL_StatusTypeDef HAL_PCD_SetAddress(PCD_HandleTypeDef *hpcd, uint8_t address)
 862:Drivers/STM32F4xx_HAL_Driver/Src/stm32f4xx_hal_pcd.c **** {
 863:Drivers/STM32F4xx_HAL_Driver/Src/stm32f4xx_hal_pcd.c ****   __HAL_LOCK(hpcd); 
 864:Drivers/STM32F4xx_HAL_Driver/Src/stm32f4xx_hal_pcd.c ****   USB_SetDevAddress(hpcd->Instance, address);
 865:Drivers/STM32F4xx_HAL_Driver/Src/stm32f4xx_hal_pcd.c ****   __HAL_UNLOCK(hpcd);   
 866:Drivers/STM32F4xx_HAL_Driver/Src/stm32f4xx_hal_pcd.c ****   return HAL_OK;
 867:Drivers/STM32F4xx_HAL_Driver/Src/stm32f4xx_hal_pcd.c **** }
 868:Drivers/STM32F4xx_HAL_Driver/Src/stm32f4xx_hal_pcd.c **** /**
 869:Drivers/STM32F4xx_HAL_Driver/Src/stm32f4xx_hal_pcd.c ****   * @brief  Open and configure an endpoint.
 870:Drivers/STM32F4xx_HAL_Driver/Src/stm32f4xx_hal_pcd.c ****   * @param  hpcd: PCD handle
 871:Drivers/STM32F4xx_HAL_Driver/Src/stm32f4xx_hal_pcd.c ****   * @param  ep_addr: endpoint address
 872:Drivers/STM32F4xx_HAL_Driver/Src/stm32f4xx_hal_pcd.c ****   * @param  ep_mps: endpoint max packet size
 873:Drivers/STM32F4xx_HAL_Driver/Src/stm32f4xx_hal_pcd.c ****   * @param  ep_type: endpoint type   
 874:Drivers/STM32F4xx_HAL_Driver/Src/stm32f4xx_hal_pcd.c ****   * @retval HAL status
 875:Drivers/STM32F4xx_HAL_Driver/Src/stm32f4xx_hal_pcd.c ****   */
 876:Drivers/STM32F4xx_HAL_Driver/Src/stm32f4xx_hal_pcd.c **** HAL_StatusTypeDef HAL_PCD_EP_Open(PCD_HandleTypeDef *hpcd, uint8_t ep_addr, uint16_t ep_mps, uint8_
 877:Drivers/STM32F4xx_HAL_Driver/Src/stm32f4xx_hal_pcd.c **** {
 878:Drivers/STM32F4xx_HAL_Driver/Src/stm32f4xx_hal_pcd.c ****   HAL_StatusTypeDef  ret = HAL_OK;
 879:Drivers/STM32F4xx_HAL_Driver/Src/stm32f4xx_hal_pcd.c ****   USB_OTG_EPTypeDef *ep;
 880:Drivers/STM32F4xx_HAL_Driver/Src/stm32f4xx_hal_pcd.c ****   
 881:Drivers/STM32F4xx_HAL_Driver/Src/stm32f4xx_hal_pcd.c ****   if ((ep_addr & 0x80) == 0x80)
ARM GAS  /var/folders/19/rz7506jh8xn7x1006s6s574h0000gn/T//cceW6kab.s 			page 33


 882:Drivers/STM32F4xx_HAL_Driver/Src/stm32f4xx_hal_pcd.c ****   {
 883:Drivers/STM32F4xx_HAL_Driver/Src/stm32f4xx_hal_pcd.c ****     ep = &hpcd->IN_ep[ep_addr & 0x7F];
 884:Drivers/STM32F4xx_HAL_Driver/Src/stm32f4xx_hal_pcd.c ****   }
 885:Drivers/STM32F4xx_HAL_Driver/Src/stm32f4xx_hal_pcd.c ****   else
 886:Drivers/STM32F4xx_HAL_Driver/Src/stm32f4xx_hal_pcd.c ****   {
 887:Drivers/STM32F4xx_HAL_Driver/Src/stm32f4xx_hal_pcd.c ****     ep = &hpcd->OUT_ep[ep_addr & 0x7F];
 888:Drivers/STM32F4xx_HAL_Driver/Src/stm32f4xx_hal_pcd.c ****   }
 889:Drivers/STM32F4xx_HAL_Driver/Src/stm32f4xx_hal_pcd.c ****   ep->num   = ep_addr & 0x7F;
 890:Drivers/STM32F4xx_HAL_Driver/Src/stm32f4xx_hal_pcd.c ****   
 891:Drivers/STM32F4xx_HAL_Driver/Src/stm32f4xx_hal_pcd.c ****   ep->is_in = (0x80 & ep_addr) != 0;
 892:Drivers/STM32F4xx_HAL_Driver/Src/stm32f4xx_hal_pcd.c ****   ep->maxpacket = ep_mps;
 893:Drivers/STM32F4xx_HAL_Driver/Src/stm32f4xx_hal_pcd.c ****   ep->type = ep_type;
 894:Drivers/STM32F4xx_HAL_Driver/Src/stm32f4xx_hal_pcd.c ****   if (ep->is_in)
 895:Drivers/STM32F4xx_HAL_Driver/Src/stm32f4xx_hal_pcd.c ****   {
 896:Drivers/STM32F4xx_HAL_Driver/Src/stm32f4xx_hal_pcd.c ****     /* Assign a Tx FIFO */
 897:Drivers/STM32F4xx_HAL_Driver/Src/stm32f4xx_hal_pcd.c ****     ep->tx_fifo_num = ep->num;
 898:Drivers/STM32F4xx_HAL_Driver/Src/stm32f4xx_hal_pcd.c ****   }
 899:Drivers/STM32F4xx_HAL_Driver/Src/stm32f4xx_hal_pcd.c ****   /* Set initial data PID. */
 900:Drivers/STM32F4xx_HAL_Driver/Src/stm32f4xx_hal_pcd.c ****   if (ep_type == EP_TYPE_BULK )
 901:Drivers/STM32F4xx_HAL_Driver/Src/stm32f4xx_hal_pcd.c ****   {
 902:Drivers/STM32F4xx_HAL_Driver/Src/stm32f4xx_hal_pcd.c ****     ep->data_pid_start = 0;
 903:Drivers/STM32F4xx_HAL_Driver/Src/stm32f4xx_hal_pcd.c ****   }
 904:Drivers/STM32F4xx_HAL_Driver/Src/stm32f4xx_hal_pcd.c ****   
 905:Drivers/STM32F4xx_HAL_Driver/Src/stm32f4xx_hal_pcd.c ****   __HAL_LOCK(hpcd); 
 906:Drivers/STM32F4xx_HAL_Driver/Src/stm32f4xx_hal_pcd.c ****   USB_ActivateEndpoint(hpcd->Instance , ep);
 907:Drivers/STM32F4xx_HAL_Driver/Src/stm32f4xx_hal_pcd.c ****   __HAL_UNLOCK(hpcd);   
 908:Drivers/STM32F4xx_HAL_Driver/Src/stm32f4xx_hal_pcd.c ****   return ret;
 909:Drivers/STM32F4xx_HAL_Driver/Src/stm32f4xx_hal_pcd.c **** }
 910:Drivers/STM32F4xx_HAL_Driver/Src/stm32f4xx_hal_pcd.c **** 
 911:Drivers/STM32F4xx_HAL_Driver/Src/stm32f4xx_hal_pcd.c **** 
 912:Drivers/STM32F4xx_HAL_Driver/Src/stm32f4xx_hal_pcd.c **** /**
 913:Drivers/STM32F4xx_HAL_Driver/Src/stm32f4xx_hal_pcd.c ****   * @brief  Deactivate an endpoint.
 914:Drivers/STM32F4xx_HAL_Driver/Src/stm32f4xx_hal_pcd.c ****   * @param  hpcd: PCD handle
 915:Drivers/STM32F4xx_HAL_Driver/Src/stm32f4xx_hal_pcd.c ****   * @param  ep_addr: endpoint address
 916:Drivers/STM32F4xx_HAL_Driver/Src/stm32f4xx_hal_pcd.c ****   * @retval HAL status
 917:Drivers/STM32F4xx_HAL_Driver/Src/stm32f4xx_hal_pcd.c ****   */
 918:Drivers/STM32F4xx_HAL_Driver/Src/stm32f4xx_hal_pcd.c **** HAL_StatusTypeDef HAL_PCD_EP_Close(PCD_HandleTypeDef *hpcd, uint8_t ep_addr)
 919:Drivers/STM32F4xx_HAL_Driver/Src/stm32f4xx_hal_pcd.c **** {  
 920:Drivers/STM32F4xx_HAL_Driver/Src/stm32f4xx_hal_pcd.c ****   USB_OTG_EPTypeDef *ep;
 921:Drivers/STM32F4xx_HAL_Driver/Src/stm32f4xx_hal_pcd.c ****   
 922:Drivers/STM32F4xx_HAL_Driver/Src/stm32f4xx_hal_pcd.c ****   if ((ep_addr & 0x80) == 0x80)
 923:Drivers/STM32F4xx_HAL_Driver/Src/stm32f4xx_hal_pcd.c ****   {
 924:Drivers/STM32F4xx_HAL_Driver/Src/stm32f4xx_hal_pcd.c ****     ep = &hpcd->IN_ep[ep_addr & 0x7F];
 925:Drivers/STM32F4xx_HAL_Driver/Src/stm32f4xx_hal_pcd.c ****   }
 926:Drivers/STM32F4xx_HAL_Driver/Src/stm32f4xx_hal_pcd.c ****   else
 927:Drivers/STM32F4xx_HAL_Driver/Src/stm32f4xx_hal_pcd.c ****   {
 928:Drivers/STM32F4xx_HAL_Driver/Src/stm32f4xx_hal_pcd.c ****     ep = &hpcd->OUT_ep[ep_addr & 0x7F];
 929:Drivers/STM32F4xx_HAL_Driver/Src/stm32f4xx_hal_pcd.c ****   }
 930:Drivers/STM32F4xx_HAL_Driver/Src/stm32f4xx_hal_pcd.c ****   ep->num   = ep_addr & 0x7F;
 931:Drivers/STM32F4xx_HAL_Driver/Src/stm32f4xx_hal_pcd.c ****   
 932:Drivers/STM32F4xx_HAL_Driver/Src/stm32f4xx_hal_pcd.c ****   ep->is_in = (0x80 & ep_addr) != 0;
 933:Drivers/STM32F4xx_HAL_Driver/Src/stm32f4xx_hal_pcd.c ****   
 934:Drivers/STM32F4xx_HAL_Driver/Src/stm32f4xx_hal_pcd.c ****   __HAL_LOCK(hpcd); 
 935:Drivers/STM32F4xx_HAL_Driver/Src/stm32f4xx_hal_pcd.c ****   USB_DeactivateEndpoint(hpcd->Instance , ep);
 936:Drivers/STM32F4xx_HAL_Driver/Src/stm32f4xx_hal_pcd.c ****   __HAL_UNLOCK(hpcd);   
 937:Drivers/STM32F4xx_HAL_Driver/Src/stm32f4xx_hal_pcd.c ****   return HAL_OK;
 938:Drivers/STM32F4xx_HAL_Driver/Src/stm32f4xx_hal_pcd.c **** }
ARM GAS  /var/folders/19/rz7506jh8xn7x1006s6s574h0000gn/T//cceW6kab.s 			page 34


 939:Drivers/STM32F4xx_HAL_Driver/Src/stm32f4xx_hal_pcd.c **** 
 940:Drivers/STM32F4xx_HAL_Driver/Src/stm32f4xx_hal_pcd.c **** 
 941:Drivers/STM32F4xx_HAL_Driver/Src/stm32f4xx_hal_pcd.c **** /**
 942:Drivers/STM32F4xx_HAL_Driver/Src/stm32f4xx_hal_pcd.c ****   * @brief  Receive an amount of data.  
 943:Drivers/STM32F4xx_HAL_Driver/Src/stm32f4xx_hal_pcd.c ****   * @param  hpcd: PCD handle
 944:Drivers/STM32F4xx_HAL_Driver/Src/stm32f4xx_hal_pcd.c ****   * @param  ep_addr: endpoint address
 945:Drivers/STM32F4xx_HAL_Driver/Src/stm32f4xx_hal_pcd.c ****   * @param  pBuf: pointer to the reception buffer   
 946:Drivers/STM32F4xx_HAL_Driver/Src/stm32f4xx_hal_pcd.c ****   * @param  len: amount of data to be received
 947:Drivers/STM32F4xx_HAL_Driver/Src/stm32f4xx_hal_pcd.c ****   * @retval HAL status
 948:Drivers/STM32F4xx_HAL_Driver/Src/stm32f4xx_hal_pcd.c ****   */
 949:Drivers/STM32F4xx_HAL_Driver/Src/stm32f4xx_hal_pcd.c **** HAL_StatusTypeDef HAL_PCD_EP_Receive(PCD_HandleTypeDef *hpcd, uint8_t ep_addr, uint8_t *pBuf, uint3
 950:Drivers/STM32F4xx_HAL_Driver/Src/stm32f4xx_hal_pcd.c **** {
 951:Drivers/STM32F4xx_HAL_Driver/Src/stm32f4xx_hal_pcd.c ****   USB_OTG_EPTypeDef *ep;
 952:Drivers/STM32F4xx_HAL_Driver/Src/stm32f4xx_hal_pcd.c ****   
 953:Drivers/STM32F4xx_HAL_Driver/Src/stm32f4xx_hal_pcd.c ****   ep = &hpcd->OUT_ep[ep_addr & 0x7F];
 954:Drivers/STM32F4xx_HAL_Driver/Src/stm32f4xx_hal_pcd.c ****   
 955:Drivers/STM32F4xx_HAL_Driver/Src/stm32f4xx_hal_pcd.c ****   /*setup and start the Xfer */
 956:Drivers/STM32F4xx_HAL_Driver/Src/stm32f4xx_hal_pcd.c ****   ep->xfer_buff = pBuf;  
 957:Drivers/STM32F4xx_HAL_Driver/Src/stm32f4xx_hal_pcd.c ****   ep->xfer_len = len;
 958:Drivers/STM32F4xx_HAL_Driver/Src/stm32f4xx_hal_pcd.c ****   ep->xfer_count = 0;
 959:Drivers/STM32F4xx_HAL_Driver/Src/stm32f4xx_hal_pcd.c ****   ep->is_in = 0;
 960:Drivers/STM32F4xx_HAL_Driver/Src/stm32f4xx_hal_pcd.c ****   ep->num = ep_addr & 0x7F;
 961:Drivers/STM32F4xx_HAL_Driver/Src/stm32f4xx_hal_pcd.c ****   
 962:Drivers/STM32F4xx_HAL_Driver/Src/stm32f4xx_hal_pcd.c ****   if (hpcd->Init.dma_enable == 1)
 963:Drivers/STM32F4xx_HAL_Driver/Src/stm32f4xx_hal_pcd.c ****   {
 964:Drivers/STM32F4xx_HAL_Driver/Src/stm32f4xx_hal_pcd.c ****     ep->dma_addr = (uint32_t)pBuf;  
 965:Drivers/STM32F4xx_HAL_Driver/Src/stm32f4xx_hal_pcd.c ****   }
 966:Drivers/STM32F4xx_HAL_Driver/Src/stm32f4xx_hal_pcd.c ****   
 967:Drivers/STM32F4xx_HAL_Driver/Src/stm32f4xx_hal_pcd.c ****   __HAL_LOCK(hpcd); 
 968:Drivers/STM32F4xx_HAL_Driver/Src/stm32f4xx_hal_pcd.c ****   
 969:Drivers/STM32F4xx_HAL_Driver/Src/stm32f4xx_hal_pcd.c ****   if ((ep_addr & 0x7F) == 0 )
 970:Drivers/STM32F4xx_HAL_Driver/Src/stm32f4xx_hal_pcd.c ****   {
 971:Drivers/STM32F4xx_HAL_Driver/Src/stm32f4xx_hal_pcd.c ****     USB_EP0StartXfer(hpcd->Instance , ep, hpcd->Init.dma_enable);
 972:Drivers/STM32F4xx_HAL_Driver/Src/stm32f4xx_hal_pcd.c ****   }
 973:Drivers/STM32F4xx_HAL_Driver/Src/stm32f4xx_hal_pcd.c ****   else
 974:Drivers/STM32F4xx_HAL_Driver/Src/stm32f4xx_hal_pcd.c ****   {
 975:Drivers/STM32F4xx_HAL_Driver/Src/stm32f4xx_hal_pcd.c ****     USB_EPStartXfer(hpcd->Instance , ep, hpcd->Init.dma_enable);
 976:Drivers/STM32F4xx_HAL_Driver/Src/stm32f4xx_hal_pcd.c ****   }
 977:Drivers/STM32F4xx_HAL_Driver/Src/stm32f4xx_hal_pcd.c ****   __HAL_UNLOCK(hpcd); 
 978:Drivers/STM32F4xx_HAL_Driver/Src/stm32f4xx_hal_pcd.c ****   
 979:Drivers/STM32F4xx_HAL_Driver/Src/stm32f4xx_hal_pcd.c ****   return HAL_OK;
 980:Drivers/STM32F4xx_HAL_Driver/Src/stm32f4xx_hal_pcd.c **** }
 981:Drivers/STM32F4xx_HAL_Driver/Src/stm32f4xx_hal_pcd.c **** 
 982:Drivers/STM32F4xx_HAL_Driver/Src/stm32f4xx_hal_pcd.c **** /**
 983:Drivers/STM32F4xx_HAL_Driver/Src/stm32f4xx_hal_pcd.c ****   * @brief  Get Received Data Size.
 984:Drivers/STM32F4xx_HAL_Driver/Src/stm32f4xx_hal_pcd.c ****   * @param  hpcd: PCD handle
 985:Drivers/STM32F4xx_HAL_Driver/Src/stm32f4xx_hal_pcd.c ****   * @param  ep_addr: endpoint address
 986:Drivers/STM32F4xx_HAL_Driver/Src/stm32f4xx_hal_pcd.c ****   * @retval Data Size
 987:Drivers/STM32F4xx_HAL_Driver/Src/stm32f4xx_hal_pcd.c ****   */
 988:Drivers/STM32F4xx_HAL_Driver/Src/stm32f4xx_hal_pcd.c **** uint16_t HAL_PCD_EP_GetRxCount(PCD_HandleTypeDef *hpcd, uint8_t ep_addr)
 989:Drivers/STM32F4xx_HAL_Driver/Src/stm32f4xx_hal_pcd.c **** {
 990:Drivers/STM32F4xx_HAL_Driver/Src/stm32f4xx_hal_pcd.c ****   return hpcd->OUT_ep[ep_addr & 0x7F].xfer_count;
 991:Drivers/STM32F4xx_HAL_Driver/Src/stm32f4xx_hal_pcd.c **** }
 992:Drivers/STM32F4xx_HAL_Driver/Src/stm32f4xx_hal_pcd.c **** /**
 993:Drivers/STM32F4xx_HAL_Driver/Src/stm32f4xx_hal_pcd.c ****   * @brief  Send an amount of data.  
 994:Drivers/STM32F4xx_HAL_Driver/Src/stm32f4xx_hal_pcd.c ****   * @param  hpcd: PCD handle
 995:Drivers/STM32F4xx_HAL_Driver/Src/stm32f4xx_hal_pcd.c ****   * @param  ep_addr: endpoint address
ARM GAS  /var/folders/19/rz7506jh8xn7x1006s6s574h0000gn/T//cceW6kab.s 			page 35


 996:Drivers/STM32F4xx_HAL_Driver/Src/stm32f4xx_hal_pcd.c ****   * @param  pBuf: pointer to the transmission buffer   
 997:Drivers/STM32F4xx_HAL_Driver/Src/stm32f4xx_hal_pcd.c ****   * @param  len: amount of data to be sent
 998:Drivers/STM32F4xx_HAL_Driver/Src/stm32f4xx_hal_pcd.c ****   * @retval HAL status
 999:Drivers/STM32F4xx_HAL_Driver/Src/stm32f4xx_hal_pcd.c ****   */
1000:Drivers/STM32F4xx_HAL_Driver/Src/stm32f4xx_hal_pcd.c **** HAL_StatusTypeDef HAL_PCD_EP_Transmit(PCD_HandleTypeDef *hpcd, uint8_t ep_addr, uint8_t *pBuf, uint
1001:Drivers/STM32F4xx_HAL_Driver/Src/stm32f4xx_hal_pcd.c **** {
1002:Drivers/STM32F4xx_HAL_Driver/Src/stm32f4xx_hal_pcd.c ****   USB_OTG_EPTypeDef *ep;
1003:Drivers/STM32F4xx_HAL_Driver/Src/stm32f4xx_hal_pcd.c ****   
1004:Drivers/STM32F4xx_HAL_Driver/Src/stm32f4xx_hal_pcd.c ****   ep = &hpcd->IN_ep[ep_addr & 0x7F];
1005:Drivers/STM32F4xx_HAL_Driver/Src/stm32f4xx_hal_pcd.c ****   
1006:Drivers/STM32F4xx_HAL_Driver/Src/stm32f4xx_hal_pcd.c ****   /*setup and start the Xfer */
1007:Drivers/STM32F4xx_HAL_Driver/Src/stm32f4xx_hal_pcd.c ****   ep->xfer_buff = pBuf;  
1008:Drivers/STM32F4xx_HAL_Driver/Src/stm32f4xx_hal_pcd.c ****   ep->xfer_len = len;
1009:Drivers/STM32F4xx_HAL_Driver/Src/stm32f4xx_hal_pcd.c ****   ep->xfer_count = 0;
1010:Drivers/STM32F4xx_HAL_Driver/Src/stm32f4xx_hal_pcd.c ****   ep->is_in = 1;
1011:Drivers/STM32F4xx_HAL_Driver/Src/stm32f4xx_hal_pcd.c ****   ep->num = ep_addr & 0x7F;
1012:Drivers/STM32F4xx_HAL_Driver/Src/stm32f4xx_hal_pcd.c ****   
1013:Drivers/STM32F4xx_HAL_Driver/Src/stm32f4xx_hal_pcd.c ****   if (hpcd->Init.dma_enable == 1)
1014:Drivers/STM32F4xx_HAL_Driver/Src/stm32f4xx_hal_pcd.c ****   {
1015:Drivers/STM32F4xx_HAL_Driver/Src/stm32f4xx_hal_pcd.c ****     ep->dma_addr = (uint32_t)pBuf;  
1016:Drivers/STM32F4xx_HAL_Driver/Src/stm32f4xx_hal_pcd.c ****   }
1017:Drivers/STM32F4xx_HAL_Driver/Src/stm32f4xx_hal_pcd.c ****   
1018:Drivers/STM32F4xx_HAL_Driver/Src/stm32f4xx_hal_pcd.c ****   __HAL_LOCK(hpcd); 
1019:Drivers/STM32F4xx_HAL_Driver/Src/stm32f4xx_hal_pcd.c ****   
1020:Drivers/STM32F4xx_HAL_Driver/Src/stm32f4xx_hal_pcd.c ****   if ((ep_addr & 0x7F) == 0 )
1021:Drivers/STM32F4xx_HAL_Driver/Src/stm32f4xx_hal_pcd.c ****   {
1022:Drivers/STM32F4xx_HAL_Driver/Src/stm32f4xx_hal_pcd.c ****     USB_EP0StartXfer(hpcd->Instance , ep, hpcd->Init.dma_enable);
1023:Drivers/STM32F4xx_HAL_Driver/Src/stm32f4xx_hal_pcd.c ****   }
1024:Drivers/STM32F4xx_HAL_Driver/Src/stm32f4xx_hal_pcd.c ****   else
1025:Drivers/STM32F4xx_HAL_Driver/Src/stm32f4xx_hal_pcd.c ****   {
1026:Drivers/STM32F4xx_HAL_Driver/Src/stm32f4xx_hal_pcd.c ****     USB_EPStartXfer(hpcd->Instance , ep, hpcd->Init.dma_enable);
1027:Drivers/STM32F4xx_HAL_Driver/Src/stm32f4xx_hal_pcd.c ****   }
1028:Drivers/STM32F4xx_HAL_Driver/Src/stm32f4xx_hal_pcd.c ****   
1029:Drivers/STM32F4xx_HAL_Driver/Src/stm32f4xx_hal_pcd.c ****   __HAL_UNLOCK(hpcd);
1030:Drivers/STM32F4xx_HAL_Driver/Src/stm32f4xx_hal_pcd.c ****      
1031:Drivers/STM32F4xx_HAL_Driver/Src/stm32f4xx_hal_pcd.c ****   return HAL_OK;
1032:Drivers/STM32F4xx_HAL_Driver/Src/stm32f4xx_hal_pcd.c **** }
1033:Drivers/STM32F4xx_HAL_Driver/Src/stm32f4xx_hal_pcd.c **** 
1034:Drivers/STM32F4xx_HAL_Driver/Src/stm32f4xx_hal_pcd.c **** /**
1035:Drivers/STM32F4xx_HAL_Driver/Src/stm32f4xx_hal_pcd.c ****   * @brief  Set a STALL condition over an endpoint.
1036:Drivers/STM32F4xx_HAL_Driver/Src/stm32f4xx_hal_pcd.c ****   * @param  hpcd: PCD handle
1037:Drivers/STM32F4xx_HAL_Driver/Src/stm32f4xx_hal_pcd.c ****   * @param  ep_addr: endpoint address
1038:Drivers/STM32F4xx_HAL_Driver/Src/stm32f4xx_hal_pcd.c ****   * @retval HAL status
1039:Drivers/STM32F4xx_HAL_Driver/Src/stm32f4xx_hal_pcd.c ****   */
1040:Drivers/STM32F4xx_HAL_Driver/Src/stm32f4xx_hal_pcd.c **** HAL_StatusTypeDef HAL_PCD_EP_SetStall(PCD_HandleTypeDef *hpcd, uint8_t ep_addr)
1041:Drivers/STM32F4xx_HAL_Driver/Src/stm32f4xx_hal_pcd.c **** {
1042:Drivers/STM32F4xx_HAL_Driver/Src/stm32f4xx_hal_pcd.c ****   USB_OTG_EPTypeDef *ep;
1043:Drivers/STM32F4xx_HAL_Driver/Src/stm32f4xx_hal_pcd.c ****   
1044:Drivers/STM32F4xx_HAL_Driver/Src/stm32f4xx_hal_pcd.c ****   if ((0x80 & ep_addr) == 0x80)
1045:Drivers/STM32F4xx_HAL_Driver/Src/stm32f4xx_hal_pcd.c ****   {
1046:Drivers/STM32F4xx_HAL_Driver/Src/stm32f4xx_hal_pcd.c ****     ep = &hpcd->IN_ep[ep_addr & 0x7F];
1047:Drivers/STM32F4xx_HAL_Driver/Src/stm32f4xx_hal_pcd.c ****   }
1048:Drivers/STM32F4xx_HAL_Driver/Src/stm32f4xx_hal_pcd.c ****   else
1049:Drivers/STM32F4xx_HAL_Driver/Src/stm32f4xx_hal_pcd.c ****   {
1050:Drivers/STM32F4xx_HAL_Driver/Src/stm32f4xx_hal_pcd.c ****     ep = &hpcd->OUT_ep[ep_addr];
1051:Drivers/STM32F4xx_HAL_Driver/Src/stm32f4xx_hal_pcd.c ****   }
1052:Drivers/STM32F4xx_HAL_Driver/Src/stm32f4xx_hal_pcd.c ****   
ARM GAS  /var/folders/19/rz7506jh8xn7x1006s6s574h0000gn/T//cceW6kab.s 			page 36


1053:Drivers/STM32F4xx_HAL_Driver/Src/stm32f4xx_hal_pcd.c ****   ep->is_stall = 1;
1054:Drivers/STM32F4xx_HAL_Driver/Src/stm32f4xx_hal_pcd.c ****   ep->num   = ep_addr & 0x7F;
1055:Drivers/STM32F4xx_HAL_Driver/Src/stm32f4xx_hal_pcd.c ****   ep->is_in = ((ep_addr & 0x80) == 0x80);
1056:Drivers/STM32F4xx_HAL_Driver/Src/stm32f4xx_hal_pcd.c ****   
1057:Drivers/STM32F4xx_HAL_Driver/Src/stm32f4xx_hal_pcd.c ****   
1058:Drivers/STM32F4xx_HAL_Driver/Src/stm32f4xx_hal_pcd.c ****   __HAL_LOCK(hpcd); 
1059:Drivers/STM32F4xx_HAL_Driver/Src/stm32f4xx_hal_pcd.c ****   USB_EPSetStall(hpcd->Instance , ep);
1060:Drivers/STM32F4xx_HAL_Driver/Src/stm32f4xx_hal_pcd.c ****   if((ep_addr & 0x7F) == 0)
1061:Drivers/STM32F4xx_HAL_Driver/Src/stm32f4xx_hal_pcd.c ****   {
1062:Drivers/STM32F4xx_HAL_Driver/Src/stm32f4xx_hal_pcd.c ****     USB_EP0_OutStart(hpcd->Instance, hpcd->Init.dma_enable, (uint8_t *)hpcd->Setup);
1063:Drivers/STM32F4xx_HAL_Driver/Src/stm32f4xx_hal_pcd.c ****   }
1064:Drivers/STM32F4xx_HAL_Driver/Src/stm32f4xx_hal_pcd.c ****   __HAL_UNLOCK(hpcd); 
1065:Drivers/STM32F4xx_HAL_Driver/Src/stm32f4xx_hal_pcd.c ****   
1066:Drivers/STM32F4xx_HAL_Driver/Src/stm32f4xx_hal_pcd.c ****   return HAL_OK;
1067:Drivers/STM32F4xx_HAL_Driver/Src/stm32f4xx_hal_pcd.c **** }
1068:Drivers/STM32F4xx_HAL_Driver/Src/stm32f4xx_hal_pcd.c **** 
1069:Drivers/STM32F4xx_HAL_Driver/Src/stm32f4xx_hal_pcd.c **** /**
1070:Drivers/STM32F4xx_HAL_Driver/Src/stm32f4xx_hal_pcd.c ****   * @brief  Clear a STALL condition over in an endpoint.
1071:Drivers/STM32F4xx_HAL_Driver/Src/stm32f4xx_hal_pcd.c ****   * @param  hpcd: PCD handle
1072:Drivers/STM32F4xx_HAL_Driver/Src/stm32f4xx_hal_pcd.c ****   * @param  ep_addr: endpoint address
1073:Drivers/STM32F4xx_HAL_Driver/Src/stm32f4xx_hal_pcd.c ****   * @retval HAL status
1074:Drivers/STM32F4xx_HAL_Driver/Src/stm32f4xx_hal_pcd.c ****   */
1075:Drivers/STM32F4xx_HAL_Driver/Src/stm32f4xx_hal_pcd.c **** HAL_StatusTypeDef HAL_PCD_EP_ClrStall(PCD_HandleTypeDef *hpcd, uint8_t ep_addr)
1076:Drivers/STM32F4xx_HAL_Driver/Src/stm32f4xx_hal_pcd.c **** {
1077:Drivers/STM32F4xx_HAL_Driver/Src/stm32f4xx_hal_pcd.c ****   USB_OTG_EPTypeDef *ep;
1078:Drivers/STM32F4xx_HAL_Driver/Src/stm32f4xx_hal_pcd.c ****   
1079:Drivers/STM32F4xx_HAL_Driver/Src/stm32f4xx_hal_pcd.c ****   if ((0x80 & ep_addr) == 0x80)
1080:Drivers/STM32F4xx_HAL_Driver/Src/stm32f4xx_hal_pcd.c ****   {
1081:Drivers/STM32F4xx_HAL_Driver/Src/stm32f4xx_hal_pcd.c ****     ep = &hpcd->IN_ep[ep_addr & 0x7F];
1082:Drivers/STM32F4xx_HAL_Driver/Src/stm32f4xx_hal_pcd.c ****   }
1083:Drivers/STM32F4xx_HAL_Driver/Src/stm32f4xx_hal_pcd.c ****   else
1084:Drivers/STM32F4xx_HAL_Driver/Src/stm32f4xx_hal_pcd.c ****   {
1085:Drivers/STM32F4xx_HAL_Driver/Src/stm32f4xx_hal_pcd.c ****     ep = &hpcd->OUT_ep[ep_addr];
1086:Drivers/STM32F4xx_HAL_Driver/Src/stm32f4xx_hal_pcd.c ****   }
1087:Drivers/STM32F4xx_HAL_Driver/Src/stm32f4xx_hal_pcd.c ****   
1088:Drivers/STM32F4xx_HAL_Driver/Src/stm32f4xx_hal_pcd.c ****   ep->is_stall = 0;
1089:Drivers/STM32F4xx_HAL_Driver/Src/stm32f4xx_hal_pcd.c ****   ep->num   = ep_addr & 0x7F;
1090:Drivers/STM32F4xx_HAL_Driver/Src/stm32f4xx_hal_pcd.c ****   ep->is_in = ((ep_addr & 0x80) == 0x80);
1091:Drivers/STM32F4xx_HAL_Driver/Src/stm32f4xx_hal_pcd.c ****   
1092:Drivers/STM32F4xx_HAL_Driver/Src/stm32f4xx_hal_pcd.c ****   __HAL_LOCK(hpcd); 
1093:Drivers/STM32F4xx_HAL_Driver/Src/stm32f4xx_hal_pcd.c ****   USB_EPClearStall(hpcd->Instance , ep);
1094:Drivers/STM32F4xx_HAL_Driver/Src/stm32f4xx_hal_pcd.c ****   __HAL_UNLOCK(hpcd); 
1095:Drivers/STM32F4xx_HAL_Driver/Src/stm32f4xx_hal_pcd.c ****     
1096:Drivers/STM32F4xx_HAL_Driver/Src/stm32f4xx_hal_pcd.c ****   return HAL_OK;
1097:Drivers/STM32F4xx_HAL_Driver/Src/stm32f4xx_hal_pcd.c **** }
1098:Drivers/STM32F4xx_HAL_Driver/Src/stm32f4xx_hal_pcd.c **** 
1099:Drivers/STM32F4xx_HAL_Driver/Src/stm32f4xx_hal_pcd.c **** /**
1100:Drivers/STM32F4xx_HAL_Driver/Src/stm32f4xx_hal_pcd.c ****   * @brief  Flush an endpoint.
1101:Drivers/STM32F4xx_HAL_Driver/Src/stm32f4xx_hal_pcd.c ****   * @param  hpcd: PCD handle
1102:Drivers/STM32F4xx_HAL_Driver/Src/stm32f4xx_hal_pcd.c ****   * @param  ep_addr: endpoint address
1103:Drivers/STM32F4xx_HAL_Driver/Src/stm32f4xx_hal_pcd.c ****   * @retval HAL status
1104:Drivers/STM32F4xx_HAL_Driver/Src/stm32f4xx_hal_pcd.c ****   */
1105:Drivers/STM32F4xx_HAL_Driver/Src/stm32f4xx_hal_pcd.c **** HAL_StatusTypeDef HAL_PCD_EP_Flush(PCD_HandleTypeDef *hpcd, uint8_t ep_addr)
1106:Drivers/STM32F4xx_HAL_Driver/Src/stm32f4xx_hal_pcd.c **** {
1107:Drivers/STM32F4xx_HAL_Driver/Src/stm32f4xx_hal_pcd.c ****   __HAL_LOCK(hpcd); 
1108:Drivers/STM32F4xx_HAL_Driver/Src/stm32f4xx_hal_pcd.c ****   
1109:Drivers/STM32F4xx_HAL_Driver/Src/stm32f4xx_hal_pcd.c ****   if ((ep_addr & 0x80) == 0x80)
ARM GAS  /var/folders/19/rz7506jh8xn7x1006s6s574h0000gn/T//cceW6kab.s 			page 37


1110:Drivers/STM32F4xx_HAL_Driver/Src/stm32f4xx_hal_pcd.c ****   {
1111:Drivers/STM32F4xx_HAL_Driver/Src/stm32f4xx_hal_pcd.c ****     USB_FlushTxFifo(hpcd->Instance, ep_addr & 0x7F);
1112:Drivers/STM32F4xx_HAL_Driver/Src/stm32f4xx_hal_pcd.c ****   }
1113:Drivers/STM32F4xx_HAL_Driver/Src/stm32f4xx_hal_pcd.c ****   else
1114:Drivers/STM32F4xx_HAL_Driver/Src/stm32f4xx_hal_pcd.c ****   {
1115:Drivers/STM32F4xx_HAL_Driver/Src/stm32f4xx_hal_pcd.c ****     USB_FlushRxFifo(hpcd->Instance);
1116:Drivers/STM32F4xx_HAL_Driver/Src/stm32f4xx_hal_pcd.c ****   }
1117:Drivers/STM32F4xx_HAL_Driver/Src/stm32f4xx_hal_pcd.c ****   
1118:Drivers/STM32F4xx_HAL_Driver/Src/stm32f4xx_hal_pcd.c ****   __HAL_UNLOCK(hpcd); 
1119:Drivers/STM32F4xx_HAL_Driver/Src/stm32f4xx_hal_pcd.c ****     
1120:Drivers/STM32F4xx_HAL_Driver/Src/stm32f4xx_hal_pcd.c ****   return HAL_OK;
1121:Drivers/STM32F4xx_HAL_Driver/Src/stm32f4xx_hal_pcd.c **** }
1122:Drivers/STM32F4xx_HAL_Driver/Src/stm32f4xx_hal_pcd.c **** 
1123:Drivers/STM32F4xx_HAL_Driver/Src/stm32f4xx_hal_pcd.c **** /**
1124:Drivers/STM32F4xx_HAL_Driver/Src/stm32f4xx_hal_pcd.c ****   * @brief  Activate remote wakeup signalling.
1125:Drivers/STM32F4xx_HAL_Driver/Src/stm32f4xx_hal_pcd.c ****   * @param  hpcd: PCD handle
1126:Drivers/STM32F4xx_HAL_Driver/Src/stm32f4xx_hal_pcd.c ****   * @retval HAL status
1127:Drivers/STM32F4xx_HAL_Driver/Src/stm32f4xx_hal_pcd.c ****   */
1128:Drivers/STM32F4xx_HAL_Driver/Src/stm32f4xx_hal_pcd.c **** HAL_StatusTypeDef HAL_PCD_ActivateRemoteWakeup(PCD_HandleTypeDef *hpcd)
1129:Drivers/STM32F4xx_HAL_Driver/Src/stm32f4xx_hal_pcd.c **** {
1130:Drivers/STM32F4xx_HAL_Driver/Src/stm32f4xx_hal_pcd.c ****   USB_OTG_GlobalTypeDef *USBx = hpcd->Instance;  
1131:Drivers/STM32F4xx_HAL_Driver/Src/stm32f4xx_hal_pcd.c ****     
1132:Drivers/STM32F4xx_HAL_Driver/Src/stm32f4xx_hal_pcd.c ****   if((USBx_DEVICE->DSTS & USB_OTG_DSTS_SUSPSTS) == USB_OTG_DSTS_SUSPSTS)
1133:Drivers/STM32F4xx_HAL_Driver/Src/stm32f4xx_hal_pcd.c ****   {
1134:Drivers/STM32F4xx_HAL_Driver/Src/stm32f4xx_hal_pcd.c ****     /* Activate Remote wakeup signaling */
1135:Drivers/STM32F4xx_HAL_Driver/Src/stm32f4xx_hal_pcd.c ****     USBx_DEVICE->DCTL |= USB_OTG_DCTL_RWUSIG;
1136:Drivers/STM32F4xx_HAL_Driver/Src/stm32f4xx_hal_pcd.c ****   }
1137:Drivers/STM32F4xx_HAL_Driver/Src/stm32f4xx_hal_pcd.c ****   return HAL_OK;  
1138:Drivers/STM32F4xx_HAL_Driver/Src/stm32f4xx_hal_pcd.c **** }
1139:Drivers/STM32F4xx_HAL_Driver/Src/stm32f4xx_hal_pcd.c **** 
1140:Drivers/STM32F4xx_HAL_Driver/Src/stm32f4xx_hal_pcd.c **** /**
1141:Drivers/STM32F4xx_HAL_Driver/Src/stm32f4xx_hal_pcd.c ****   * @brief  De-activate remote wakeup signalling.
1142:Drivers/STM32F4xx_HAL_Driver/Src/stm32f4xx_hal_pcd.c ****   * @param  hpcd: PCD handle
1143:Drivers/STM32F4xx_HAL_Driver/Src/stm32f4xx_hal_pcd.c ****   * @retval HAL status
1144:Drivers/STM32F4xx_HAL_Driver/Src/stm32f4xx_hal_pcd.c ****   */
1145:Drivers/STM32F4xx_HAL_Driver/Src/stm32f4xx_hal_pcd.c **** HAL_StatusTypeDef HAL_PCD_DeActivateRemoteWakeup(PCD_HandleTypeDef *hpcd)
1146:Drivers/STM32F4xx_HAL_Driver/Src/stm32f4xx_hal_pcd.c **** {
1147:Drivers/STM32F4xx_HAL_Driver/Src/stm32f4xx_hal_pcd.c ****   USB_OTG_GlobalTypeDef *USBx = hpcd->Instance;  
1148:Drivers/STM32F4xx_HAL_Driver/Src/stm32f4xx_hal_pcd.c ****   
1149:Drivers/STM32F4xx_HAL_Driver/Src/stm32f4xx_hal_pcd.c ****   /* De-activate Remote wakeup signaling */
1150:Drivers/STM32F4xx_HAL_Driver/Src/stm32f4xx_hal_pcd.c ****   USBx_DEVICE->DCTL &= ~(USB_OTG_DCTL_RWUSIG);
1151:Drivers/STM32F4xx_HAL_Driver/Src/stm32f4xx_hal_pcd.c ****   return HAL_OK;  
1152:Drivers/STM32F4xx_HAL_Driver/Src/stm32f4xx_hal_pcd.c **** }
1153:Drivers/STM32F4xx_HAL_Driver/Src/stm32f4xx_hal_pcd.c **** /**
1154:Drivers/STM32F4xx_HAL_Driver/Src/stm32f4xx_hal_pcd.c ****   * @}
1155:Drivers/STM32F4xx_HAL_Driver/Src/stm32f4xx_hal_pcd.c ****   */
1156:Drivers/STM32F4xx_HAL_Driver/Src/stm32f4xx_hal_pcd.c ****   
1157:Drivers/STM32F4xx_HAL_Driver/Src/stm32f4xx_hal_pcd.c **** /** @defgroup PCD_Exported_Functions_Group4 Peripheral State functions 
1158:Drivers/STM32F4xx_HAL_Driver/Src/stm32f4xx_hal_pcd.c ****  *  @brief   Peripheral State functions
1159:Drivers/STM32F4xx_HAL_Driver/Src/stm32f4xx_hal_pcd.c ****  *
1160:Drivers/STM32F4xx_HAL_Driver/Src/stm32f4xx_hal_pcd.c **** @verbatim  
1161:Drivers/STM32F4xx_HAL_Driver/Src/stm32f4xx_hal_pcd.c ****  ===============================================================================
1162:Drivers/STM32F4xx_HAL_Driver/Src/stm32f4xx_hal_pcd.c ****                       ##### Peripheral State functions #####
1163:Drivers/STM32F4xx_HAL_Driver/Src/stm32f4xx_hal_pcd.c ****  ===============================================================================  
1164:Drivers/STM32F4xx_HAL_Driver/Src/stm32f4xx_hal_pcd.c ****     [..]
1165:Drivers/STM32F4xx_HAL_Driver/Src/stm32f4xx_hal_pcd.c ****     This subsection permits to get in run-time the status of the peripheral 
1166:Drivers/STM32F4xx_HAL_Driver/Src/stm32f4xx_hal_pcd.c ****     and the data flow.
ARM GAS  /var/folders/19/rz7506jh8xn7x1006s6s574h0000gn/T//cceW6kab.s 			page 38


1167:Drivers/STM32F4xx_HAL_Driver/Src/stm32f4xx_hal_pcd.c **** 
1168:Drivers/STM32F4xx_HAL_Driver/Src/stm32f4xx_hal_pcd.c **** @endverbatim
1169:Drivers/STM32F4xx_HAL_Driver/Src/stm32f4xx_hal_pcd.c ****   * @{
1170:Drivers/STM32F4xx_HAL_Driver/Src/stm32f4xx_hal_pcd.c ****   */
1171:Drivers/STM32F4xx_HAL_Driver/Src/stm32f4xx_hal_pcd.c **** 
1172:Drivers/STM32F4xx_HAL_Driver/Src/stm32f4xx_hal_pcd.c **** /**
1173:Drivers/STM32F4xx_HAL_Driver/Src/stm32f4xx_hal_pcd.c ****   * @brief  Return the PCD handle state.
1174:Drivers/STM32F4xx_HAL_Driver/Src/stm32f4xx_hal_pcd.c ****   * @param  hpcd: PCD handle
1175:Drivers/STM32F4xx_HAL_Driver/Src/stm32f4xx_hal_pcd.c ****   * @retval HAL state
1176:Drivers/STM32F4xx_HAL_Driver/Src/stm32f4xx_hal_pcd.c ****   */
1177:Drivers/STM32F4xx_HAL_Driver/Src/stm32f4xx_hal_pcd.c **** PCD_StateTypeDef HAL_PCD_GetState(PCD_HandleTypeDef *hpcd)
1178:Drivers/STM32F4xx_HAL_Driver/Src/stm32f4xx_hal_pcd.c **** {
1179:Drivers/STM32F4xx_HAL_Driver/Src/stm32f4xx_hal_pcd.c ****   return hpcd->State;
1180:Drivers/STM32F4xx_HAL_Driver/Src/stm32f4xx_hal_pcd.c **** }
1181:Drivers/STM32F4xx_HAL_Driver/Src/stm32f4xx_hal_pcd.c **** /**
1182:Drivers/STM32F4xx_HAL_Driver/Src/stm32f4xx_hal_pcd.c ****   * @}
1183:Drivers/STM32F4xx_HAL_Driver/Src/stm32f4xx_hal_pcd.c ****   */
1184:Drivers/STM32F4xx_HAL_Driver/Src/stm32f4xx_hal_pcd.c **** 
1185:Drivers/STM32F4xx_HAL_Driver/Src/stm32f4xx_hal_pcd.c **** /**
1186:Drivers/STM32F4xx_HAL_Driver/Src/stm32f4xx_hal_pcd.c ****   * @}
1187:Drivers/STM32F4xx_HAL_Driver/Src/stm32f4xx_hal_pcd.c ****   */
1188:Drivers/STM32F4xx_HAL_Driver/Src/stm32f4xx_hal_pcd.c **** 
1189:Drivers/STM32F4xx_HAL_Driver/Src/stm32f4xx_hal_pcd.c **** /* Private functions ---------------------------------------------------------*/
1190:Drivers/STM32F4xx_HAL_Driver/Src/stm32f4xx_hal_pcd.c **** /** @addtogroup PCD_Private_Functions
1191:Drivers/STM32F4xx_HAL_Driver/Src/stm32f4xx_hal_pcd.c ****   * @{
1192:Drivers/STM32F4xx_HAL_Driver/Src/stm32f4xx_hal_pcd.c ****   */
1193:Drivers/STM32F4xx_HAL_Driver/Src/stm32f4xx_hal_pcd.c **** 
1194:Drivers/STM32F4xx_HAL_Driver/Src/stm32f4xx_hal_pcd.c **** /**
1195:Drivers/STM32F4xx_HAL_Driver/Src/stm32f4xx_hal_pcd.c ****   * @brief  Check FIFO for the next packet to be loaded.
1196:Drivers/STM32F4xx_HAL_Driver/Src/stm32f4xx_hal_pcd.c ****   * @param  hpcd: PCD handle
1197:Drivers/STM32F4xx_HAL_Driver/Src/stm32f4xx_hal_pcd.c ****   * @param  epnum : endpoint number   
1198:Drivers/STM32F4xx_HAL_Driver/Src/stm32f4xx_hal_pcd.c ****   * @retval HAL status
1199:Drivers/STM32F4xx_HAL_Driver/Src/stm32f4xx_hal_pcd.c ****   */
1200:Drivers/STM32F4xx_HAL_Driver/Src/stm32f4xx_hal_pcd.c **** static HAL_StatusTypeDef PCD_WriteEmptyTxFifo(PCD_HandleTypeDef *hpcd, uint32_t epnum)
1201:Drivers/STM32F4xx_HAL_Driver/Src/stm32f4xx_hal_pcd.c **** {
1202:Drivers/STM32F4xx_HAL_Driver/Src/stm32f4xx_hal_pcd.c ****   USB_OTG_GlobalTypeDef *USBx = hpcd->Instance;  
1203:Drivers/STM32F4xx_HAL_Driver/Src/stm32f4xx_hal_pcd.c ****   USB_OTG_EPTypeDef *ep;
1204:Drivers/STM32F4xx_HAL_Driver/Src/stm32f4xx_hal_pcd.c ****   int32_t len = 0;
1205:Drivers/STM32F4xx_HAL_Driver/Src/stm32f4xx_hal_pcd.c ****   uint32_t len32b;
1206:Drivers/STM32F4xx_HAL_Driver/Src/stm32f4xx_hal_pcd.c ****   uint32_t fifoemptymsk = 0;
1207:Drivers/STM32F4xx_HAL_Driver/Src/stm32f4xx_hal_pcd.c **** 
1208:Drivers/STM32F4xx_HAL_Driver/Src/stm32f4xx_hal_pcd.c ****   ep = &hpcd->IN_ep[epnum];
1209:Drivers/STM32F4xx_HAL_Driver/Src/stm32f4xx_hal_pcd.c ****   len = ep->xfer_len - ep->xfer_count;
 855              		.loc 1 1209 0
 856 0198 2B6D     		ldr	r3, [r5, #80]
 857 019a EA6C     		ldr	r2, [r5, #76]
1202:Drivers/STM32F4xx_HAL_Driver/Src/stm32f4xx_hal_pcd.c ****   USB_OTG_GlobalTypeDef *USBx = hpcd->Instance;  
 858              		.loc 1 1202 0
 859 019c D4F800C0 		ldr	ip, [r4]
 860              	.LVL79:
 861              		.loc 1 1209 0
 862 01a0 D21A     		subs	r2, r2, r3
 863              	.LVL80:
1210:Drivers/STM32F4xx_HAL_Driver/Src/stm32f4xx_hal_pcd.c ****   
1211:Drivers/STM32F4xx_HAL_Driver/Src/stm32f4xx_hal_pcd.c ****   if (len > ep->maxpacket)
 864              		.loc 1 1211 0
 865 01a2 2B6C     		ldr	r3, [r5, #64]
ARM GAS  /var/folders/19/rz7506jh8xn7x1006s6s574h0000gn/T//cceW6kab.s 			page 39


1209:Drivers/STM32F4xx_HAL_Driver/Src/stm32f4xx_hal_pcd.c ****   len = ep->xfer_len - ep->xfer_count;
 866              		.loc 1 1209 0
 867 01a4 9A42     		cmp	r2, r3
 868 01a6 34BF     		ite	cc
 869 01a8 9146     		movcc	r9, r2
 870 01aa 9946     		movcs	r9, r3
 871              	.LVL81:
1212:Drivers/STM32F4xx_HAL_Driver/Src/stm32f4xx_hal_pcd.c ****   {
1213:Drivers/STM32F4xx_HAL_Driver/Src/stm32f4xx_hal_pcd.c ****     len = ep->maxpacket;
1214:Drivers/STM32F4xx_HAL_Driver/Src/stm32f4xx_hal_pcd.c ****   }
1215:Drivers/STM32F4xx_HAL_Driver/Src/stm32f4xx_hal_pcd.c ****   
1216:Drivers/STM32F4xx_HAL_Driver/Src/stm32f4xx_hal_pcd.c ****   
1217:Drivers/STM32F4xx_HAL_Driver/Src/stm32f4xx_hal_pcd.c ****   len32b = (len + 3) / 4;
 872              		.loc 1 1217 0
 873 01ac 09F10302 		add	r2, r9, #3
 874 01b0 0423     		movs	r3, #4
 875 01b2 92FBF3F3 		sdiv	r3, r2, r3
 876 01b6 0493     		str	r3, [sp, #16]
 877              	.LVL82:
1218:Drivers/STM32F4xx_HAL_Driver/Src/stm32f4xx_hal_pcd.c ****  
1219:Drivers/STM32F4xx_HAL_Driver/Src/stm32f4xx_hal_pcd.c ****   while  ( (USBx_INEP(epnum)->DTXFSTS & USB_OTG_DTXFSTS_INEPTFSAV) > len32b &&
 878              		.loc 1 1219 0
 879 01b8 0CF51063 		add	r3, ip, #2304
 880              	.LVL83:
 881 01bc 03EB4613 		add	r3, r3, r6, lsl #5
 882 01c0 0593     		str	r3, [sp, #20]
 883              	.LVL84:
 884              	.L64:
 885 01c2 059A     		ldr	r2, [sp, #20]
 886 01c4 9369     		ldr	r3, [r2, #24]
 887 01c6 049A     		ldr	r2, [sp, #16]
 888 01c8 9BB2     		uxth	r3, r3
 889 01ca 9342     		cmp	r3, r2
 890 01cc 0BD8     		bhi	.L67
 891              	.L69:
1220:Drivers/STM32F4xx_HAL_Driver/Src/stm32f4xx_hal_pcd.c ****           ep->xfer_count < ep->xfer_len &&
1221:Drivers/STM32F4xx_HAL_Driver/Src/stm32f4xx_hal_pcd.c ****             ep->xfer_len != 0)
1222:Drivers/STM32F4xx_HAL_Driver/Src/stm32f4xx_hal_pcd.c ****   {
1223:Drivers/STM32F4xx_HAL_Driver/Src/stm32f4xx_hal_pcd.c ****     /* Write the FIFO */
1224:Drivers/STM32F4xx_HAL_Driver/Src/stm32f4xx_hal_pcd.c ****     len = ep->xfer_len - ep->xfer_count;
1225:Drivers/STM32F4xx_HAL_Driver/Src/stm32f4xx_hal_pcd.c ****     
1226:Drivers/STM32F4xx_HAL_Driver/Src/stm32f4xx_hal_pcd.c ****     if (len > ep->maxpacket)
1227:Drivers/STM32F4xx_HAL_Driver/Src/stm32f4xx_hal_pcd.c ****     {
1228:Drivers/STM32F4xx_HAL_Driver/Src/stm32f4xx_hal_pcd.c ****       len = ep->maxpacket;
1229:Drivers/STM32F4xx_HAL_Driver/Src/stm32f4xx_hal_pcd.c ****     }
1230:Drivers/STM32F4xx_HAL_Driver/Src/stm32f4xx_hal_pcd.c ****     len32b = (len + 3) / 4;
1231:Drivers/STM32F4xx_HAL_Driver/Src/stm32f4xx_hal_pcd.c ****     
1232:Drivers/STM32F4xx_HAL_Driver/Src/stm32f4xx_hal_pcd.c ****     USB_WritePacket(USBx, ep->xfer_buff, epnum, len, hpcd->Init.dma_enable); 
1233:Drivers/STM32F4xx_HAL_Driver/Src/stm32f4xx_hal_pcd.c ****     
1234:Drivers/STM32F4xx_HAL_Driver/Src/stm32f4xx_hal_pcd.c ****     ep->xfer_buff  += len;
1235:Drivers/STM32F4xx_HAL_Driver/Src/stm32f4xx_hal_pcd.c ****     ep->xfer_count += len;
1236:Drivers/STM32F4xx_HAL_Driver/Src/stm32f4xx_hal_pcd.c ****   }
1237:Drivers/STM32F4xx_HAL_Driver/Src/stm32f4xx_hal_pcd.c ****   
1238:Drivers/STM32F4xx_HAL_Driver/Src/stm32f4xx_hal_pcd.c ****   if(len <= 0)
 892              		.loc 1 1238 0
 893 01ce B9F1000F 		cmp	r9, #0
 894 01d2 2EDC     		bgt	.L52
ARM GAS  /var/folders/19/rz7506jh8xn7x1006s6s574h0000gn/T//cceW6kab.s 			page 40


 895              	.LVL85:
1239:Drivers/STM32F4xx_HAL_Driver/Src/stm32f4xx_hal_pcd.c ****   {
1240:Drivers/STM32F4xx_HAL_Driver/Src/stm32f4xx_hal_pcd.c ****     fifoemptymsk = 0x1 << epnum;
1241:Drivers/STM32F4xx_HAL_Driver/Src/stm32f4xx_hal_pcd.c ****     USBx_DEVICE->DIEPEMPMSK &= ~fifoemptymsk;
 896              		.loc 1 1241 0
 897 01d4 DCF83418 		ldr	r1, [ip, #2100]
1240:Drivers/STM32F4xx_HAL_Driver/Src/stm32f4xx_hal_pcd.c ****     fifoemptymsk = 0x1 << epnum;
 898              		.loc 1 1240 0
 899 01d8 0122     		movs	r2, #1
 900 01da B240     		lsls	r2, r2, r6
 901              	.LVL86:
 902              		.loc 1 1241 0
 903 01dc 21EA0202 		bic	r2, r1, r2
 904              	.LVL87:
 905 01e0 CCF83428 		str	r2, [ip, #2100]
 906 01e4 25E0     		b	.L52
 907              	.LVL88:
 908              	.L67:
1220:Drivers/STM32F4xx_HAL_Driver/Src/stm32f4xx_hal_pcd.c ****           ep->xfer_count < ep->xfer_len &&
 909              		.loc 1 1220 0
 910 01e6 2A6D     		ldr	r2, [r5, #80]
 911              	.LVL89:
 912 01e8 EB6C     		ldr	r3, [r5, #76]
1219:Drivers/STM32F4xx_HAL_Driver/Src/stm32f4xx_hal_pcd.c ****   while  ( (USBx_INEP(epnum)->DTXFSTS & USB_OTG_DTXFSTS_INEPTFSAV) > len32b &&
 913              		.loc 1 1219 0
 914 01ea 9A42     		cmp	r2, r3
 915 01ec EFD2     		bcs	.L69
1220:Drivers/STM32F4xx_HAL_Driver/Src/stm32f4xx_hal_pcd.c ****           ep->xfer_count < ep->xfer_len &&
 916              		.loc 1 1220 0
 917 01ee 002B     		cmp	r3, #0
 918 01f0 EDD0     		beq	.L69
1226:Drivers/STM32F4xx_HAL_Driver/Src/stm32f4xx_hal_pcd.c ****     if (len > ep->maxpacket)
 919              		.loc 1 1226 0
 920 01f2 296C     		ldr	r1, [r5, #64]
1224:Drivers/STM32F4xx_HAL_Driver/Src/stm32f4xx_hal_pcd.c ****     len = ep->xfer_len - ep->xfer_count;
 921              		.loc 1 1224 0
 922 01f4 C2EB0309 		rsb	r9, r2, r3
 923              	.LVL90:
 924 01f8 8945     		cmp	r9, r1
 925 01fa 28BF     		it	cs
 926 01fc 8946     		movcs	r9, r1
 927              	.LVL91:
1230:Drivers/STM32F4xx_HAL_Driver/Src/stm32f4xx_hal_pcd.c ****     len32b = (len + 3) / 4;
 928              		.loc 1 1230 0
 929 01fe 09F10302 		add	r2, r9, #3
 930 0202 0423     		movs	r3, #4
 931 0204 92FBF3F3 		sdiv	r3, r2, r3
 932 0208 0493     		str	r3, [sp, #16]
 933              	.LVL92:
1232:Drivers/STM32F4xx_HAL_Driver/Src/stm32f4xx_hal_pcd.c ****     USB_WritePacket(USBx, ep->xfer_buff, epnum, len, hpcd->Init.dma_enable); 
 934              		.loc 1 1232 0
 935 020a 237C     		ldrb	r3, [r4, #16]	@ zero_extendqisi2
 936              	.LVL93:
 937 020c 0093     		str	r3, [sp]
 938 020e 6046     		mov	r0, ip
 939 0210 696C     		ldr	r1, [r5, #68]
 940 0212 CDF80CC0 		str	ip, [sp, #12]
ARM GAS  /var/folders/19/rz7506jh8xn7x1006s6s574h0000gn/T//cceW6kab.s 			page 41


 941 0216 1FFA89F3 		uxth	r3, r9
 942 021a 5A46     		mov	r2, fp
 943 021c FFF7FEFF 		bl	USB_WritePacket
 944              	.LVL94:
1234:Drivers/STM32F4xx_HAL_Driver/Src/stm32f4xx_hal_pcd.c ****     ep->xfer_buff  += len;
 945              		.loc 1 1234 0
 946 0220 6B6C     		ldr	r3, [r5, #68]
 947 0222 4B44     		add	r3, r3, r9
 948 0224 6B64     		str	r3, [r5, #68]
1235:Drivers/STM32F4xx_HAL_Driver/Src/stm32f4xx_hal_pcd.c ****     ep->xfer_count += len;
 949              		.loc 1 1235 0
 950 0226 2B6D     		ldr	r3, [r5, #80]
 951 0228 4B44     		add	r3, r3, r9
 952 022a 2B65     		str	r3, [r5, #80]
 953 022c DDF80CC0 		ldr	ip, [sp, #12]
 954 0230 C7E7     		b	.L64
 955              	.LVL95:
 956              	.L52:
 957              	.LBE5:
 958              	.LBE4:
 464:Drivers/STM32F4xx_HAL_Driver/Src/stm32f4xx_hal_pcd.c ****         epnum++;
 959              		.loc 1 464 0
 960 0232 0136     		adds	r6, r6, #1
 961              	.LVL96:
 465:Drivers/STM32F4xx_HAL_Driver/Src/stm32f4xx_hal_pcd.c ****         ep_intr >>= 1;
 962              		.loc 1 465 0
 963 0234 4FEA5A0A 		lsr	r10, r10, #1
 964              	.LVL97:
 965 0238 1C35     		adds	r5, r5, #28
 966 023a 08F12008 		add	r8, r8, #32
 967 023e 5DE7     		b	.L50
 968              	.LVL98:
 969              	.L49:
 470:Drivers/STM32F4xx_HAL_Driver/Src/stm32f4xx_hal_pcd.c ****     if(__HAL_PCD_GET_FLAG(hpcd, USB_OTG_GINTSTS_WKUINT))
 970              		.loc 1 470 0
 971 0240 2068     		ldr	r0, [r4]
 972 0242 FFF7FEFF 		bl	USB_ReadInterrupts
 973              	.LVL99:
 974 0246 0028     		cmp	r0, #0
 975 0248 0DDA     		bge	.L72
 473:Drivers/STM32F4xx_HAL_Driver/Src/stm32f4xx_hal_pcd.c ****       USBx_DEVICE->DCTL &= ~USB_OTG_DCTL_RWUSIG;
 976              		.loc 1 473 0
 977 024a D7F80428 		ldr	r2, [r7, #2052]
 978 024e 22F00102 		bic	r2, r2, #1
 979 0252 C7F80428 		str	r2, [r7, #2052]
 484:Drivers/STM32F4xx_HAL_Driver/Src/stm32f4xx_hal_pcd.c ****         HAL_PCD_ResumeCallback(hpcd);
 980              		.loc 1 484 0
 981 0256 2046     		mov	r0, r4
 982 0258 FFF7FEFF 		bl	HAL_PCD_ResumeCallback
 983              	.LVL100:
 487:Drivers/STM32F4xx_HAL_Driver/Src/stm32f4xx_hal_pcd.c ****       __HAL_PCD_CLEAR_FLAG(hpcd, USB_OTG_GINTSTS_WKUINT);
 984              		.loc 1 487 0
 985 025c 2368     		ldr	r3, [r4]
 986 025e 5A69     		ldr	r2, [r3, #20]
 987 0260 02F00042 		and	r2, r2, #-2147483648
 988 0264 5A61     		str	r2, [r3, #20]
 989              	.L72:
ARM GAS  /var/folders/19/rz7506jh8xn7x1006s6s574h0000gn/T//cceW6kab.s 			page 42


 491:Drivers/STM32F4xx_HAL_Driver/Src/stm32f4xx_hal_pcd.c ****     if(__HAL_PCD_GET_FLAG(hpcd, USB_OTG_GINTSTS_USBSUSP))
 990              		.loc 1 491 0
 991 0266 2068     		ldr	r0, [r4]
 992 0268 FFF7FEFF 		bl	USB_ReadInterrupts
 993              	.LVL101:
 994 026c 0505     		lsls	r5, r0, #20
 995 026e 0BD5     		bpl	.L73
 493:Drivers/STM32F4xx_HAL_Driver/Src/stm32f4xx_hal_pcd.c ****       if((USBx_DEVICE->DSTS & USB_OTG_DSTS_SUSPSTS) == USB_OTG_DSTS_SUSPSTS)
 996              		.loc 1 493 0
 997 0270 D7F80838 		ldr	r3, [r7, #2056]
 998 0274 D807     		lsls	r0, r3, #31
 999 0276 02D5     		bpl	.L74
 496:Drivers/STM32F4xx_HAL_Driver/Src/stm32f4xx_hal_pcd.c ****         HAL_PCD_SuspendCallback(hpcd);
 1000              		.loc 1 496 0
 1001 0278 2046     		mov	r0, r4
 1002 027a FFF7FEFF 		bl	HAL_PCD_SuspendCallback
 1003              	.LVL102:
 1004              	.L74:
 498:Drivers/STM32F4xx_HAL_Driver/Src/stm32f4xx_hal_pcd.c ****       __HAL_PCD_CLEAR_FLAG(hpcd, USB_OTG_GINTSTS_USBSUSP);
 1005              		.loc 1 498 0
 1006 027e 2368     		ldr	r3, [r4]
 1007 0280 5A69     		ldr	r2, [r3, #20]
 1008 0282 02F40062 		and	r2, r2, #2048
 1009 0286 5A61     		str	r2, [r3, #20]
 1010              	.L73:
 520:Drivers/STM32F4xx_HAL_Driver/Src/stm32f4xx_hal_pcd.c ****     if(__HAL_PCD_GET_FLAG(hpcd, USB_OTG_GINTSTS_USBRST))
 1011              		.loc 1 520 0
 1012 0288 2068     		ldr	r0, [r4]
 1013 028a FFF7FEFF 		bl	USB_ReadInterrupts
 1014              	.LVL103:
 1015 028e C104     		lsls	r1, r0, #19
 1016 0290 43D5     		bpl	.L75
 522:Drivers/STM32F4xx_HAL_Driver/Src/stm32f4xx_hal_pcd.c ****       USBx_DEVICE->DCTL &= ~USB_OTG_DCTL_RWUSIG; 
 1017              		.loc 1 522 0
 1018 0292 07F50065 		add	r5, r7, #2048
 1019 0296 6B68     		ldr	r3, [r5, #4]
 523:Drivers/STM32F4xx_HAL_Driver/Src/stm32f4xx_hal_pcd.c ****       USB_FlushTxFifo(hpcd->Instance ,  0 );
 1020              		.loc 1 523 0
 1021 0298 2068     		ldr	r0, [r4]
 522:Drivers/STM32F4xx_HAL_Driver/Src/stm32f4xx_hal_pcd.c ****       USBx_DEVICE->DCTL &= ~USB_OTG_DCTL_RWUSIG; 
 1022              		.loc 1 522 0
 1023 029a 23F00103 		bic	r3, r3, #1
 1024 029e 6B60     		str	r3, [r5, #4]
 523:Drivers/STM32F4xx_HAL_Driver/Src/stm32f4xx_hal_pcd.c ****       USB_FlushTxFifo(hpcd->Instance ,  0 );
 1025              		.loc 1 523 0
 1026 02a0 0021     		movs	r1, #0
 1027 02a2 FFF7FEFF 		bl	USB_FlushTxFifo
 1028              	.LVL104:
 525:Drivers/STM32F4xx_HAL_Driver/Src/stm32f4xx_hal_pcd.c ****       for (i = 0; i < hpcd->Init.dev_endpoints ; i++)
 1029              		.loc 1 525 0
 1030 02a6 6068     		ldr	r0, [r4, #4]
 1031 02a8 07F51063 		add	r3, r7, #2304
 1032 02ac 0022     		movs	r2, #0
 1033              	.LVL105:
 1034              	.L76:
 525:Drivers/STM32F4xx_HAL_Driver/Src/stm32f4xx_hal_pcd.c ****       for (i = 0; i < hpcd->Init.dev_endpoints ; i++)
 1035              		.loc 1 525 0 is_stmt 0 discriminator 1
ARM GAS  /var/folders/19/rz7506jh8xn7x1006s6s574h0000gn/T//cceW6kab.s 			page 43


 1036 02ae 8242     		cmp	r2, r0
 1037 02b0 06D0     		beq	.L159
 527:Drivers/STM32F4xx_HAL_Driver/Src/stm32f4xx_hal_pcd.c ****         USBx_INEP(i)->DIEPINT = 0xFF;
 1038              		.loc 1 527 0 is_stmt 1 discriminator 2
 1039 02b2 FF21     		movs	r1, #255
 1040 02b4 9960     		str	r1, [r3, #8]
 525:Drivers/STM32F4xx_HAL_Driver/Src/stm32f4xx_hal_pcd.c ****       for (i = 0; i < hpcd->Init.dev_endpoints ; i++)
 1041              		.loc 1 525 0 discriminator 2
 1042 02b6 0132     		adds	r2, r2, #1
 1043              	.LVL106:
 528:Drivers/STM32F4xx_HAL_Driver/Src/stm32f4xx_hal_pcd.c ****         USBx_OUTEP(i)->DOEPINT = 0xFF;
 1044              		.loc 1 528 0 discriminator 2
 1045 02b8 C3F80812 		str	r1, [r3, #520]
 1046 02bc 2033     		adds	r3, r3, #32
 1047 02be F6E7     		b	.L76
 1048              	.L159:
 530:Drivers/STM32F4xx_HAL_Driver/Src/stm32f4xx_hal_pcd.c ****       USBx_DEVICE->DAINT = 0xFFFFFFFF;
 1049              		.loc 1 530 0
 1050 02c0 4FF0FF33 		mov	r3, #-1
 1051 02c4 AB61     		str	r3, [r5, #24]
 531:Drivers/STM32F4xx_HAL_Driver/Src/stm32f4xx_hal_pcd.c ****       USBx_DEVICE->DAINTMSK |= 0x10001;
 1052              		.loc 1 531 0
 1053 02c6 EB69     		ldr	r3, [r5, #28]
 1054 02c8 43F00113 		orr	r3, r3, #65537
 1055 02cc EB61     		str	r3, [r5, #28]
 533:Drivers/STM32F4xx_HAL_Driver/Src/stm32f4xx_hal_pcd.c ****       if(hpcd->Init.use_dedicated_ep1)
 1056              		.loc 1 533 0
 1057 02ce 236B     		ldr	r3, [r4, #48]
 1058 02d0 53B1     		cbz	r3, .L78
 535:Drivers/STM32F4xx_HAL_Driver/Src/stm32f4xx_hal_pcd.c ****         USBx_DEVICE->DOUTEP1MSK |= (USB_OTG_DOEPMSK_STUPM | USB_OTG_DOEPMSK_XFRCM | USB_OTG_DOEPMSK
 1059              		.loc 1 535 0
 1060 02d2 D5F88430 		ldr	r3, [r5, #132]
 1061 02d6 43F00B03 		orr	r3, r3, #11
 1062 02da C5F88430 		str	r3, [r5, #132]
 536:Drivers/STM32F4xx_HAL_Driver/Src/stm32f4xx_hal_pcd.c ****         USBx_DEVICE->DINEP1MSK |= (USB_OTG_DIEPMSK_TOM | USB_OTG_DIEPMSK_XFRCM | USB_OTG_DIEPMSK_EP
 1063              		.loc 1 536 0
 1064 02de 6B6C     		ldr	r3, [r5, #68]
 1065 02e0 43F00B03 		orr	r3, r3, #11
 1066 02e4 6B64     		str	r3, [r5, #68]
 1067 02e6 07E0     		b	.L79
 1068              	.L78:
 543:Drivers/STM32F4xx_HAL_Driver/Src/stm32f4xx_hal_pcd.c ****         USBx_DEVICE->DOEPMSK |= (USB_OTG_DOEPMSK_STUPM | USB_OTG_DOEPMSK_XFRCM | USB_OTG_DOEPMSK_EP
 1069              		.loc 1 543 0
 1070 02e8 6B69     		ldr	r3, [r5, #20]
 1071 02ea 43F00B03 		orr	r3, r3, #11
 1072 02ee 6B61     		str	r3, [r5, #20]
 545:Drivers/STM32F4xx_HAL_Driver/Src/stm32f4xx_hal_pcd.c ****         USBx_DEVICE->DIEPMSK |= (USB_OTG_DIEPMSK_TOM | USB_OTG_DIEPMSK_XFRCM | USB_OTG_DIEPMSK_EPDM
 1073              		.loc 1 545 0
 1074 02f0 2B69     		ldr	r3, [r5, #16]
 1075 02f2 43F00B03 		orr	r3, r3, #11
 1076 02f6 2B61     		str	r3, [r5, #16]
 1077              	.L79:
 549:Drivers/STM32F4xx_HAL_Driver/Src/stm32f4xx_hal_pcd.c ****       USBx_DEVICE->DCFG &= ~USB_OTG_DCFG_DAD;
 1078              		.loc 1 549 0
 1079 02f8 D7F80038 		ldr	r3, [r7, #2048]
 552:Drivers/STM32F4xx_HAL_Driver/Src/stm32f4xx_hal_pcd.c ****       USB_EP0_OutStart(hpcd->Instance, hpcd->Init.dma_enable, (uint8_t *)hpcd->Setup);
 1080              		.loc 1 552 0
ARM GAS  /var/folders/19/rz7506jh8xn7x1006s6s574h0000gn/T//cceW6kab.s 			page 44


 1081 02fc 2068     		ldr	r0, [r4]
 1082 02fe 217C     		ldrb	r1, [r4, #16]	@ zero_extendqisi2
 549:Drivers/STM32F4xx_HAL_Driver/Src/stm32f4xx_hal_pcd.c ****       USBx_DEVICE->DCFG &= ~USB_OTG_DCFG_DAD;
 1083              		.loc 1 549 0
 1084 0300 23F4FE63 		bic	r3, r3, #2032
 1085 0304 C7F80038 		str	r3, [r7, #2048]
 552:Drivers/STM32F4xx_HAL_Driver/Src/stm32f4xx_hal_pcd.c ****       USB_EP0_OutStart(hpcd->Instance, hpcd->Init.dma_enable, (uint8_t *)hpcd->Setup);
 1086              		.loc 1 552 0
 1087 0308 04F56172 		add	r2, r4, #900
 1088              	.LVL107:
 1089 030c FFF7FEFF 		bl	USB_EP0_OutStart
 1090              	.LVL108:
 554:Drivers/STM32F4xx_HAL_Driver/Src/stm32f4xx_hal_pcd.c ****       __HAL_PCD_CLEAR_FLAG(hpcd, USB_OTG_GINTSTS_USBRST);
 1091              		.loc 1 554 0
 1092 0310 2368     		ldr	r3, [r4]
 1093 0312 5A69     		ldr	r2, [r3, #20]
 1094 0314 02F48052 		and	r2, r2, #4096
 1095 0318 5A61     		str	r2, [r3, #20]
 1096              	.L75:
 558:Drivers/STM32F4xx_HAL_Driver/Src/stm32f4xx_hal_pcd.c ****     if(__HAL_PCD_GET_FLAG(hpcd, USB_OTG_GINTSTS_ENUMDNE))
 1097              		.loc 1 558 0
 1098 031a 2068     		ldr	r0, [r4]
 1099 031c FFF7FEFF 		bl	USB_ReadInterrupts
 1100              	.LVL109:
 1101 0320 8204     		lsls	r2, r0, #18
 1102 0322 23D5     		bpl	.L80
 560:Drivers/STM32F4xx_HAL_Driver/Src/stm32f4xx_hal_pcd.c ****       USB_ActivateSetup(hpcd->Instance);
 1103              		.loc 1 560 0
 1104 0324 2068     		ldr	r0, [r4]
 1105 0326 FFF7FEFF 		bl	USB_ActivateSetup
 1106              	.LVL110:
 561:Drivers/STM32F4xx_HAL_Driver/Src/stm32f4xx_hal_pcd.c ****       hpcd->Instance->GUSBCFG &= ~USB_OTG_GUSBCFG_TRDT;
 1107              		.loc 1 561 0
 1108 032a 2068     		ldr	r0, [r4]
 1109 032c C368     		ldr	r3, [r0, #12]
 1110 032e 23F47053 		bic	r3, r3, #15360
 1111 0332 C360     		str	r3, [r0, #12]
 563:Drivers/STM32F4xx_HAL_Driver/Src/stm32f4xx_hal_pcd.c ****       if ( USB_GetDevSpeed(hpcd->Instance) == USB_OTG_SPEED_HIGH)
 1112              		.loc 1 563 0
 1113 0334 FFF7FEFF 		bl	USB_GetDevSpeed
 1114              	.LVL111:
 1115 0338 2368     		ldr	r3, [r4]
 1116 033a 38B9     		cbnz	r0, .L81
 566:Drivers/STM32F4xx_HAL_Driver/Src/stm32f4xx_hal_pcd.c ****         hpcd->Init.ep0_mps          = USB_OTG_HS_MAX_PACKET_SIZE ;    
 1117              		.loc 1 566 0
 1118 033c 4FF40072 		mov	r2, #512
 1119 0340 6261     		str	r2, [r4, #20]
 567:Drivers/STM32F4xx_HAL_Driver/Src/stm32f4xx_hal_pcd.c ****         hpcd->Instance->GUSBCFG |= (uint32_t)((USBD_HS_TRDT_VALUE << 10) & USB_OTG_GUSBCFG_TRDT);
 1120              		.loc 1 567 0
 1121 0342 DA68     		ldr	r2, [r3, #12]
 565:Drivers/STM32F4xx_HAL_Driver/Src/stm32f4xx_hal_pcd.c ****         hpcd->Init.speed            = USB_OTG_SPEED_HIGH;
 1122              		.loc 1 565 0
 1123 0344 E060     		str	r0, [r4, #12]
 567:Drivers/STM32F4xx_HAL_Driver/Src/stm32f4xx_hal_pcd.c ****         hpcd->Instance->GUSBCFG |= (uint32_t)((USBD_HS_TRDT_VALUE << 10) & USB_OTG_GUSBCFG_TRDT);
 1124              		.loc 1 567 0
 1125 0346 42F41052 		orr	r2, r2, #9216
 1126 034a 06E0     		b	.L158
ARM GAS  /var/folders/19/rz7506jh8xn7x1006s6s574h0000gn/T//cceW6kab.s 			page 45


 1127              	.L81:
 571:Drivers/STM32F4xx_HAL_Driver/Src/stm32f4xx_hal_pcd.c ****         hpcd->Init.speed            = USB_OTG_SPEED_FULL;
 1128              		.loc 1 571 0
 1129 034c 0322     		movs	r2, #3
 1130 034e E260     		str	r2, [r4, #12]
 572:Drivers/STM32F4xx_HAL_Driver/Src/stm32f4xx_hal_pcd.c ****         hpcd->Init.ep0_mps          = USB_OTG_FS_MAX_PACKET_SIZE ;  
 1131              		.loc 1 572 0
 1132 0350 4022     		movs	r2, #64
 1133 0352 6261     		str	r2, [r4, #20]
 573:Drivers/STM32F4xx_HAL_Driver/Src/stm32f4xx_hal_pcd.c ****         hpcd->Instance->GUSBCFG |= (uint32_t)((USBD_FS_TRDT_VALUE << 10) & USB_OTG_GUSBCFG_TRDT);
 1134              		.loc 1 573 0
 1135 0354 DA68     		ldr	r2, [r3, #12]
 1136 0356 42F4A052 		orr	r2, r2, #5120
 1137              	.L158:
 1138 035a DA60     		str	r2, [r3, #12]
 576:Drivers/STM32F4xx_HAL_Driver/Src/stm32f4xx_hal_pcd.c ****       HAL_PCD_ResetCallback(hpcd);
 1139              		.loc 1 576 0
 1140 035c 2046     		mov	r0, r4
 1141 035e FFF7FEFF 		bl	HAL_PCD_ResetCallback
 1142              	.LVL112:
 578:Drivers/STM32F4xx_HAL_Driver/Src/stm32f4xx_hal_pcd.c ****       __HAL_PCD_CLEAR_FLAG(hpcd, USB_OTG_GINTSTS_ENUMDNE);
 1143              		.loc 1 578 0
 1144 0362 2368     		ldr	r3, [r4]
 1145 0364 5A69     		ldr	r2, [r3, #20]
 1146 0366 02F40052 		and	r2, r2, #8192
 1147 036a 5A61     		str	r2, [r3, #20]
 1148              	.L80:
 582:Drivers/STM32F4xx_HAL_Driver/Src/stm32f4xx_hal_pcd.c ****     if(__HAL_PCD_GET_FLAG(hpcd, USB_OTG_GINTSTS_RXFLVL))
 1149              		.loc 1 582 0
 1150 036c 2068     		ldr	r0, [r4]
 1151 036e FFF7FEFF 		bl	USB_ReadInterrupts
 1152              	.LVL113:
 1153 0372 C306     		lsls	r3, r0, #27
 1154 0374 36D5     		bpl	.L83
 584:Drivers/STM32F4xx_HAL_Driver/Src/stm32f4xx_hal_pcd.c ****       USB_MASK_INTERRUPT(hpcd->Instance, USB_OTG_GINTSTS_RXFLVL);
 1155              		.loc 1 584 0
 1156 0376 2368     		ldr	r3, [r4]
 1157 0378 9A69     		ldr	r2, [r3, #24]
 1158 037a 22F01002 		bic	r2, r2, #16
 1159 037e 9A61     		str	r2, [r3, #24]
 586:Drivers/STM32F4xx_HAL_Driver/Src/stm32f4xx_hal_pcd.c ****       temp = USBx->GRXSTSP;
 1160              		.loc 1 586 0
 1161 0380 D7F82080 		ldr	r8, [r7, #32]
 1162              	.LVL114:
 588:Drivers/STM32F4xx_HAL_Driver/Src/stm32f4xx_hal_pcd.c ****       ep = &hpcd->OUT_ep[temp & USB_OTG_GRXSTSP_EPNUM];
 1163              		.loc 1 588 0
 1164 0384 1C25     		movs	r5, #28
 1165 0386 08F00F03 		and	r3, r8, #15
 1166 038a 05FB0345 		mla	r5, r5, r3, r4
 590:Drivers/STM32F4xx_HAL_Driver/Src/stm32f4xx_hal_pcd.c ****       if(((temp & USB_OTG_GRXSTSP_PKTSTS) >> 17) ==  STS_DATA_UPDT)
 1167              		.loc 1 590 0
 1168 038e C8F34343 		ubfx	r3, r8, #17, #4
 1169 0392 022B     		cmp	r3, #2
 588:Drivers/STM32F4xx_HAL_Driver/Src/stm32f4xx_hal_pcd.c ****       ep = &hpcd->OUT_ep[temp & USB_OTG_GRXSTSP_EPNUM];
 1170              		.loc 1 588 0
 1171 0394 05F5EE75 		add	r5, r5, #476
 1172              	.LVL115:
ARM GAS  /var/folders/19/rz7506jh8xn7x1006s6s574h0000gn/T//cceW6kab.s 			page 46


 590:Drivers/STM32F4xx_HAL_Driver/Src/stm32f4xx_hal_pcd.c ****       if(((temp & USB_OTG_GRXSTSP_PKTSTS) >> 17) ==  STS_DATA_UPDT)
 1173              		.loc 1 590 0
 1174 0398 12D1     		bne	.L84
 592:Drivers/STM32F4xx_HAL_Driver/Src/stm32f4xx_hal_pcd.c ****         if((temp & USB_OTG_GRXSTSP_BCNT) != 0)
 1175              		.loc 1 592 0
 1176 039a 47F6F072 		movw	r2, #32752
 1177 039e 08EA0202 		and	r2, r8, r2
 1178 03a2 D2B1     		cbz	r2, .L85
 594:Drivers/STM32F4xx_HAL_Driver/Src/stm32f4xx_hal_pcd.c ****           USB_ReadPacket(USBx, ep->xfer_buff, (temp & USB_OTG_GRXSTSP_BCNT) >> 4);
 1179              		.loc 1 594 0
 1180 03a4 4FEA1218 		lsr	r8, r2, #4
 1181              	.LVL116:
 1182 03a8 4246     		mov	r2, r8
 1183 03aa 3846     		mov	r0, r7
 1184 03ac E968     		ldr	r1, [r5, #12]
 1185 03ae FFF7FEFF 		bl	USB_ReadPacket
 1186              	.LVL117:
 595:Drivers/STM32F4xx_HAL_Driver/Src/stm32f4xx_hal_pcd.c ****           ep->xfer_buff += (temp & USB_OTG_GRXSTSP_BCNT) >> 4;
 1187              		.loc 1 595 0
 1188 03b2 EB68     		ldr	r3, [r5, #12]
 596:Drivers/STM32F4xx_HAL_Driver/Src/stm32f4xx_hal_pcd.c ****           ep->xfer_count += (temp & USB_OTG_GRXSTSP_BCNT) >> 4;
 1189              		.loc 1 596 0
 1190 03b4 AA69     		ldr	r2, [r5, #24]
 595:Drivers/STM32F4xx_HAL_Driver/Src/stm32f4xx_hal_pcd.c ****           ep->xfer_buff += (temp & USB_OTG_GRXSTSP_BCNT) >> 4;
 1191              		.loc 1 595 0
 1192 03b6 4344     		add	r3, r3, r8
 596:Drivers/STM32F4xx_HAL_Driver/Src/stm32f4xx_hal_pcd.c ****           ep->xfer_count += (temp & USB_OTG_GRXSTSP_BCNT) >> 4;
 1193              		.loc 1 596 0
 1194 03b8 4244     		add	r2, r2, r8
 595:Drivers/STM32F4xx_HAL_Driver/Src/stm32f4xx_hal_pcd.c ****           ep->xfer_buff += (temp & USB_OTG_GRXSTSP_BCNT) >> 4;
 1195              		.loc 1 595 0
 1196 03ba EB60     		str	r3, [r5, #12]
 596:Drivers/STM32F4xx_HAL_Driver/Src/stm32f4xx_hal_pcd.c ****           ep->xfer_count += (temp & USB_OTG_GRXSTSP_BCNT) >> 4;
 1197              		.loc 1 596 0
 1198 03bc AA61     		str	r2, [r5, #24]
 1199 03be 0CE0     		b	.L85
 1200              	.LVL118:
 1201              	.L84:
 599:Drivers/STM32F4xx_HAL_Driver/Src/stm32f4xx_hal_pcd.c ****       else if (((temp & USB_OTG_GRXSTSP_PKTSTS) >> 17) ==  STS_SETUP_UPDT)
 1202              		.loc 1 599 0
 1203 03c0 062B     		cmp	r3, #6
 1204 03c2 0AD1     		bne	.L85
 601:Drivers/STM32F4xx_HAL_Driver/Src/stm32f4xx_hal_pcd.c ****         USB_ReadPacket(USBx, (uint8_t *)hpcd->Setup, 8);
 1205              		.loc 1 601 0
 1206 03c4 3846     		mov	r0, r7
 1207 03c6 04F56171 		add	r1, r4, #900
 1208 03ca 0822     		movs	r2, #8
 1209 03cc FFF7FEFF 		bl	USB_ReadPacket
 1210              	.LVL119:
 602:Drivers/STM32F4xx_HAL_Driver/Src/stm32f4xx_hal_pcd.c ****         ep->xfer_count += (temp & USB_OTG_GRXSTSP_BCNT) >> 4;
 1211              		.loc 1 602 0
 1212 03d0 AB69     		ldr	r3, [r5, #24]
 1213 03d2 C8F30A18 		ubfx	r8, r8, #4, #11
 1214              	.LVL120:
 1215 03d6 4344     		add	r3, r3, r8
 1216 03d8 AB61     		str	r3, [r5, #24]
 1217              	.L85:
ARM GAS  /var/folders/19/rz7506jh8xn7x1006s6s574h0000gn/T//cceW6kab.s 			page 47


 604:Drivers/STM32F4xx_HAL_Driver/Src/stm32f4xx_hal_pcd.c ****       USB_UNMASK_INTERRUPT(hpcd->Instance, USB_OTG_GINTSTS_RXFLVL);
 1218              		.loc 1 604 0
 1219 03da 2368     		ldr	r3, [r4]
 1220 03dc 9A69     		ldr	r2, [r3, #24]
 1221 03de 42F01002 		orr	r2, r2, #16
 1222 03e2 9A61     		str	r2, [r3, #24]
 1223              	.LVL121:
 1224              	.L83:
 608:Drivers/STM32F4xx_HAL_Driver/Src/stm32f4xx_hal_pcd.c ****     if(__HAL_PCD_GET_FLAG(hpcd, USB_OTG_GINTSTS_SOF))
 1225              		.loc 1 608 0
 1226 03e4 2068     		ldr	r0, [r4]
 1227 03e6 FFF7FEFF 		bl	USB_ReadInterrupts
 1228              	.LVL122:
 1229 03ea 0707     		lsls	r7, r0, #28
 1230              	.LVL123:
 1231 03ec 07D5     		bpl	.L86
 610:Drivers/STM32F4xx_HAL_Driver/Src/stm32f4xx_hal_pcd.c ****       HAL_PCD_SOFCallback(hpcd);
 1232              		.loc 1 610 0
 1233 03ee 2046     		mov	r0, r4
 1234 03f0 FFF7FEFF 		bl	HAL_PCD_SOFCallback
 1235              	.LVL124:
 611:Drivers/STM32F4xx_HAL_Driver/Src/stm32f4xx_hal_pcd.c ****       __HAL_PCD_CLEAR_FLAG(hpcd, USB_OTG_GINTSTS_SOF);
 1236              		.loc 1 611 0
 1237 03f4 2368     		ldr	r3, [r4]
 1238 03f6 5A69     		ldr	r2, [r3, #20]
 1239 03f8 02F00802 		and	r2, r2, #8
 1240 03fc 5A61     		str	r2, [r3, #20]
 1241              	.L86:
 615:Drivers/STM32F4xx_HAL_Driver/Src/stm32f4xx_hal_pcd.c ****     if(__HAL_PCD_GET_FLAG(hpcd, USB_OTG_GINTSTS_IISOIXFR))
 1242              		.loc 1 615 0
 1243 03fe 2068     		ldr	r0, [r4]
 1244 0400 FFF7FEFF 		bl	USB_ReadInterrupts
 1245              	.LVL125:
 1246 0404 C502     		lsls	r5, r0, #11
 1247 0406 08D5     		bpl	.L87
 617:Drivers/STM32F4xx_HAL_Driver/Src/stm32f4xx_hal_pcd.c ****       HAL_PCD_ISOINIncompleteCallback(hpcd, epnum);
 1248              		.loc 1 617 0
 1249 0408 2046     		mov	r0, r4
 1250 040a F1B2     		uxtb	r1, r6
 1251 040c FFF7FEFF 		bl	HAL_PCD_ISOINIncompleteCallback
 1252              	.LVL126:
 618:Drivers/STM32F4xx_HAL_Driver/Src/stm32f4xx_hal_pcd.c ****       __HAL_PCD_CLEAR_FLAG(hpcd, USB_OTG_GINTSTS_IISOIXFR);
 1253              		.loc 1 618 0
 1254 0410 2368     		ldr	r3, [r4]
 1255 0412 5A69     		ldr	r2, [r3, #20]
 1256 0414 02F48012 		and	r2, r2, #1048576
 1257 0418 5A61     		str	r2, [r3, #20]
 1258              	.L87:
 622:Drivers/STM32F4xx_HAL_Driver/Src/stm32f4xx_hal_pcd.c ****     if(__HAL_PCD_GET_FLAG(hpcd, USB_OTG_GINTSTS_PXFR_INCOMPISOOUT))
 1259              		.loc 1 622 0
 1260 041a 2068     		ldr	r0, [r4]
 1261 041c FFF7FEFF 		bl	USB_ReadInterrupts
 1262              	.LVL127:
 1263 0420 8002     		lsls	r0, r0, #10
 1264 0422 08D5     		bpl	.L88
 624:Drivers/STM32F4xx_HAL_Driver/Src/stm32f4xx_hal_pcd.c ****       HAL_PCD_ISOOUTIncompleteCallback(hpcd, epnum);
 1265              		.loc 1 624 0
ARM GAS  /var/folders/19/rz7506jh8xn7x1006s6s574h0000gn/T//cceW6kab.s 			page 48


 1266 0424 2046     		mov	r0, r4
 1267 0426 F1B2     		uxtb	r1, r6
 1268 0428 FFF7FEFF 		bl	HAL_PCD_ISOOUTIncompleteCallback
 1269              	.LVL128:
 625:Drivers/STM32F4xx_HAL_Driver/Src/stm32f4xx_hal_pcd.c ****       __HAL_PCD_CLEAR_FLAG(hpcd, USB_OTG_GINTSTS_PXFR_INCOMPISOOUT);
 1270              		.loc 1 625 0
 1271 042c 2368     		ldr	r3, [r4]
 1272 042e 5A69     		ldr	r2, [r3, #20]
 1273 0430 02F40012 		and	r2, r2, #2097152
 1274 0434 5A61     		str	r2, [r3, #20]
 1275              	.L88:
 629:Drivers/STM32F4xx_HAL_Driver/Src/stm32f4xx_hal_pcd.c ****     if(__HAL_PCD_GET_FLAG(hpcd, USB_OTG_GINTSTS_SRQINT))
 1276              		.loc 1 629 0
 1277 0436 2068     		ldr	r0, [r4]
 1278 0438 FFF7FEFF 		bl	USB_ReadInterrupts
 1279              	.LVL129:
 1280 043c 4100     		lsls	r1, r0, #1
 1281 043e 07D5     		bpl	.L89
 631:Drivers/STM32F4xx_HAL_Driver/Src/stm32f4xx_hal_pcd.c ****       HAL_PCD_ConnectCallback(hpcd);
 1282              		.loc 1 631 0
 1283 0440 2046     		mov	r0, r4
 1284 0442 FFF7FEFF 		bl	HAL_PCD_ConnectCallback
 1285              	.LVL130:
 632:Drivers/STM32F4xx_HAL_Driver/Src/stm32f4xx_hal_pcd.c ****       __HAL_PCD_CLEAR_FLAG(hpcd, USB_OTG_GINTSTS_SRQINT);
 1286              		.loc 1 632 0
 1287 0446 2368     		ldr	r3, [r4]
 1288 0448 5A69     		ldr	r2, [r3, #20]
 1289 044a 02F08042 		and	r2, r2, #1073741824
 1290 044e 5A61     		str	r2, [r3, #20]
 1291              	.L89:
 636:Drivers/STM32F4xx_HAL_Driver/Src/stm32f4xx_hal_pcd.c ****     if(__HAL_PCD_GET_FLAG(hpcd, USB_OTG_GINTSTS_OTGINT))
 1292              		.loc 1 636 0
 1293 0450 2068     		ldr	r0, [r4]
 1294 0452 FFF7FEFF 		bl	USB_ReadInterrupts
 1295              	.LVL131:
 1296 0456 4207     		lsls	r2, r0, #29
 1297 0458 0AD5     		bpl	.L33
 638:Drivers/STM32F4xx_HAL_Driver/Src/stm32f4xx_hal_pcd.c ****       temp = hpcd->Instance->GOTGINT;
 1298              		.loc 1 638 0
 1299 045a 2368     		ldr	r3, [r4]
 1300 045c 5D68     		ldr	r5, [r3, #4]
 1301              	.LVL132:
 640:Drivers/STM32F4xx_HAL_Driver/Src/stm32f4xx_hal_pcd.c ****       if((temp & USB_OTG_GOTGINT_SEDET) == USB_OTG_GOTGINT_SEDET)
 1302              		.loc 1 640 0
 1303 045e 6B07     		lsls	r3, r5, #29
 1304 0460 02D5     		bpl	.L90
 642:Drivers/STM32F4xx_HAL_Driver/Src/stm32f4xx_hal_pcd.c ****         HAL_PCD_DisconnectCallback(hpcd);
 1305              		.loc 1 642 0
 1306 0462 2046     		mov	r0, r4
 1307 0464 FFF7FEFF 		bl	HAL_PCD_DisconnectCallback
 1308              	.LVL133:
 1309              	.L90:
 644:Drivers/STM32F4xx_HAL_Driver/Src/stm32f4xx_hal_pcd.c ****       hpcd->Instance->GOTGINT |= temp;
 1310              		.loc 1 644 0
 1311 0468 2368     		ldr	r3, [r4]
 1312 046a 5A68     		ldr	r2, [r3, #4]
 1313 046c 1543     		orrs	r5, r5, r2
ARM GAS  /var/folders/19/rz7506jh8xn7x1006s6s574h0000gn/T//cceW6kab.s 			page 49


 1314              	.LVL134:
 1315 046e 5D60     		str	r5, [r3, #4]
 1316              	.LVL135:
 1317              	.L33:
 647:Drivers/STM32F4xx_HAL_Driver/Src/stm32f4xx_hal_pcd.c **** }
 1318              		.loc 1 647 0
 1319 0470 07B0     		add	sp, sp, #28
 1320              		@ sp needed
 1321 0472 BDE8F08F 		pop	{r4, r5, r6, r7, r8, r9, r10, fp, pc}
 1322              		.cfi_endproc
 1323              	.LFE131:
 1325              		.section	.text.HAL_PCD_DevConnect,"ax",%progbits
 1326              		.align	1
 1327              		.global	HAL_PCD_DevConnect
 1328              		.thumb
 1329              		.thumb_func
 1331              	HAL_PCD_DevConnect:
 1332              	.LFB143:
 835:Drivers/STM32F4xx_HAL_Driver/Src/stm32f4xx_hal_pcd.c **** {
 1333              		.loc 1 835 0
 1334              		.cfi_startproc
 1335              		@ args = 0, pretend = 0, frame = 0
 1336              		@ frame_needed = 0, uses_anonymous_args = 0
 1337              	.LVL136:
 836:Drivers/STM32F4xx_HAL_Driver/Src/stm32f4xx_hal_pcd.c ****   __HAL_LOCK(hpcd); 
 1338              		.loc 1 836 0
 1339 0000 90F88033 		ldrb	r3, [r0, #896]	@ zero_extendqisi2
 1340 0004 012B     		cmp	r3, #1
 835:Drivers/STM32F4xx_HAL_Driver/Src/stm32f4xx_hal_pcd.c **** {
 1341              		.loc 1 835 0
 1342 0006 10B5     		push	{r4, lr}
 1343              	.LCFI7:
 1344              		.cfi_def_cfa_offset 8
 1345              		.cfi_offset 4, -8
 1346              		.cfi_offset 14, -4
 835:Drivers/STM32F4xx_HAL_Driver/Src/stm32f4xx_hal_pcd.c **** {
 1347              		.loc 1 835 0
 1348 0008 0446     		mov	r4, r0
 836:Drivers/STM32F4xx_HAL_Driver/Src/stm32f4xx_hal_pcd.c ****   __HAL_LOCK(hpcd); 
 1349              		.loc 1 836 0
 1350 000a 09D0     		beq	.L162
 836:Drivers/STM32F4xx_HAL_Driver/Src/stm32f4xx_hal_pcd.c ****   __HAL_LOCK(hpcd); 
 1351              		.loc 1 836 0 is_stmt 0 discriminator 2
 1352 000c 0123     		movs	r3, #1
 1353 000e 80F88033 		strb	r3, [r0, #896]
 837:Drivers/STM32F4xx_HAL_Driver/Src/stm32f4xx_hal_pcd.c ****   USB_DevConnect(hpcd->Instance);
 1354              		.loc 1 837 0 is_stmt 1 discriminator 2
 1355 0012 0068     		ldr	r0, [r0]
 1356              	.LVL137:
 1357 0014 FFF7FEFF 		bl	USB_DevConnect
 1358              	.LVL138:
 838:Drivers/STM32F4xx_HAL_Driver/Src/stm32f4xx_hal_pcd.c ****   __HAL_UNLOCK(hpcd); 
 1359              		.loc 1 838 0 discriminator 2
 1360 0018 0020     		movs	r0, #0
 1361 001a 84F88003 		strb	r0, [r4, #896]
 839:Drivers/STM32F4xx_HAL_Driver/Src/stm32f4xx_hal_pcd.c ****   return HAL_OK;
 1362              		.loc 1 839 0 discriminator 2
ARM GAS  /var/folders/19/rz7506jh8xn7x1006s6s574h0000gn/T//cceW6kab.s 			page 50


 1363 001e 10BD     		pop	{r4, pc}
 1364              	.LVL139:
 1365              	.L162:
 836:Drivers/STM32F4xx_HAL_Driver/Src/stm32f4xx_hal_pcd.c ****   __HAL_LOCK(hpcd); 
 1366              		.loc 1 836 0
 1367 0020 0220     		movs	r0, #2
 1368              	.LVL140:
 840:Drivers/STM32F4xx_HAL_Driver/Src/stm32f4xx_hal_pcd.c **** }
 1369              		.loc 1 840 0
 1370 0022 10BD     		pop	{r4, pc}
 1371              		.cfi_endproc
 1372              	.LFE143:
 1374              		.section	.text.HAL_PCD_DevDisconnect,"ax",%progbits
 1375              		.align	1
 1376              		.global	HAL_PCD_DevDisconnect
 1377              		.thumb
 1378              		.thumb_func
 1380              	HAL_PCD_DevDisconnect:
 1381              	.LFB144:
 848:Drivers/STM32F4xx_HAL_Driver/Src/stm32f4xx_hal_pcd.c **** {
 1382              		.loc 1 848 0
 1383              		.cfi_startproc
 1384              		@ args = 0, pretend = 0, frame = 0
 1385              		@ frame_needed = 0, uses_anonymous_args = 0
 1386              	.LVL141:
 849:Drivers/STM32F4xx_HAL_Driver/Src/stm32f4xx_hal_pcd.c ****   __HAL_LOCK(hpcd); 
 1387              		.loc 1 849 0
 1388 0000 90F88033 		ldrb	r3, [r0, #896]	@ zero_extendqisi2
 1389 0004 012B     		cmp	r3, #1
 848:Drivers/STM32F4xx_HAL_Driver/Src/stm32f4xx_hal_pcd.c **** {
 1390              		.loc 1 848 0
 1391 0006 10B5     		push	{r4, lr}
 1392              	.LCFI8:
 1393              		.cfi_def_cfa_offset 8
 1394              		.cfi_offset 4, -8
 1395              		.cfi_offset 14, -4
 848:Drivers/STM32F4xx_HAL_Driver/Src/stm32f4xx_hal_pcd.c **** {
 1396              		.loc 1 848 0
 1397 0008 0446     		mov	r4, r0
 849:Drivers/STM32F4xx_HAL_Driver/Src/stm32f4xx_hal_pcd.c ****   __HAL_LOCK(hpcd); 
 1398              		.loc 1 849 0
 1399 000a 09D0     		beq	.L165
 849:Drivers/STM32F4xx_HAL_Driver/Src/stm32f4xx_hal_pcd.c ****   __HAL_LOCK(hpcd); 
 1400              		.loc 1 849 0 is_stmt 0 discriminator 2
 1401 000c 0123     		movs	r3, #1
 1402 000e 80F88033 		strb	r3, [r0, #896]
 850:Drivers/STM32F4xx_HAL_Driver/Src/stm32f4xx_hal_pcd.c ****   USB_DevDisconnect(hpcd->Instance);
 1403              		.loc 1 850 0 is_stmt 1 discriminator 2
 1404 0012 0068     		ldr	r0, [r0]
 1405              	.LVL142:
 1406 0014 FFF7FEFF 		bl	USB_DevDisconnect
 1407              	.LVL143:
 851:Drivers/STM32F4xx_HAL_Driver/Src/stm32f4xx_hal_pcd.c ****   __HAL_UNLOCK(hpcd); 
 1408              		.loc 1 851 0 discriminator 2
 1409 0018 0020     		movs	r0, #0
 1410 001a 84F88003 		strb	r0, [r4, #896]
 852:Drivers/STM32F4xx_HAL_Driver/Src/stm32f4xx_hal_pcd.c ****   return HAL_OK;
ARM GAS  /var/folders/19/rz7506jh8xn7x1006s6s574h0000gn/T//cceW6kab.s 			page 51


 1411              		.loc 1 852 0 discriminator 2
 1412 001e 10BD     		pop	{r4, pc}
 1413              	.LVL144:
 1414              	.L165:
 849:Drivers/STM32F4xx_HAL_Driver/Src/stm32f4xx_hal_pcd.c ****   __HAL_LOCK(hpcd); 
 1415              		.loc 1 849 0
 1416 0020 0220     		movs	r0, #2
 1417              	.LVL145:
 853:Drivers/STM32F4xx_HAL_Driver/Src/stm32f4xx_hal_pcd.c **** }
 1418              		.loc 1 853 0
 1419 0022 10BD     		pop	{r4, pc}
 1420              		.cfi_endproc
 1421              	.LFE144:
 1423              		.section	.text.HAL_PCD_SetAddress,"ax",%progbits
 1424              		.align	1
 1425              		.global	HAL_PCD_SetAddress
 1426              		.thumb
 1427              		.thumb_func
 1429              	HAL_PCD_SetAddress:
 1430              	.LFB145:
 862:Drivers/STM32F4xx_HAL_Driver/Src/stm32f4xx_hal_pcd.c **** {
 1431              		.loc 1 862 0
 1432              		.cfi_startproc
 1433              		@ args = 0, pretend = 0, frame = 0
 1434              		@ frame_needed = 0, uses_anonymous_args = 0
 1435              	.LVL146:
 863:Drivers/STM32F4xx_HAL_Driver/Src/stm32f4xx_hal_pcd.c ****   __HAL_LOCK(hpcd); 
 1436              		.loc 1 863 0
 1437 0000 90F88033 		ldrb	r3, [r0, #896]	@ zero_extendqisi2
 1438 0004 012B     		cmp	r3, #1
 862:Drivers/STM32F4xx_HAL_Driver/Src/stm32f4xx_hal_pcd.c **** {
 1439              		.loc 1 862 0
 1440 0006 10B5     		push	{r4, lr}
 1441              	.LCFI9:
 1442              		.cfi_def_cfa_offset 8
 1443              		.cfi_offset 4, -8
 1444              		.cfi_offset 14, -4
 862:Drivers/STM32F4xx_HAL_Driver/Src/stm32f4xx_hal_pcd.c **** {
 1445              		.loc 1 862 0
 1446 0008 0446     		mov	r4, r0
 863:Drivers/STM32F4xx_HAL_Driver/Src/stm32f4xx_hal_pcd.c ****   __HAL_LOCK(hpcd); 
 1447              		.loc 1 863 0
 1448 000a 09D0     		beq	.L168
 863:Drivers/STM32F4xx_HAL_Driver/Src/stm32f4xx_hal_pcd.c ****   __HAL_LOCK(hpcd); 
 1449              		.loc 1 863 0 is_stmt 0 discriminator 2
 1450 000c 0123     		movs	r3, #1
 1451 000e 80F88033 		strb	r3, [r0, #896]
 864:Drivers/STM32F4xx_HAL_Driver/Src/stm32f4xx_hal_pcd.c ****   USB_SetDevAddress(hpcd->Instance, address);
 1452              		.loc 1 864 0 is_stmt 1 discriminator 2
 1453 0012 0068     		ldr	r0, [r0]
 1454              	.LVL147:
 1455 0014 FFF7FEFF 		bl	USB_SetDevAddress
 1456              	.LVL148:
 865:Drivers/STM32F4xx_HAL_Driver/Src/stm32f4xx_hal_pcd.c ****   __HAL_UNLOCK(hpcd);   
 1457              		.loc 1 865 0 discriminator 2
 1458 0018 0020     		movs	r0, #0
 1459 001a 84F88003 		strb	r0, [r4, #896]
ARM GAS  /var/folders/19/rz7506jh8xn7x1006s6s574h0000gn/T//cceW6kab.s 			page 52


 866:Drivers/STM32F4xx_HAL_Driver/Src/stm32f4xx_hal_pcd.c ****   return HAL_OK;
 1460              		.loc 1 866 0 discriminator 2
 1461 001e 10BD     		pop	{r4, pc}
 1462              	.LVL149:
 1463              	.L168:
 863:Drivers/STM32F4xx_HAL_Driver/Src/stm32f4xx_hal_pcd.c ****   __HAL_LOCK(hpcd); 
 1464              		.loc 1 863 0
 1465 0020 0220     		movs	r0, #2
 1466              	.LVL150:
 867:Drivers/STM32F4xx_HAL_Driver/Src/stm32f4xx_hal_pcd.c **** }
 1467              		.loc 1 867 0
 1468 0022 10BD     		pop	{r4, pc}
 1469              		.cfi_endproc
 1470              	.LFE145:
 1472              		.section	.text.HAL_PCD_EP_Open,"ax",%progbits
 1473              		.align	1
 1474              		.global	HAL_PCD_EP_Open
 1475              		.thumb
 1476              		.thumb_func
 1478              	HAL_PCD_EP_Open:
 1479              	.LFB146:
 877:Drivers/STM32F4xx_HAL_Driver/Src/stm32f4xx_hal_pcd.c **** {
 1480              		.loc 1 877 0
 1481              		.cfi_startproc
 1482              		@ args = 0, pretend = 0, frame = 0
 1483              		@ frame_needed = 0, uses_anonymous_args = 0
 1484              	.LVL151:
 1485 0000 70B5     		push	{r4, r5, r6, lr}
 1486              	.LCFI10:
 1487              		.cfi_def_cfa_offset 16
 1488              		.cfi_offset 4, -16
 1489              		.cfi_offset 5, -12
 1490              		.cfi_offset 6, -8
 1491              		.cfi_offset 14, -4
 881:Drivers/STM32F4xx_HAL_Driver/Src/stm32f4xx_hal_pcd.c ****   if ((ep_addr & 0x80) == 0x80)
 1492              		.loc 1 881 0
 1493 0002 CDB2     		uxtb	r5, r1
 1494 0004 15F0800F 		tst	r5, #128
 877:Drivers/STM32F4xx_HAL_Driver/Src/stm32f4xx_hal_pcd.c **** {
 1495              		.loc 1 877 0
 1496 0008 0446     		mov	r4, r0
 1497 000a 4FF01C06 		mov	r6, #28
 1498 000e 01F07F00 		and	r0, r1, #127
 1499              	.LVL152:
 883:Drivers/STM32F4xx_HAL_Driver/Src/stm32f4xx_hal_pcd.c ****     ep = &hpcd->IN_ep[ep_addr & 0x7F];
 1500              		.loc 1 883 0
 1501 0012 15BF     		itete	ne
 1502 0014 06FB0041 		mlane	r1, r6, r0, r4
 1503              	.LVL153:
 887:Drivers/STM32F4xx_HAL_Driver/Src/stm32f4xx_hal_pcd.c ****     ep = &hpcd->OUT_ep[ep_addr & 0x7F];
 1504              		.loc 1 887 0
 1505 0018 06FB0141 		mlaeq	r1, r6, r1, r4
 883:Drivers/STM32F4xx_HAL_Driver/Src/stm32f4xx_hal_pcd.c ****     ep = &hpcd->IN_ep[ep_addr & 0x7F];
 1506              		.loc 1 883 0
 1507 001c 3831     		addne	r1, r1, #56
 887:Drivers/STM32F4xx_HAL_Driver/Src/stm32f4xx_hal_pcd.c ****     ep = &hpcd->OUT_ep[ep_addr & 0x7F];
 1508              		.loc 1 887 0
ARM GAS  /var/folders/19/rz7506jh8xn7x1006s6s574h0000gn/T//cceW6kab.s 			page 53


 1509 001e 01F5EE71 		addeq	r1, r1, #476
 1510              	.LVL154:
 889:Drivers/STM32F4xx_HAL_Driver/Src/stm32f4xx_hal_pcd.c ****   ep->num   = ep_addr & 0x7F;
 1511              		.loc 1 889 0
 1512 0022 C0B2     		uxtb	r0, r0
 891:Drivers/STM32F4xx_HAL_Driver/Src/stm32f4xx_hal_pcd.c ****   ep->is_in = (0x80 & ep_addr) != 0;
 1513              		.loc 1 891 0
 1514 0024 ED09     		lsrs	r5, r5, #7
 1515              	.LVL155:
 889:Drivers/STM32F4xx_HAL_Driver/Src/stm32f4xx_hal_pcd.c ****   ep->num   = ep_addr & 0x7F;
 1516              		.loc 1 889 0
 1517 0026 0870     		strb	r0, [r1]
 891:Drivers/STM32F4xx_HAL_Driver/Src/stm32f4xx_hal_pcd.c ****   ep->is_in = (0x80 & ep_addr) != 0;
 1518              		.loc 1 891 0
 1519 0028 4D70     		strb	r5, [r1, #1]
 892:Drivers/STM32F4xx_HAL_Driver/Src/stm32f4xx_hal_pcd.c ****   ep->maxpacket = ep_mps;
 1520              		.loc 1 892 0
 1521 002a 8A60     		str	r2, [r1, #8]
 893:Drivers/STM32F4xx_HAL_Driver/Src/stm32f4xx_hal_pcd.c ****   ep->type = ep_type;
 1522              		.loc 1 893 0
 1523 002c CB70     		strb	r3, [r1, #3]
 894:Drivers/STM32F4xx_HAL_Driver/Src/stm32f4xx_hal_pcd.c ****   if (ep->is_in)
 1524              		.loc 1 894 0
 1525 002e 05B1     		cbz	r5, .L172
 897:Drivers/STM32F4xx_HAL_Driver/Src/stm32f4xx_hal_pcd.c ****     ep->tx_fifo_num = ep->num;
 1526              		.loc 1 897 0
 1527 0030 C880     		strh	r0, [r1, #6]	@ movhi
 1528              	.L172:
 900:Drivers/STM32F4xx_HAL_Driver/Src/stm32f4xx_hal_pcd.c ****   if (ep_type == EP_TYPE_BULK )
 1529              		.loc 1 900 0
 1530 0032 022B     		cmp	r3, #2
 902:Drivers/STM32F4xx_HAL_Driver/Src/stm32f4xx_hal_pcd.c ****     ep->data_pid_start = 0;
 1531              		.loc 1 902 0
 1532 0034 04BF     		itt	eq
 1533 0036 0023     		moveq	r3, #0
 1534              	.LVL156:
 1535 0038 0B71     		strbeq	r3, [r1, #4]
 905:Drivers/STM32F4xx_HAL_Driver/Src/stm32f4xx_hal_pcd.c ****   __HAL_LOCK(hpcd); 
 1536              		.loc 1 905 0
 1537 003a 94F88033 		ldrb	r3, [r4, #896]	@ zero_extendqisi2
 1538 003e 012B     		cmp	r3, #1
 1539 0040 09D0     		beq	.L175
 905:Drivers/STM32F4xx_HAL_Driver/Src/stm32f4xx_hal_pcd.c ****   __HAL_LOCK(hpcd); 
 1540              		.loc 1 905 0 is_stmt 0 discriminator 2
 1541 0042 0123     		movs	r3, #1
 1542 0044 84F88033 		strb	r3, [r4, #896]
 1543              	.LVL157:
 906:Drivers/STM32F4xx_HAL_Driver/Src/stm32f4xx_hal_pcd.c ****   USB_ActivateEndpoint(hpcd->Instance , ep);
 1544              		.loc 1 906 0 is_stmt 1 discriminator 2
 1545 0048 2068     		ldr	r0, [r4]
 1546 004a FFF7FEFF 		bl	USB_ActivateEndpoint
 1547              	.LVL158:
 907:Drivers/STM32F4xx_HAL_Driver/Src/stm32f4xx_hal_pcd.c ****   __HAL_UNLOCK(hpcd);   
 1548              		.loc 1 907 0 discriminator 2
 1549 004e 0020     		movs	r0, #0
 1550 0050 84F88003 		strb	r0, [r4, #896]
 908:Drivers/STM32F4xx_HAL_Driver/Src/stm32f4xx_hal_pcd.c ****   return ret;
ARM GAS  /var/folders/19/rz7506jh8xn7x1006s6s574h0000gn/T//cceW6kab.s 			page 54


 1551              		.loc 1 908 0 discriminator 2
 1552 0054 70BD     		pop	{r4, r5, r6, pc}
 1553              	.LVL159:
 1554              	.L175:
 905:Drivers/STM32F4xx_HAL_Driver/Src/stm32f4xx_hal_pcd.c ****   __HAL_LOCK(hpcd); 
 1555              		.loc 1 905 0
 1556 0056 0220     		movs	r0, #2
 909:Drivers/STM32F4xx_HAL_Driver/Src/stm32f4xx_hal_pcd.c **** }
 1557              		.loc 1 909 0
 1558 0058 70BD     		pop	{r4, r5, r6, pc}
 1559              		.cfi_endproc
 1560              	.LFE146:
 1562              		.section	.text.HAL_PCD_EP_Close,"ax",%progbits
 1563              		.align	1
 1564              		.global	HAL_PCD_EP_Close
 1565              		.thumb
 1566              		.thumb_func
 1568              	HAL_PCD_EP_Close:
 1569              	.LFB147:
 919:Drivers/STM32F4xx_HAL_Driver/Src/stm32f4xx_hal_pcd.c **** {  
 1570              		.loc 1 919 0
 1571              		.cfi_startproc
 1572              		@ args = 0, pretend = 0, frame = 0
 1573              		@ frame_needed = 0, uses_anonymous_args = 0
 1574              	.LVL160:
 922:Drivers/STM32F4xx_HAL_Driver/Src/stm32f4xx_hal_pcd.c ****   if ((ep_addr & 0x80) == 0x80)
 1575              		.loc 1 922 0
 1576 0000 CBB2     		uxtb	r3, r1
 1577 0002 13F0800F 		tst	r3, #128
 1578 0006 01F07F02 		and	r2, r1, #127
 919:Drivers/STM32F4xx_HAL_Driver/Src/stm32f4xx_hal_pcd.c **** {  
 1579              		.loc 1 919 0
 1580 000a 10B5     		push	{r4, lr}
 1581              	.LCFI11:
 1582              		.cfi_def_cfa_offset 8
 1583              		.cfi_offset 4, -8
 1584              		.cfi_offset 14, -4
 919:Drivers/STM32F4xx_HAL_Driver/Src/stm32f4xx_hal_pcd.c **** {  
 1585              		.loc 1 919 0
 1586 000c 0446     		mov	r4, r0
 1587 000e 4FF01C00 		mov	r0, #28
 1588              	.LVL161:
 924:Drivers/STM32F4xx_HAL_Driver/Src/stm32f4xx_hal_pcd.c ****     ep = &hpcd->IN_ep[ep_addr & 0x7F];
 1589              		.loc 1 924 0
 1590 0012 15BF     		itete	ne
 1591 0014 00FB0241 		mlane	r1, r0, r2, r4
 1592              	.LVL162:
 928:Drivers/STM32F4xx_HAL_Driver/Src/stm32f4xx_hal_pcd.c ****     ep = &hpcd->OUT_ep[ep_addr & 0x7F];
 1593              		.loc 1 928 0
 1594 0018 00FB0141 		mlaeq	r1, r0, r1, r4
 924:Drivers/STM32F4xx_HAL_Driver/Src/stm32f4xx_hal_pcd.c ****     ep = &hpcd->IN_ep[ep_addr & 0x7F];
 1595              		.loc 1 924 0
 1596 001c 3831     		addne	r1, r1, #56
 928:Drivers/STM32F4xx_HAL_Driver/Src/stm32f4xx_hal_pcd.c ****     ep = &hpcd->OUT_ep[ep_addr & 0x7F];
 1597              		.loc 1 928 0
 1598 001e 01F5EE71 		addeq	r1, r1, #476
 1599              	.LVL163:
ARM GAS  /var/folders/19/rz7506jh8xn7x1006s6s574h0000gn/T//cceW6kab.s 			page 55


 932:Drivers/STM32F4xx_HAL_Driver/Src/stm32f4xx_hal_pcd.c ****   ep->is_in = (0x80 & ep_addr) != 0;
 1600              		.loc 1 932 0
 1601 0022 DB09     		lsrs	r3, r3, #7
 1602              	.LVL164:
 930:Drivers/STM32F4xx_HAL_Driver/Src/stm32f4xx_hal_pcd.c ****   ep->num   = ep_addr & 0x7F;
 1603              		.loc 1 930 0
 1604 0024 0A70     		strb	r2, [r1]
 932:Drivers/STM32F4xx_HAL_Driver/Src/stm32f4xx_hal_pcd.c ****   ep->is_in = (0x80 & ep_addr) != 0;
 1605              		.loc 1 932 0
 1606 0026 4B70     		strb	r3, [r1, #1]
 934:Drivers/STM32F4xx_HAL_Driver/Src/stm32f4xx_hal_pcd.c ****   __HAL_LOCK(hpcd); 
 1607              		.loc 1 934 0
 1608 0028 94F88033 		ldrb	r3, [r4, #896]	@ zero_extendqisi2
 1609 002c 012B     		cmp	r3, #1
 1610 002e 09D0     		beq	.L183
 934:Drivers/STM32F4xx_HAL_Driver/Src/stm32f4xx_hal_pcd.c ****   __HAL_LOCK(hpcd); 
 1611              		.loc 1 934 0 is_stmt 0 discriminator 2
 1612 0030 0123     		movs	r3, #1
 1613 0032 84F88033 		strb	r3, [r4, #896]
 935:Drivers/STM32F4xx_HAL_Driver/Src/stm32f4xx_hal_pcd.c ****   USB_DeactivateEndpoint(hpcd->Instance , ep);
 1614              		.loc 1 935 0 is_stmt 1 discriminator 2
 1615 0036 2068     		ldr	r0, [r4]
 1616 0038 FFF7FEFF 		bl	USB_DeactivateEndpoint
 1617              	.LVL165:
 936:Drivers/STM32F4xx_HAL_Driver/Src/stm32f4xx_hal_pcd.c ****   __HAL_UNLOCK(hpcd);   
 1618              		.loc 1 936 0 discriminator 2
 1619 003c 0020     		movs	r0, #0
 1620 003e 84F88003 		strb	r0, [r4, #896]
 937:Drivers/STM32F4xx_HAL_Driver/Src/stm32f4xx_hal_pcd.c ****   return HAL_OK;
 1621              		.loc 1 937 0 discriminator 2
 1622 0042 10BD     		pop	{r4, pc}
 1623              	.LVL166:
 1624              	.L183:
 934:Drivers/STM32F4xx_HAL_Driver/Src/stm32f4xx_hal_pcd.c ****   __HAL_LOCK(hpcd); 
 1625              		.loc 1 934 0
 1626 0044 0220     		movs	r0, #2
 938:Drivers/STM32F4xx_HAL_Driver/Src/stm32f4xx_hal_pcd.c **** }
 1627              		.loc 1 938 0
 1628 0046 10BD     		pop	{r4, pc}
 1629              		.cfi_endproc
 1630              	.LFE147:
 1632              		.section	.text.HAL_PCD_EP_Receive,"ax",%progbits
 1633              		.align	1
 1634              		.global	HAL_PCD_EP_Receive
 1635              		.thumb
 1636              		.thumb_func
 1638              	HAL_PCD_EP_Receive:
 1639              	.LFB148:
 950:Drivers/STM32F4xx_HAL_Driver/Src/stm32f4xx_hal_pcd.c **** {
 1640              		.loc 1 950 0
 1641              		.cfi_startproc
 1642              		@ args = 0, pretend = 0, frame = 0
 1643              		@ frame_needed = 0, uses_anonymous_args = 0
 1644              	.LVL167:
 1645 0000 38B5     		push	{r3, r4, r5, lr}
 1646              	.LCFI12:
 1647              		.cfi_def_cfa_offset 16
ARM GAS  /var/folders/19/rz7506jh8xn7x1006s6s574h0000gn/T//cceW6kab.s 			page 56


 1648              		.cfi_offset 3, -16
 1649              		.cfi_offset 4, -12
 1650              		.cfi_offset 5, -8
 1651              		.cfi_offset 14, -4
 950:Drivers/STM32F4xx_HAL_Driver/Src/stm32f4xx_hal_pcd.c **** {
 1652              		.loc 1 950 0
 1653 0002 0446     		mov	r4, r0
 953:Drivers/STM32F4xx_HAL_Driver/Src/stm32f4xx_hal_pcd.c ****   ep = &hpcd->OUT_ep[ep_addr & 0x7F];
 1654              		.loc 1 953 0
 1655 0004 1C25     		movs	r5, #28
 1656 0006 01F07F00 		and	r0, r1, #127
 1657              	.LVL168:
 1658 000a 05FB0045 		mla	r5, r5, r0, r4
 1659 000e 05F5EE71 		add	r1, r5, #476
 1660              	.LVL169:
 957:Drivers/STM32F4xx_HAL_Driver/Src/stm32f4xx_hal_pcd.c ****   ep->xfer_len = len;
 1661              		.loc 1 957 0
 1662 0012 4B61     		str	r3, [r1, #20]
 958:Drivers/STM32F4xx_HAL_Driver/Src/stm32f4xx_hal_pcd.c ****   ep->xfer_count = 0;
 1663              		.loc 1 958 0
 1664 0014 0023     		movs	r3, #0
 1665              	.LVL170:
 959:Drivers/STM32F4xx_HAL_Driver/Src/stm32f4xx_hal_pcd.c ****   ep->is_in = 0;
 1666              		.loc 1 959 0
 1667 0016 4B70     		strb	r3, [r1, #1]
 956:Drivers/STM32F4xx_HAL_Driver/Src/stm32f4xx_hal_pcd.c ****   ep->xfer_buff = pBuf;  
 1668              		.loc 1 956 0
 1669 0018 CA60     		str	r2, [r1, #12]
 958:Drivers/STM32F4xx_HAL_Driver/Src/stm32f4xx_hal_pcd.c ****   ep->xfer_count = 0;
 1670              		.loc 1 958 0
 1671 001a 8B61     		str	r3, [r1, #24]
 960:Drivers/STM32F4xx_HAL_Driver/Src/stm32f4xx_hal_pcd.c ****   ep->num = ep_addr & 0x7F;
 1672              		.loc 1 960 0
 1673 001c 85F8DC01 		strb	r0, [r5, #476]
 962:Drivers/STM32F4xx_HAL_Driver/Src/stm32f4xx_hal_pcd.c ****   if (hpcd->Init.dma_enable == 1)
 1674              		.loc 1 962 0
 1675 0020 2369     		ldr	r3, [r4, #16]
 1676 0022 012B     		cmp	r3, #1
 964:Drivers/STM32F4xx_HAL_Driver/Src/stm32f4xx_hal_pcd.c ****     ep->dma_addr = (uint32_t)pBuf;  
 1677              		.loc 1 964 0
 1678 0024 08BF     		it	eq
 1679 0026 0A61     		streq	r2, [r1, #16]
 967:Drivers/STM32F4xx_HAL_Driver/Src/stm32f4xx_hal_pcd.c ****   __HAL_LOCK(hpcd); 
 1680              		.loc 1 967 0
 1681 0028 94F88023 		ldrb	r2, [r4, #896]	@ zero_extendqisi2
 1682              	.LVL171:
 1683 002c 012A     		cmp	r2, #1
 1684 002e 0FD0     		beq	.L189
 967:Drivers/STM32F4xx_HAL_Driver/Src/stm32f4xx_hal_pcd.c ****   __HAL_LOCK(hpcd); 
 1685              		.loc 1 967 0 is_stmt 0 discriminator 2
 1686 0030 0122     		movs	r2, #1
 1687 0032 84F88023 		strb	r2, [r4, #896]
 1688 0036 DAB2     		uxtb	r2, r3
 969:Drivers/STM32F4xx_HAL_Driver/Src/stm32f4xx_hal_pcd.c ****   if ((ep_addr & 0x7F) == 0 )
 1689              		.loc 1 969 0 is_stmt 1 discriminator 2
 1690 0038 18B9     		cbnz	r0, .L187
 971:Drivers/STM32F4xx_HAL_Driver/Src/stm32f4xx_hal_pcd.c ****     USB_EP0StartXfer(hpcd->Instance , ep, hpcd->Init.dma_enable);
ARM GAS  /var/folders/19/rz7506jh8xn7x1006s6s574h0000gn/T//cceW6kab.s 			page 57


 1691              		.loc 1 971 0
 1692 003a 2068     		ldr	r0, [r4]
 1693 003c FFF7FEFF 		bl	USB_EP0StartXfer
 1694              	.LVL172:
 1695 0040 02E0     		b	.L188
 1696              	.LVL173:
 1697              	.L187:
 975:Drivers/STM32F4xx_HAL_Driver/Src/stm32f4xx_hal_pcd.c ****     USB_EPStartXfer(hpcd->Instance , ep, hpcd->Init.dma_enable);
 1698              		.loc 1 975 0
 1699 0042 2068     		ldr	r0, [r4]
 1700 0044 FFF7FEFF 		bl	USB_EPStartXfer
 1701              	.LVL174:
 1702              	.L188:
 977:Drivers/STM32F4xx_HAL_Driver/Src/stm32f4xx_hal_pcd.c ****   __HAL_UNLOCK(hpcd); 
 1703              		.loc 1 977 0
 1704 0048 0020     		movs	r0, #0
 1705 004a 84F88003 		strb	r0, [r4, #896]
 979:Drivers/STM32F4xx_HAL_Driver/Src/stm32f4xx_hal_pcd.c ****   return HAL_OK;
 1706              		.loc 1 979 0
 1707 004e 38BD     		pop	{r3, r4, r5, pc}
 1708              	.LVL175:
 1709              	.L189:
 967:Drivers/STM32F4xx_HAL_Driver/Src/stm32f4xx_hal_pcd.c ****   __HAL_LOCK(hpcd); 
 1710              		.loc 1 967 0
 1711 0050 0220     		movs	r0, #2
 980:Drivers/STM32F4xx_HAL_Driver/Src/stm32f4xx_hal_pcd.c **** }
 1712              		.loc 1 980 0
 1713 0052 38BD     		pop	{r3, r4, r5, pc}
 1714              		.cfi_endproc
 1715              	.LFE148:
 1717              		.section	.text.HAL_PCD_EP_GetRxCount,"ax",%progbits
 1718              		.align	1
 1719              		.global	HAL_PCD_EP_GetRxCount
 1720              		.thumb
 1721              		.thumb_func
 1723              	HAL_PCD_EP_GetRxCount:
 1724              	.LFB149:
 989:Drivers/STM32F4xx_HAL_Driver/Src/stm32f4xx_hal_pcd.c **** {
 1725              		.loc 1 989 0
 1726              		.cfi_startproc
 1727              		@ args = 0, pretend = 0, frame = 0
 1728              		@ frame_needed = 0, uses_anonymous_args = 0
 1729              		@ link register save eliminated.
 1730              	.LVL176:
 990:Drivers/STM32F4xx_HAL_Driver/Src/stm32f4xx_hal_pcd.c ****   return hpcd->OUT_ep[ep_addr & 0x7F].xfer_count;
 1731              		.loc 1 990 0
 1732 0000 01F07F01 		and	r1, r1, #127
 1733              	.LVL177:
 1734 0004 1C23     		movs	r3, #28
 1735 0006 03FB0100 		mla	r0, r3, r1, r0
 1736              	.LVL178:
 991:Drivers/STM32F4xx_HAL_Driver/Src/stm32f4xx_hal_pcd.c **** }
 1737              		.loc 1 991 0
 1738 000a B0F8F401 		ldrh	r0, [r0, #500]
 1739 000e 7047     		bx	lr
 1740              		.cfi_endproc
 1741              	.LFE149:
ARM GAS  /var/folders/19/rz7506jh8xn7x1006s6s574h0000gn/T//cceW6kab.s 			page 58


 1743              		.section	.text.HAL_PCD_EP_Transmit,"ax",%progbits
 1744              		.align	1
 1745              		.global	HAL_PCD_EP_Transmit
 1746              		.thumb
 1747              		.thumb_func
 1749              	HAL_PCD_EP_Transmit:
 1750              	.LFB150:
1001:Drivers/STM32F4xx_HAL_Driver/Src/stm32f4xx_hal_pcd.c **** {
 1751              		.loc 1 1001 0
 1752              		.cfi_startproc
 1753              		@ args = 0, pretend = 0, frame = 0
 1754              		@ frame_needed = 0, uses_anonymous_args = 0
 1755              	.LVL179:
 1756 0000 38B5     		push	{r3, r4, r5, lr}
 1757              	.LCFI13:
 1758              		.cfi_def_cfa_offset 16
 1759              		.cfi_offset 3, -16
 1760              		.cfi_offset 4, -12
 1761              		.cfi_offset 5, -8
 1762              		.cfi_offset 14, -4
1001:Drivers/STM32F4xx_HAL_Driver/Src/stm32f4xx_hal_pcd.c **** {
 1763              		.loc 1 1001 0
 1764 0002 0446     		mov	r4, r0
1004:Drivers/STM32F4xx_HAL_Driver/Src/stm32f4xx_hal_pcd.c ****   ep = &hpcd->IN_ep[ep_addr & 0x7F];
 1765              		.loc 1 1004 0
 1766 0004 1C25     		movs	r5, #28
 1767 0006 01F07F00 		and	r0, r1, #127
 1768              	.LVL180:
 1769 000a 4543     		muls	r5, r0, r5
 1770 000c 3835     		adds	r5, r5, #56
 1771 000e 6119     		adds	r1, r4, r5
 1772              	.LVL181:
1008:Drivers/STM32F4xx_HAL_Driver/Src/stm32f4xx_hal_pcd.c ****   ep->xfer_len = len;
 1773              		.loc 1 1008 0
 1774 0010 4B61     		str	r3, [r1, #20]
1009:Drivers/STM32F4xx_HAL_Driver/Src/stm32f4xx_hal_pcd.c ****   ep->xfer_count = 0;
 1775              		.loc 1 1009 0
 1776 0012 0023     		movs	r3, #0
 1777              	.LVL182:
 1778 0014 8B61     		str	r3, [r1, #24]
1010:Drivers/STM32F4xx_HAL_Driver/Src/stm32f4xx_hal_pcd.c ****   ep->is_in = 1;
 1779              		.loc 1 1010 0
 1780 0016 0123     		movs	r3, #1
 1781 0018 4B70     		strb	r3, [r1, #1]
1007:Drivers/STM32F4xx_HAL_Driver/Src/stm32f4xx_hal_pcd.c ****   ep->xfer_buff = pBuf;  
 1782              		.loc 1 1007 0
 1783 001a CA60     		str	r2, [r1, #12]
1011:Drivers/STM32F4xx_HAL_Driver/Src/stm32f4xx_hal_pcd.c ****   ep->num = ep_addr & 0x7F;
 1784              		.loc 1 1011 0
 1785 001c 6055     		strb	r0, [r4, r5]
1013:Drivers/STM32F4xx_HAL_Driver/Src/stm32f4xx_hal_pcd.c ****   if (hpcd->Init.dma_enable == 1)
 1786              		.loc 1 1013 0
 1787 001e 2369     		ldr	r3, [r4, #16]
 1788 0020 012B     		cmp	r3, #1
1015:Drivers/STM32F4xx_HAL_Driver/Src/stm32f4xx_hal_pcd.c ****     ep->dma_addr = (uint32_t)pBuf;  
 1789              		.loc 1 1015 0
 1790 0022 08BF     		it	eq
ARM GAS  /var/folders/19/rz7506jh8xn7x1006s6s574h0000gn/T//cceW6kab.s 			page 59


 1791 0024 0A61     		streq	r2, [r1, #16]
1018:Drivers/STM32F4xx_HAL_Driver/Src/stm32f4xx_hal_pcd.c ****   __HAL_LOCK(hpcd); 
 1792              		.loc 1 1018 0
 1793 0026 94F88023 		ldrb	r2, [r4, #896]	@ zero_extendqisi2
 1794              	.LVL183:
 1795 002a 012A     		cmp	r2, #1
 1796 002c 0FD0     		beq	.L196
1018:Drivers/STM32F4xx_HAL_Driver/Src/stm32f4xx_hal_pcd.c ****   __HAL_LOCK(hpcd); 
 1797              		.loc 1 1018 0 is_stmt 0 discriminator 2
 1798 002e 0122     		movs	r2, #1
 1799 0030 84F88023 		strb	r2, [r4, #896]
 1800 0034 DAB2     		uxtb	r2, r3
1020:Drivers/STM32F4xx_HAL_Driver/Src/stm32f4xx_hal_pcd.c ****   if ((ep_addr & 0x7F) == 0 )
 1801              		.loc 1 1020 0 is_stmt 1 discriminator 2
 1802 0036 18B9     		cbnz	r0, .L194
1022:Drivers/STM32F4xx_HAL_Driver/Src/stm32f4xx_hal_pcd.c ****     USB_EP0StartXfer(hpcd->Instance , ep, hpcd->Init.dma_enable);
 1803              		.loc 1 1022 0
 1804 0038 2068     		ldr	r0, [r4]
 1805 003a FFF7FEFF 		bl	USB_EP0StartXfer
 1806              	.LVL184:
 1807 003e 02E0     		b	.L195
 1808              	.LVL185:
 1809              	.L194:
1026:Drivers/STM32F4xx_HAL_Driver/Src/stm32f4xx_hal_pcd.c ****     USB_EPStartXfer(hpcd->Instance , ep, hpcd->Init.dma_enable);
 1810              		.loc 1 1026 0
 1811 0040 2068     		ldr	r0, [r4]
 1812 0042 FFF7FEFF 		bl	USB_EPStartXfer
 1813              	.LVL186:
 1814              	.L195:
1029:Drivers/STM32F4xx_HAL_Driver/Src/stm32f4xx_hal_pcd.c ****   __HAL_UNLOCK(hpcd);
 1815              		.loc 1 1029 0
 1816 0046 0020     		movs	r0, #0
 1817 0048 84F88003 		strb	r0, [r4, #896]
1031:Drivers/STM32F4xx_HAL_Driver/Src/stm32f4xx_hal_pcd.c ****   return HAL_OK;
 1818              		.loc 1 1031 0
 1819 004c 38BD     		pop	{r3, r4, r5, pc}
 1820              	.LVL187:
 1821              	.L196:
1018:Drivers/STM32F4xx_HAL_Driver/Src/stm32f4xx_hal_pcd.c ****   __HAL_LOCK(hpcd); 
 1822              		.loc 1 1018 0
 1823 004e 0220     		movs	r0, #2
1032:Drivers/STM32F4xx_HAL_Driver/Src/stm32f4xx_hal_pcd.c **** }
 1824              		.loc 1 1032 0
 1825 0050 38BD     		pop	{r3, r4, r5, pc}
 1826              		.cfi_endproc
 1827              	.LFE150:
 1829              		.section	.text.HAL_PCD_EP_SetStall,"ax",%progbits
 1830              		.align	1
 1831              		.global	HAL_PCD_EP_SetStall
 1832              		.thumb
 1833              		.thumb_func
 1835              	HAL_PCD_EP_SetStall:
 1836              	.LFB151:
1041:Drivers/STM32F4xx_HAL_Driver/Src/stm32f4xx_hal_pcd.c **** {
 1837              		.loc 1 1041 0
 1838              		.cfi_startproc
 1839              		@ args = 0, pretend = 0, frame = 0
ARM GAS  /var/folders/19/rz7506jh8xn7x1006s6s574h0000gn/T//cceW6kab.s 			page 60


 1840              		@ frame_needed = 0, uses_anonymous_args = 0
 1841              	.LVL188:
1044:Drivers/STM32F4xx_HAL_Driver/Src/stm32f4xx_hal_pcd.c ****   if ((0x80 & ep_addr) == 0x80)
 1842              		.loc 1 1044 0
 1843 0000 CAB2     		uxtb	r2, r1
1041:Drivers/STM32F4xx_HAL_Driver/Src/stm32f4xx_hal_pcd.c **** {
 1844              		.loc 1 1041 0
 1845 0002 38B5     		push	{r3, r4, r5, lr}
 1846              	.LCFI14:
 1847              		.cfi_def_cfa_offset 16
 1848              		.cfi_offset 3, -16
 1849              		.cfi_offset 4, -12
 1850              		.cfi_offset 5, -8
 1851              		.cfi_offset 14, -4
1044:Drivers/STM32F4xx_HAL_Driver/Src/stm32f4xx_hal_pcd.c ****   if ((0x80 & ep_addr) == 0x80)
 1852              		.loc 1 1044 0
 1853 0004 12F0800F 		tst	r2, #128
 1854 0008 01F07F05 		and	r5, r1, #127
 1855 000c 4FF01C03 		mov	r3, #28
1046:Drivers/STM32F4xx_HAL_Driver/Src/stm32f4xx_hal_pcd.c ****     ep = &hpcd->IN_ep[ep_addr & 0x7F];
 1856              		.loc 1 1046 0
 1857 0010 15BF     		itete	ne
 1858 0012 03FB0501 		mlane	r1, r3, r5, r0
 1859              	.LVL189:
1050:Drivers/STM32F4xx_HAL_Driver/Src/stm32f4xx_hal_pcd.c ****     ep = &hpcd->OUT_ep[ep_addr];
 1860              		.loc 1 1050 0
 1861 0016 03FB0101 		mlaeq	r1, r3, r1, r0
1046:Drivers/STM32F4xx_HAL_Driver/Src/stm32f4xx_hal_pcd.c ****     ep = &hpcd->IN_ep[ep_addr & 0x7F];
 1862              		.loc 1 1046 0
 1863 001a 3831     		addne	r1, r1, #56
1050:Drivers/STM32F4xx_HAL_Driver/Src/stm32f4xx_hal_pcd.c ****     ep = &hpcd->OUT_ep[ep_addr];
 1864              		.loc 1 1050 0
 1865 001c 01F5EE71 		addeq	r1, r1, #476
 1866              	.LVL190:
1053:Drivers/STM32F4xx_HAL_Driver/Src/stm32f4xx_hal_pcd.c ****   ep->is_stall = 1;
 1867              		.loc 1 1053 0
 1868 0020 0123     		movs	r3, #1
1055:Drivers/STM32F4xx_HAL_Driver/Src/stm32f4xx_hal_pcd.c ****   ep->is_in = ((ep_addr & 0x80) == 0x80);
 1869              		.loc 1 1055 0
 1870 0022 D209     		lsrs	r2, r2, #7
 1871              	.LVL191:
1054:Drivers/STM32F4xx_HAL_Driver/Src/stm32f4xx_hal_pcd.c ****   ep->num   = ep_addr & 0x7F;
 1872              		.loc 1 1054 0
 1873 0024 EDB2     		uxtb	r5, r5
1053:Drivers/STM32F4xx_HAL_Driver/Src/stm32f4xx_hal_pcd.c ****   ep->is_stall = 1;
 1874              		.loc 1 1053 0
 1875 0026 8B70     		strb	r3, [r1, #2]
1054:Drivers/STM32F4xx_HAL_Driver/Src/stm32f4xx_hal_pcd.c ****   ep->num   = ep_addr & 0x7F;
 1876              		.loc 1 1054 0
 1877 0028 0D70     		strb	r5, [r1]
1055:Drivers/STM32F4xx_HAL_Driver/Src/stm32f4xx_hal_pcd.c ****   ep->is_in = ((ep_addr & 0x80) == 0x80);
 1878              		.loc 1 1055 0
 1879 002a 4A70     		strb	r2, [r1, #1]
1058:Drivers/STM32F4xx_HAL_Driver/Src/stm32f4xx_hal_pcd.c ****   __HAL_LOCK(hpcd); 
 1880              		.loc 1 1058 0
 1881 002c 90F88023 		ldrb	r2, [r0, #896]	@ zero_extendqisi2
 1882 0030 9A42     		cmp	r2, r3
ARM GAS  /var/folders/19/rz7506jh8xn7x1006s6s574h0000gn/T//cceW6kab.s 			page 61


1041:Drivers/STM32F4xx_HAL_Driver/Src/stm32f4xx_hal_pcd.c **** {
 1883              		.loc 1 1041 0
 1884 0032 0446     		mov	r4, r0
1058:Drivers/STM32F4xx_HAL_Driver/Src/stm32f4xx_hal_pcd.c ****   __HAL_LOCK(hpcd); 
 1885              		.loc 1 1058 0
 1886 0034 0FD0     		beq	.L202
1058:Drivers/STM32F4xx_HAL_Driver/Src/stm32f4xx_hal_pcd.c ****   __HAL_LOCK(hpcd); 
 1887              		.loc 1 1058 0 is_stmt 0 discriminator 2
 1888 0036 80F88033 		strb	r3, [r0, #896]
1059:Drivers/STM32F4xx_HAL_Driver/Src/stm32f4xx_hal_pcd.c ****   USB_EPSetStall(hpcd->Instance , ep);
 1889              		.loc 1 1059 0 is_stmt 1 discriminator 2
 1890 003a 0068     		ldr	r0, [r0]
 1891              	.LVL192:
 1892 003c FFF7FEFF 		bl	USB_EPSetStall
 1893              	.LVL193:
1060:Drivers/STM32F4xx_HAL_Driver/Src/stm32f4xx_hal_pcd.c ****   if((ep_addr & 0x7F) == 0)
 1894              		.loc 1 1060 0 discriminator 2
 1895 0040 2DB9     		cbnz	r5, .L201
1062:Drivers/STM32F4xx_HAL_Driver/Src/stm32f4xx_hal_pcd.c ****     USB_EP0_OutStart(hpcd->Instance, hpcd->Init.dma_enable, (uint8_t *)hpcd->Setup);
 1896              		.loc 1 1062 0
 1897 0042 2068     		ldr	r0, [r4]
 1898 0044 217C     		ldrb	r1, [r4, #16]	@ zero_extendqisi2
 1899 0046 04F56172 		add	r2, r4, #900
 1900 004a FFF7FEFF 		bl	USB_EP0_OutStart
 1901              	.LVL194:
 1902              	.L201:
1064:Drivers/STM32F4xx_HAL_Driver/Src/stm32f4xx_hal_pcd.c ****   __HAL_UNLOCK(hpcd); 
 1903              		.loc 1 1064 0
 1904 004e 0020     		movs	r0, #0
 1905 0050 84F88003 		strb	r0, [r4, #896]
1066:Drivers/STM32F4xx_HAL_Driver/Src/stm32f4xx_hal_pcd.c ****   return HAL_OK;
 1906              		.loc 1 1066 0
 1907 0054 38BD     		pop	{r3, r4, r5, pc}
 1908              	.LVL195:
 1909              	.L202:
1058:Drivers/STM32F4xx_HAL_Driver/Src/stm32f4xx_hal_pcd.c ****   __HAL_LOCK(hpcd); 
 1910              		.loc 1 1058 0
 1911 0056 0220     		movs	r0, #2
 1912              	.LVL196:
1067:Drivers/STM32F4xx_HAL_Driver/Src/stm32f4xx_hal_pcd.c **** }
 1913              		.loc 1 1067 0
 1914 0058 38BD     		pop	{r3, r4, r5, pc}
 1915              		.cfi_endproc
 1916              	.LFE151:
 1918              		.section	.text.HAL_PCD_EP_ClrStall,"ax",%progbits
 1919              		.align	1
 1920              		.global	HAL_PCD_EP_ClrStall
 1921              		.thumb
 1922              		.thumb_func
 1924              	HAL_PCD_EP_ClrStall:
 1925              	.LFB152:
1076:Drivers/STM32F4xx_HAL_Driver/Src/stm32f4xx_hal_pcd.c **** {
 1926              		.loc 1 1076 0
 1927              		.cfi_startproc
 1928              		@ args = 0, pretend = 0, frame = 0
 1929              		@ frame_needed = 0, uses_anonymous_args = 0
 1930              	.LVL197:
ARM GAS  /var/folders/19/rz7506jh8xn7x1006s6s574h0000gn/T//cceW6kab.s 			page 62


 1931 0000 38B5     		push	{r3, r4, r5, lr}
 1932              	.LCFI15:
 1933              		.cfi_def_cfa_offset 16
 1934              		.cfi_offset 3, -16
 1935              		.cfi_offset 4, -12
 1936              		.cfi_offset 5, -8
 1937              		.cfi_offset 14, -4
1079:Drivers/STM32F4xx_HAL_Driver/Src/stm32f4xx_hal_pcd.c ****   if ((0x80 & ep_addr) == 0x80)
 1938              		.loc 1 1079 0
 1939 0002 CBB2     		uxtb	r3, r1
 1940 0004 13F0800F 		tst	r3, #128
 1941 0008 01F07F02 		and	r2, r1, #127
1076:Drivers/STM32F4xx_HAL_Driver/Src/stm32f4xx_hal_pcd.c **** {
 1942              		.loc 1 1076 0
 1943 000c 0446     		mov	r4, r0
 1944 000e 4FF01C00 		mov	r0, #28
 1945              	.LVL198:
1081:Drivers/STM32F4xx_HAL_Driver/Src/stm32f4xx_hal_pcd.c ****     ep = &hpcd->IN_ep[ep_addr & 0x7F];
 1946              		.loc 1 1081 0
 1947 0012 15BF     		itete	ne
 1948 0014 00FB0241 		mlane	r1, r0, r2, r4
 1949              	.LVL199:
1085:Drivers/STM32F4xx_HAL_Driver/Src/stm32f4xx_hal_pcd.c ****     ep = &hpcd->OUT_ep[ep_addr];
 1950              		.loc 1 1085 0
 1951 0018 00FB0141 		mlaeq	r1, r0, r1, r4
1081:Drivers/STM32F4xx_HAL_Driver/Src/stm32f4xx_hal_pcd.c ****     ep = &hpcd->IN_ep[ep_addr & 0x7F];
 1952              		.loc 1 1081 0
 1953 001c 3831     		addne	r1, r1, #56
1085:Drivers/STM32F4xx_HAL_Driver/Src/stm32f4xx_hal_pcd.c ****     ep = &hpcd->OUT_ep[ep_addr];
 1954              		.loc 1 1085 0
 1955 001e 01F5EE71 		addeq	r1, r1, #476
 1956              	.LVL200:
1090:Drivers/STM32F4xx_HAL_Driver/Src/stm32f4xx_hal_pcd.c ****   ep->is_in = ((ep_addr & 0x80) == 0x80);
 1957              		.loc 1 1090 0
 1958 0022 DB09     		lsrs	r3, r3, #7
 1959              	.LVL201:
1088:Drivers/STM32F4xx_HAL_Driver/Src/stm32f4xx_hal_pcd.c ****   ep->is_stall = 0;
 1960              		.loc 1 1088 0
 1961 0024 0025     		movs	r5, #0
 1962 0026 8D70     		strb	r5, [r1, #2]
1089:Drivers/STM32F4xx_HAL_Driver/Src/stm32f4xx_hal_pcd.c ****   ep->num   = ep_addr & 0x7F;
 1963              		.loc 1 1089 0
 1964 0028 0A70     		strb	r2, [r1]
1090:Drivers/STM32F4xx_HAL_Driver/Src/stm32f4xx_hal_pcd.c ****   ep->is_in = ((ep_addr & 0x80) == 0x80);
 1965              		.loc 1 1090 0
 1966 002a 4B70     		strb	r3, [r1, #1]
1092:Drivers/STM32F4xx_HAL_Driver/Src/stm32f4xx_hal_pcd.c ****   __HAL_LOCK(hpcd); 
 1967              		.loc 1 1092 0
 1968 002c 94F88033 		ldrb	r3, [r4, #896]	@ zero_extendqisi2
 1969 0030 012B     		cmp	r3, #1
 1970 0032 09D0     		beq	.L207
1092:Drivers/STM32F4xx_HAL_Driver/Src/stm32f4xx_hal_pcd.c ****   __HAL_LOCK(hpcd); 
 1971              		.loc 1 1092 0 is_stmt 0 discriminator 2
 1972 0034 0123     		movs	r3, #1
 1973 0036 84F88033 		strb	r3, [r4, #896]
1093:Drivers/STM32F4xx_HAL_Driver/Src/stm32f4xx_hal_pcd.c ****   USB_EPClearStall(hpcd->Instance , ep);
 1974              		.loc 1 1093 0 is_stmt 1 discriminator 2
ARM GAS  /var/folders/19/rz7506jh8xn7x1006s6s574h0000gn/T//cceW6kab.s 			page 63


 1975 003a 2068     		ldr	r0, [r4]
 1976 003c FFF7FEFF 		bl	USB_EPClearStall
 1977              	.LVL202:
1094:Drivers/STM32F4xx_HAL_Driver/Src/stm32f4xx_hal_pcd.c ****   __HAL_UNLOCK(hpcd); 
 1978              		.loc 1 1094 0 discriminator 2
 1979 0040 84F88053 		strb	r5, [r4, #896]
1096:Drivers/STM32F4xx_HAL_Driver/Src/stm32f4xx_hal_pcd.c ****   return HAL_OK;
 1980              		.loc 1 1096 0 discriminator 2
 1981 0044 2846     		mov	r0, r5
 1982 0046 38BD     		pop	{r3, r4, r5, pc}
 1983              	.LVL203:
 1984              	.L207:
1092:Drivers/STM32F4xx_HAL_Driver/Src/stm32f4xx_hal_pcd.c ****   __HAL_LOCK(hpcd); 
 1985              		.loc 1 1092 0
 1986 0048 0220     		movs	r0, #2
1097:Drivers/STM32F4xx_HAL_Driver/Src/stm32f4xx_hal_pcd.c **** }
 1987              		.loc 1 1097 0
 1988 004a 38BD     		pop	{r3, r4, r5, pc}
 1989              		.cfi_endproc
 1990              	.LFE152:
 1992              		.section	.text.HAL_PCD_EP_Flush,"ax",%progbits
 1993              		.align	1
 1994              		.global	HAL_PCD_EP_Flush
 1995              		.thumb
 1996              		.thumb_func
 1998              	HAL_PCD_EP_Flush:
 1999              	.LFB153:
1106:Drivers/STM32F4xx_HAL_Driver/Src/stm32f4xx_hal_pcd.c **** {
 2000              		.loc 1 1106 0
 2001              		.cfi_startproc
 2002              		@ args = 0, pretend = 0, frame = 0
 2003              		@ frame_needed = 0, uses_anonymous_args = 0
 2004              	.LVL204:
1107:Drivers/STM32F4xx_HAL_Driver/Src/stm32f4xx_hal_pcd.c ****   __HAL_LOCK(hpcd); 
 2005              		.loc 1 1107 0
 2006 0000 90F88033 		ldrb	r3, [r0, #896]	@ zero_extendqisi2
 2007 0004 012B     		cmp	r3, #1
1106:Drivers/STM32F4xx_HAL_Driver/Src/stm32f4xx_hal_pcd.c **** {
 2008              		.loc 1 1106 0
 2009 0006 10B5     		push	{r4, lr}
 2010              	.LCFI16:
 2011              		.cfi_def_cfa_offset 8
 2012              		.cfi_offset 4, -8
 2013              		.cfi_offset 14, -4
1106:Drivers/STM32F4xx_HAL_Driver/Src/stm32f4xx_hal_pcd.c **** {
 2014              		.loc 1 1106 0
 2015 0008 0446     		mov	r4, r0
1107:Drivers/STM32F4xx_HAL_Driver/Src/stm32f4xx_hal_pcd.c ****   __HAL_LOCK(hpcd); 
 2016              		.loc 1 1107 0
 2017 000a 10D0     		beq	.L212
1107:Drivers/STM32F4xx_HAL_Driver/Src/stm32f4xx_hal_pcd.c ****   __HAL_LOCK(hpcd); 
 2018              		.loc 1 1107 0 is_stmt 0 discriminator 2
 2019 000c 0123     		movs	r3, #1
 2020 000e 80F88033 		strb	r3, [r0, #896]
1109:Drivers/STM32F4xx_HAL_Driver/Src/stm32f4xx_hal_pcd.c ****   if ((ep_addr & 0x80) == 0x80)
 2021              		.loc 1 1109 0 is_stmt 1 discriminator 2
 2022 0012 0B06     		lsls	r3, r1, #24
ARM GAS  /var/folders/19/rz7506jh8xn7x1006s6s574h0000gn/T//cceW6kab.s 			page 64


1111:Drivers/STM32F4xx_HAL_Driver/Src/stm32f4xx_hal_pcd.c ****     USB_FlushTxFifo(hpcd->Instance, ep_addr & 0x7F);
 2023              		.loc 1 1111 0 discriminator 2
 2024 0014 0068     		ldr	r0, [r0]
 2025              	.LVL205:
1109:Drivers/STM32F4xx_HAL_Driver/Src/stm32f4xx_hal_pcd.c ****   if ((ep_addr & 0x80) == 0x80)
 2026              		.loc 1 1109 0 discriminator 2
 2027 0016 04D5     		bpl	.L210
1111:Drivers/STM32F4xx_HAL_Driver/Src/stm32f4xx_hal_pcd.c ****     USB_FlushTxFifo(hpcd->Instance, ep_addr & 0x7F);
 2028              		.loc 1 1111 0
 2029 0018 01F07F01 		and	r1, r1, #127
 2030              	.LVL206:
 2031 001c FFF7FEFF 		bl	USB_FlushTxFifo
 2032              	.LVL207:
 2033 0020 01E0     		b	.L211
 2034              	.LVL208:
 2035              	.L210:
1115:Drivers/STM32F4xx_HAL_Driver/Src/stm32f4xx_hal_pcd.c ****     USB_FlushRxFifo(hpcd->Instance);
 2036              		.loc 1 1115 0
 2037 0022 FFF7FEFF 		bl	USB_FlushRxFifo
 2038              	.LVL209:
 2039              	.L211:
1118:Drivers/STM32F4xx_HAL_Driver/Src/stm32f4xx_hal_pcd.c ****   __HAL_UNLOCK(hpcd); 
 2040              		.loc 1 1118 0
 2041 0026 0020     		movs	r0, #0
 2042 0028 84F88003 		strb	r0, [r4, #896]
1120:Drivers/STM32F4xx_HAL_Driver/Src/stm32f4xx_hal_pcd.c ****   return HAL_OK;
 2043              		.loc 1 1120 0
 2044 002c 10BD     		pop	{r4, pc}
 2045              	.LVL210:
 2046              	.L212:
1107:Drivers/STM32F4xx_HAL_Driver/Src/stm32f4xx_hal_pcd.c ****   __HAL_LOCK(hpcd); 
 2047              		.loc 1 1107 0
 2048 002e 0220     		movs	r0, #2
 2049              	.LVL211:
1121:Drivers/STM32F4xx_HAL_Driver/Src/stm32f4xx_hal_pcd.c **** }
 2050              		.loc 1 1121 0
 2051 0030 10BD     		pop	{r4, pc}
 2052              		.cfi_endproc
 2053              	.LFE153:
 2055              		.section	.text.HAL_PCD_ActivateRemoteWakeup,"ax",%progbits
 2056              		.align	1
 2057              		.global	HAL_PCD_ActivateRemoteWakeup
 2058              		.thumb
 2059              		.thumb_func
 2061              	HAL_PCD_ActivateRemoteWakeup:
 2062              	.LFB154:
1129:Drivers/STM32F4xx_HAL_Driver/Src/stm32f4xx_hal_pcd.c **** {
 2063              		.loc 1 1129 0
 2064              		.cfi_startproc
 2065              		@ args = 0, pretend = 0, frame = 0
 2066              		@ frame_needed = 0, uses_anonymous_args = 0
 2067              		@ link register save eliminated.
 2068              	.LVL212:
1132:Drivers/STM32F4xx_HAL_Driver/Src/stm32f4xx_hal_pcd.c ****   if((USBx_DEVICE->DSTS & USB_OTG_DSTS_SUSPSTS) == USB_OTG_DSTS_SUSPSTS)
 2069              		.loc 1 1132 0
 2070 0000 0368     		ldr	r3, [r0]
 2071 0002 D3F80828 		ldr	r2, [r3, #2056]
ARM GAS  /var/folders/19/rz7506jh8xn7x1006s6s574h0000gn/T//cceW6kab.s 			page 65


 2072 0006 D207     		lsls	r2, r2, #31
 2073 0008 03F50063 		add	r3, r3, #2048
 2074 000c 03D5     		bpl	.L214
1135:Drivers/STM32F4xx_HAL_Driver/Src/stm32f4xx_hal_pcd.c ****     USBx_DEVICE->DCTL |= USB_OTG_DCTL_RWUSIG;
 2075              		.loc 1 1135 0
 2076 000e 5A68     		ldr	r2, [r3, #4]
 2077 0010 42F00102 		orr	r2, r2, #1
 2078 0014 5A60     		str	r2, [r3, #4]
 2079              	.LVL213:
 2080              	.L214:
1138:Drivers/STM32F4xx_HAL_Driver/Src/stm32f4xx_hal_pcd.c **** }
 2081              		.loc 1 1138 0
 2082 0016 0020     		movs	r0, #0
 2083              	.LVL214:
 2084 0018 7047     		bx	lr
 2085              		.cfi_endproc
 2086              	.LFE154:
 2088              		.section	.text.HAL_PCD_DeActivateRemoteWakeup,"ax",%progbits
 2089              		.align	1
 2090              		.global	HAL_PCD_DeActivateRemoteWakeup
 2091              		.thumb
 2092              		.thumb_func
 2094              	HAL_PCD_DeActivateRemoteWakeup:
 2095              	.LFB155:
1146:Drivers/STM32F4xx_HAL_Driver/Src/stm32f4xx_hal_pcd.c **** {
 2096              		.loc 1 1146 0
 2097              		.cfi_startproc
 2098              		@ args = 0, pretend = 0, frame = 0
 2099              		@ frame_needed = 0, uses_anonymous_args = 0
 2100              		@ link register save eliminated.
 2101              	.LVL215:
1150:Drivers/STM32F4xx_HAL_Driver/Src/stm32f4xx_hal_pcd.c ****   USBx_DEVICE->DCTL &= ~(USB_OTG_DCTL_RWUSIG);
 2102              		.loc 1 1150 0
 2103 0000 0368     		ldr	r3, [r0]
 2104 0002 D3F80428 		ldr	r2, [r3, #2052]
 2105 0006 22F00102 		bic	r2, r2, #1
 2106 000a C3F80428 		str	r2, [r3, #2052]
 2107              	.LVL216:
1152:Drivers/STM32F4xx_HAL_Driver/Src/stm32f4xx_hal_pcd.c **** }
 2108              		.loc 1 1152 0
 2109 000e 0020     		movs	r0, #0
 2110              	.LVL217:
 2111 0010 7047     		bx	lr
 2112              		.cfi_endproc
 2113              	.LFE155:
 2115              		.section	.text.HAL_PCD_GetState,"ax",%progbits
 2116              		.align	1
 2117              		.global	HAL_PCD_GetState
 2118              		.thumb
 2119              		.thumb_func
 2121              	HAL_PCD_GetState:
 2122              	.LFB156:
1178:Drivers/STM32F4xx_HAL_Driver/Src/stm32f4xx_hal_pcd.c **** {
 2123              		.loc 1 1178 0
 2124              		.cfi_startproc
 2125              		@ args = 0, pretend = 0, frame = 0
 2126              		@ frame_needed = 0, uses_anonymous_args = 0
ARM GAS  /var/folders/19/rz7506jh8xn7x1006s6s574h0000gn/T//cceW6kab.s 			page 66


 2127              		@ link register save eliminated.
 2128              	.LVL218:
1179:Drivers/STM32F4xx_HAL_Driver/Src/stm32f4xx_hal_pcd.c ****   return hpcd->State;
 2129              		.loc 1 1179 0
 2130 0000 90F88103 		ldrb	r0, [r0, #897]	@ zero_extendqisi2
 2131              	.LVL219:
1180:Drivers/STM32F4xx_HAL_Driver/Src/stm32f4xx_hal_pcd.c **** }
 2132              		.loc 1 1180 0
 2133 0004 7047     		bx	lr
 2134              		.cfi_endproc
 2135              	.LFE156:
 2137              		.text
 2138              	.Letext0:
 2139              		.file 2 "/Users/Arethusa/Library/Arduino15/packages/arduino/tools/arm-none-eabi-gcc/4.8.3-2014q1/a
 2140              		.file 3 "/Users/Arethusa/Library/Arduino15/packages/arduino/tools/arm-none-eabi-gcc/4.8.3-2014q1/a
 2141              		.file 4 "Drivers/CMSIS/Device/ST/STM32F4xx/Include/stm32f401xe.h"
 2142              		.file 5 "Drivers/STM32F4xx_HAL_Driver/Inc/stm32f4xx_hal_def.h"
 2143              		.file 6 "Drivers/STM32F4xx_HAL_Driver/Inc/stm32f4xx_ll_usb.h"
 2144              		.file 7 "Drivers/STM32F4xx_HAL_Driver/Inc/stm32f4xx_hal_pcd.h"
 2145              		.file 8 "Drivers/CMSIS/Include/core_cm4.h"
ARM GAS  /var/folders/19/rz7506jh8xn7x1006s6s574h0000gn/T//cceW6kab.s 			page 67

