ARM GAS  /var/folders/19/rz7506jh8xn7x1006s6s574h0000gn/T//cczs9nwv.s 			page 1


   1              		.syntax unified
   2              		.cpu cortex-m4
   3              		.fpu softvfp
   4              		.eabi_attribute 20, 1
   5              		.eabi_attribute 21, 1
   6              		.eabi_attribute 23, 3
   7              		.eabi_attribute 24, 1
   8              		.eabi_attribute 25, 1
   9              		.eabi_attribute 26, 1
  10              		.eabi_attribute 30, 4
  11              		.eabi_attribute 34, 1
  12              		.eabi_attribute 18, 4
  13              		.thumb
  14              		.syntax unified
  15              		.file	"syscalls.c"
  16              		.text
  17              	.Ltext0:
  18              		.cfi_sections	.debug_frame
  19              		.section	.text._sbrk,"ax",%progbits
  20              		.align	1
  21              		.global	_sbrk
  22              		.thumb
  23              		.thumb_func
  25              	_sbrk:
  26              	.LFB16:
  27              		.file 1 "../../cores/mapleMX/syscalls.c"
   1:../../cores/mapleMX/syscalls.c **** /* Support files for GNU libc.  Files in the system namespace go here.
   2:../../cores/mapleMX/syscalls.c ****    Files in the C namespace (ie those that do not start with an
   3:../../cores/mapleMX/syscalls.c ****    underscore) go in .c.  */
   4:../../cores/mapleMX/syscalls.c **** 
   5:../../cores/mapleMX/syscalls.c **** #include <_ansi.h>
   6:../../cores/mapleMX/syscalls.c **** #include <sys/types.h>
   7:../../cores/mapleMX/syscalls.c **** #include <sys/stat.h>
   8:../../cores/mapleMX/syscalls.c **** #include <sys/fcntl.h>
   9:../../cores/mapleMX/syscalls.c **** #include <stdio.h>
  10:../../cores/mapleMX/syscalls.c **** #include <string.h>
  11:../../cores/mapleMX/syscalls.c **** #include <time.h>
  12:../../cores/mapleMX/syscalls.c **** #include <sys/time.h>
  13:../../cores/mapleMX/syscalls.c **** #include <sys/times.h>
  14:../../cores/mapleMX/syscalls.c **** #include <sys/errno.h>
  15:../../cores/mapleMX/syscalls.c **** #include <reent.h>
  16:../../cores/mapleMX/syscalls.c **** #include <unistd.h>
  17:../../cores/mapleMX/syscalls.c **** #include <sys/wait.h>
  18:../../cores/mapleMX/syscalls.c **** 
  19:../../cores/mapleMX/syscalls.c **** 
  20:../../cores/mapleMX/syscalls.c **** #define FreeRTOS
  21:../../cores/mapleMX/syscalls.c **** #define MAX_STACK_SIZE 0x200
  22:../../cores/mapleMX/syscalls.c **** 
  23:../../cores/mapleMX/syscalls.c **** extern int __io_putchar(int ch) __attribute__((weak));
  24:../../cores/mapleMX/syscalls.c **** extern int __io_getchar(void) __attribute__((weak));
  25:../../cores/mapleMX/syscalls.c **** 
  26:../../cores/mapleMX/syscalls.c **** #ifndef FreeRTOS
  27:../../cores/mapleMX/syscalls.c ****   register char * stack_ptr asm("sp");
  28:../../cores/mapleMX/syscalls.c **** #endif
  29:../../cores/mapleMX/syscalls.c **** 
  30:../../cores/mapleMX/syscalls.c **** 
  31:../../cores/mapleMX/syscalls.c **** 
ARM GAS  /var/folders/19/rz7506jh8xn7x1006s6s574h0000gn/T//cczs9nwv.s 			page 2


  32:../../cores/mapleMX/syscalls.c **** 
  33:../../cores/mapleMX/syscalls.c **** caddr_t _sbrk(int incr)
  34:../../cores/mapleMX/syscalls.c **** {
  28              		.loc 1 34 0
  29              		.cfi_startproc
  30              		@ args = 0, pretend = 0, frame = 0
  31              		@ frame_needed = 0, uses_anonymous_args = 0
  32              	.LVL0:
  33 0000 08B5     		push	{r3, lr}
  34              	.LCFI0:
  35              		.cfi_def_cfa_offset 8
  36              		.cfi_offset 3, -8
  37              		.cfi_offset 14, -4
  35:../../cores/mapleMX/syscalls.c **** 	extern char end asm("end");
  36:../../cores/mapleMX/syscalls.c **** 	static char *heap_end;
  37:../../cores/mapleMX/syscalls.c **** 	char *prev_heap_end,*min_stack_ptr;
  38:../../cores/mapleMX/syscalls.c **** 
  39:../../cores/mapleMX/syscalls.c **** 	if (heap_end == 0)
  38              		.loc 1 39 0
  39 0002 0C4B     		ldr	r3, .L6
  40 0004 1A68     		ldr	r2, [r3]
  41 0006 0AB9     		cbnz	r2, .L2
  40:../../cores/mapleMX/syscalls.c **** 		heap_end = &end;
  42              		.loc 1 40 0
  43 0008 0B4A     		ldr	r2, .L6+4
  44 000a 1A60     		str	r2, [r3]
  45              	.L2:
  41:../../cores/mapleMX/syscalls.c **** 
  42:../../cores/mapleMX/syscalls.c **** 	prev_heap_end = heap_end;
  43:../../cores/mapleMX/syscalls.c **** 
  44:../../cores/mapleMX/syscalls.c **** #ifdef FreeRTOS
  45:../../cores/mapleMX/syscalls.c **** 	/* Use the NVIC offset register to locate the main stack pointer. */
  46:../../cores/mapleMX/syscalls.c **** 	min_stack_ptr = (char*)(*(unsigned int *)*(unsigned int *)0xE000ED08);
  46              		.loc 1 46 0
  47 000c 0B4A     		ldr	r2, .L6+8
  42:../../cores/mapleMX/syscalls.c **** 
  48              		.loc 1 42 0
  49 000e 1B68     		ldr	r3, [r3]
  50              	.LVL1:
  51              		.loc 1 46 0
  52 0010 1268     		ldr	r2, [r2]
  53 0012 1268     		ldr	r2, [r2]
  54              	.LVL2:
  47:../../cores/mapleMX/syscalls.c **** 	/* Locate the STACK bottom address */
  48:../../cores/mapleMX/syscalls.c **** 	min_stack_ptr -= MAX_STACK_SIZE;
  49:../../cores/mapleMX/syscalls.c **** 
  50:../../cores/mapleMX/syscalls.c **** 	if (heap_end + incr > min_stack_ptr)
  55              		.loc 1 50 0
  56 0014 1844     		add	r0, r0, r3
  57              	.LVL3:
  58 0016 A2F50072 		sub	r2, r2, #512
  59              	.LVL4:
  60 001a 9042     		cmp	r0, r2
  61 001c 06D9     		bls	.L3
  51:../../cores/mapleMX/syscalls.c **** #else
  52:../../cores/mapleMX/syscalls.c **** 	if (heap_end + incr > stack_ptr)
  53:../../cores/mapleMX/syscalls.c **** #endif
ARM GAS  /var/folders/19/rz7506jh8xn7x1006s6s574h0000gn/T//cczs9nwv.s 			page 3


  54:../../cores/mapleMX/syscalls.c **** 	{
  55:../../cores/mapleMX/syscalls.c **** //		write(1, "Heap and stack collision\n", 25);
  56:../../cores/mapleMX/syscalls.c **** //		abort();
  57:../../cores/mapleMX/syscalls.c **** 		errno = ENOMEM;
  62              		.loc 1 57 0
  63 001e FFF7FEFF 		bl	__errno
  64              	.LVL5:
  65 0022 0C23     		movs	r3, #12
  66 0024 0360     		str	r3, [r0]
  58:../../cores/mapleMX/syscalls.c **** 		return (caddr_t) -1;
  67              		.loc 1 58 0
  68 0026 4FF0FF30 		mov	r0, #-1
  69 002a 08BD     		pop	{r3, pc}
  70              	.LVL6:
  71              	.L3:
  59:../../cores/mapleMX/syscalls.c **** 	}
  60:../../cores/mapleMX/syscalls.c **** 
  61:../../cores/mapleMX/syscalls.c **** 	heap_end += incr;
  72              		.loc 1 61 0
  73 002c 014A     		ldr	r2, .L6
  74              	.LVL7:
  75 002e 1060     		str	r0, [r2]
  76              	.LVL8:
  62:../../cores/mapleMX/syscalls.c **** 
  63:../../cores/mapleMX/syscalls.c **** 	return (caddr_t) prev_heap_end;
  77              		.loc 1 63 0
  78 0030 1846     		mov	r0, r3
  64:../../cores/mapleMX/syscalls.c **** }
  79              		.loc 1 64 0
  80 0032 08BD     		pop	{r3, pc}
  81              	.LVL9:
  82              	.L7:
  83              		.align	2
  84              	.L6:
  85 0034 00000000 		.word	.LANCHOR0
  86 0038 00000000 		.word	end
  87 003c 08ED00E0 		.word	-536810232
  88              		.cfi_endproc
  89              	.LFE16:
  91              		.section	.text._gettimeofday,"ax",%progbits
  92              		.align	1
  93              		.global	_gettimeofday
  94              		.thumb
  95              		.thumb_func
  97              	_gettimeofday:
  98              	.LFB17:
  65:../../cores/mapleMX/syscalls.c **** 
  66:../../cores/mapleMX/syscalls.c **** /*
  67:../../cores/mapleMX/syscalls.c ****  * _gettimeofday primitive (Stub function)
  68:../../cores/mapleMX/syscalls.c ****  * */
  69:../../cores/mapleMX/syscalls.c **** int _gettimeofday (struct timeval * tp, struct timezone * tzp)
  70:../../cores/mapleMX/syscalls.c **** {
  99              		.loc 1 70 0
 100              		.cfi_startproc
 101              		@ args = 0, pretend = 0, frame = 0
 102              		@ frame_needed = 0, uses_anonymous_args = 0
 103              		@ link register save eliminated.
ARM GAS  /var/folders/19/rz7506jh8xn7x1006s6s574h0000gn/T//cczs9nwv.s 			page 4


 104              	.LVL10:
  71:../../cores/mapleMX/syscalls.c ****   /* Return fixed data for the timezone.  */
  72:../../cores/mapleMX/syscalls.c ****   if (tzp)
 105              		.loc 1 72 0
 106 0000 11B1     		cbz	r1, .L9
  73:../../cores/mapleMX/syscalls.c ****     {
  74:../../cores/mapleMX/syscalls.c ****       tzp->tz_minuteswest = 0;
 107              		.loc 1 74 0
 108 0002 0023     		movs	r3, #0
 109 0004 0B60     		str	r3, [r1]
  75:../../cores/mapleMX/syscalls.c ****       tzp->tz_dsttime = 0;
 110              		.loc 1 75 0
 111 0006 4B60     		str	r3, [r1, #4]
 112              	.L9:
  76:../../cores/mapleMX/syscalls.c ****     }
  77:../../cores/mapleMX/syscalls.c **** 
  78:../../cores/mapleMX/syscalls.c ****   return 0;
  79:../../cores/mapleMX/syscalls.c **** }
 113              		.loc 1 79 0
 114 0008 0020     		movs	r0, #0
 115              	.LVL11:
 116 000a 7047     		bx	lr
 117              		.cfi_endproc
 118              	.LFE17:
 120              		.section	.text.initialise_monitor_handles,"ax",%progbits
 121              		.align	1
 122              		.global	initialise_monitor_handles
 123              		.thumb
 124              		.thumb_func
 126              	initialise_monitor_handles:
 127              	.LFB18:
  80:../../cores/mapleMX/syscalls.c **** void initialise_monitor_handles()
  81:../../cores/mapleMX/syscalls.c **** {
 128              		.loc 1 81 0
 129              		.cfi_startproc
 130              		@ args = 0, pretend = 0, frame = 0
 131              		@ frame_needed = 0, uses_anonymous_args = 0
 132              		@ link register save eliminated.
 133 0000 7047     		bx	lr
 134              		.cfi_endproc
 135              	.LFE18:
 137              		.section	.text._getpid,"ax",%progbits
 138              		.align	1
 139              		.global	_getpid
 140              		.thumb
 141              		.thumb_func
 143              	_getpid:
 144              	.LFB19:
  82:../../cores/mapleMX/syscalls.c **** }
  83:../../cores/mapleMX/syscalls.c **** 
  84:../../cores/mapleMX/syscalls.c **** int _getpid(void)
  85:../../cores/mapleMX/syscalls.c **** {
 145              		.loc 1 85 0
 146              		.cfi_startproc
 147              		@ args = 0, pretend = 0, frame = 0
 148              		@ frame_needed = 0, uses_anonymous_args = 0
 149              		@ link register save eliminated.
ARM GAS  /var/folders/19/rz7506jh8xn7x1006s6s574h0000gn/T//cczs9nwv.s 			page 5


  86:../../cores/mapleMX/syscalls.c **** 	return 1;
  87:../../cores/mapleMX/syscalls.c **** }
 150              		.loc 1 87 0
 151 0000 0120     		movs	r0, #1
 152 0002 7047     		bx	lr
 153              		.cfi_endproc
 154              	.LFE19:
 156              		.section	.text._kill,"ax",%progbits
 157              		.align	1
 158              		.global	_kill
 159              		.thumb
 160              		.thumb_func
 162              	_kill:
 163              	.LFB20:
  88:../../cores/mapleMX/syscalls.c **** 
  89:../../cores/mapleMX/syscalls.c **** int _kill(int pid, int sig)
  90:../../cores/mapleMX/syscalls.c **** {
 164              		.loc 1 90 0
 165              		.cfi_startproc
 166              		@ args = 0, pretend = 0, frame = 0
 167              		@ frame_needed = 0, uses_anonymous_args = 0
 168              	.LVL12:
 169 0000 08B5     		push	{r3, lr}
 170              	.LCFI1:
 171              		.cfi_def_cfa_offset 8
 172              		.cfi_offset 3, -8
 173              		.cfi_offset 14, -4
  91:../../cores/mapleMX/syscalls.c **** 	errno = EINVAL;
 174              		.loc 1 91 0
 175 0002 FFF7FEFF 		bl	__errno
 176              	.LVL13:
 177 0006 1623     		movs	r3, #22
 178 0008 0360     		str	r3, [r0]
  92:../../cores/mapleMX/syscalls.c **** 	return -1;
  93:../../cores/mapleMX/syscalls.c **** }
 179              		.loc 1 93 0
 180 000a 4FF0FF30 		mov	r0, #-1
 181 000e 08BD     		pop	{r3, pc}
 182              		.cfi_endproc
 183              	.LFE20:
 185              		.section	.text._exit,"ax",%progbits
 186              		.align	1
 187              		.global	_exit
 188              		.thumb
 189              		.thumb_func
 191              	_exit:
 192              	.LFB21:
  94:../../cores/mapleMX/syscalls.c **** 
  95:../../cores/mapleMX/syscalls.c **** void _exit (int status)
  96:../../cores/mapleMX/syscalls.c **** {
 193              		.loc 1 96 0
 194              		.cfi_startproc
 195              		@ Volatile: function does not return.
 196              		@ args = 0, pretend = 0, frame = 0
 197              		@ frame_needed = 0, uses_anonymous_args = 0
 198              	.LVL14:
 199 0000 08B5     		push	{r3, lr}
ARM GAS  /var/folders/19/rz7506jh8xn7x1006s6s574h0000gn/T//cczs9nwv.s 			page 6


 200              	.LCFI2:
 201              		.cfi_def_cfa_offset 8
 202              		.cfi_offset 3, -8
 203              		.cfi_offset 14, -4
 204              	.LBB4:
 205              	.LBB5:
  91:../../cores/mapleMX/syscalls.c **** 	return -1;
 206              		.loc 1 91 0
 207 0002 FFF7FEFF 		bl	__errno
 208              	.LVL15:
 209 0006 1623     		movs	r3, #22
 210 0008 0360     		str	r3, [r0]
 211              	.L17:
 212 000a FEE7     		b	.L17
 213              	.LBE5:
 214              	.LBE4:
 215              		.cfi_endproc
 216              	.LFE21:
 218              		.section	.text._write,"ax",%progbits
 219              		.align	1
 220              		.global	_write
 221              		.thumb
 222              		.thumb_func
 224              	_write:
 225              	.LFB22:
  97:../../cores/mapleMX/syscalls.c **** 	_kill(status, -1);
  98:../../cores/mapleMX/syscalls.c **** 	while (1) {}
  99:../../cores/mapleMX/syscalls.c **** }
 100:../../cores/mapleMX/syscalls.c **** 
 101:../../cores/mapleMX/syscalls.c **** int _write(int file, char *ptr, int len)
 102:../../cores/mapleMX/syscalls.c **** {
 226              		.loc 1 102 0
 227              		.cfi_startproc
 228              		@ args = 0, pretend = 0, frame = 0
 229              		@ frame_needed = 0, uses_anonymous_args = 0
 230              	.LVL16:
 231 0000 70B5     		push	{r4, r5, r6, lr}
 232              	.LCFI3:
 233              		.cfi_def_cfa_offset 16
 234              		.cfi_offset 4, -16
 235              		.cfi_offset 5, -12
 236              		.cfi_offset 6, -8
 237              		.cfi_offset 14, -4
 238              		.loc 1 102 0
 239 0002 0E46     		mov	r6, r1
 240 0004 1546     		mov	r5, r2
 103:../../cores/mapleMX/syscalls.c **** 	int DataIdx;
 104:../../cores/mapleMX/syscalls.c **** 
 105:../../cores/mapleMX/syscalls.c **** 		for (DataIdx = 0; DataIdx < len; DataIdx++)
 241              		.loc 1 105 0
 242 0006 0C46     		mov	r4, r1
 243              	.LVL17:
 244              	.L19:
 245              		.loc 1 105 0 is_stmt 0 discriminator 1
 246 0008 A31B     		subs	r3, r4, r6
 247              	.LVL18:
 248 000a 9D42     		cmp	r5, r3
ARM GAS  /var/folders/19/rz7506jh8xn7x1006s6s574h0000gn/T//cczs9nwv.s 			page 7


 249 000c 04DD     		ble	.L21
 106:../../cores/mapleMX/syscalls.c **** 		{
 107:../../cores/mapleMX/syscalls.c **** 		   __io_putchar( *ptr++ );
 250              		.loc 1 107 0 is_stmt 1 discriminator 3
 251 000e 14F8010B 		ldrb	r0, [r4], #1	@ zero_extendqisi2
 252              	.LVL19:
 253 0012 FFF7FEFF 		bl	__io_putchar
 254              	.LVL20:
 255 0016 F7E7     		b	.L19
 256              	.LVL21:
 257              	.L21:
 108:../../cores/mapleMX/syscalls.c **** 		}
 109:../../cores/mapleMX/syscalls.c **** 	return len;
 110:../../cores/mapleMX/syscalls.c **** }
 258              		.loc 1 110 0
 259 0018 2846     		mov	r0, r5
 260 001a 70BD     		pop	{r4, r5, r6, pc}
 261              		.cfi_endproc
 262              	.LFE22:
 264              		.section	.text._close,"ax",%progbits
 265              		.align	1
 266              		.global	_close
 267              		.thumb
 268              		.thumb_func
 270              	_close:
 271              	.LFB23:
 111:../../cores/mapleMX/syscalls.c **** 
 112:../../cores/mapleMX/syscalls.c **** int _close(int file)
 113:../../cores/mapleMX/syscalls.c **** {
 272              		.loc 1 113 0
 273              		.cfi_startproc
 274              		@ args = 0, pretend = 0, frame = 0
 275              		@ frame_needed = 0, uses_anonymous_args = 0
 276              		@ link register save eliminated.
 277              	.LVL22:
 114:../../cores/mapleMX/syscalls.c **** 	return -1;
 115:../../cores/mapleMX/syscalls.c **** }
 278              		.loc 1 115 0
 279 0000 4FF0FF30 		mov	r0, #-1
 280              	.LVL23:
 281 0004 7047     		bx	lr
 282              		.cfi_endproc
 283              	.LFE23:
 285              		.section	.text._fstat,"ax",%progbits
 286              		.align	1
 287              		.global	_fstat
 288              		.thumb
 289              		.thumb_func
 291              	_fstat:
 292              	.LFB24:
 116:../../cores/mapleMX/syscalls.c **** 
 117:../../cores/mapleMX/syscalls.c **** int _fstat(int file, struct stat *st)
 118:../../cores/mapleMX/syscalls.c **** {
 293              		.loc 1 118 0
 294              		.cfi_startproc
 295              		@ args = 0, pretend = 0, frame = 0
 296              		@ frame_needed = 0, uses_anonymous_args = 0
ARM GAS  /var/folders/19/rz7506jh8xn7x1006s6s574h0000gn/T//cczs9nwv.s 			page 8


 297              		@ link register save eliminated.
 298              	.LVL24:
 119:../../cores/mapleMX/syscalls.c **** 	st->st_mode = S_IFCHR;
 299              		.loc 1 119 0
 300 0000 4FF40053 		mov	r3, #8192
 301 0004 4B60     		str	r3, [r1, #4]
 120:../../cores/mapleMX/syscalls.c **** 	return 0;
 121:../../cores/mapleMX/syscalls.c **** }
 302              		.loc 1 121 0
 303 0006 0020     		movs	r0, #0
 304              	.LVL25:
 305 0008 7047     		bx	lr
 306              		.cfi_endproc
 307              	.LFE24:
 309              		.section	.text._isatty,"ax",%progbits
 310              		.align	1
 311              		.global	_isatty
 312              		.thumb
 313              		.thumb_func
 315              	_isatty:
 316              	.LFB25:
 122:../../cores/mapleMX/syscalls.c **** 
 123:../../cores/mapleMX/syscalls.c **** int _isatty(int file)
 124:../../cores/mapleMX/syscalls.c **** {
 317              		.loc 1 124 0
 318              		.cfi_startproc
 319              		@ args = 0, pretend = 0, frame = 0
 320              		@ frame_needed = 0, uses_anonymous_args = 0
 321              		@ link register save eliminated.
 322              	.LVL26:
 125:../../cores/mapleMX/syscalls.c **** 	return 1;
 126:../../cores/mapleMX/syscalls.c **** }
 323              		.loc 1 126 0
 324 0000 0120     		movs	r0, #1
 325              	.LVL27:
 326 0002 7047     		bx	lr
 327              		.cfi_endproc
 328              	.LFE25:
 330              		.section	.text._lseek,"ax",%progbits
 331              		.align	1
 332              		.global	_lseek
 333              		.thumb
 334              		.thumb_func
 336              	_lseek:
 337              	.LFB26:
 127:../../cores/mapleMX/syscalls.c **** 
 128:../../cores/mapleMX/syscalls.c **** int _lseek(int file, int ptr, int dir)
 129:../../cores/mapleMX/syscalls.c **** {
 338              		.loc 1 129 0
 339              		.cfi_startproc
 340              		@ args = 0, pretend = 0, frame = 0
 341              		@ frame_needed = 0, uses_anonymous_args = 0
 342              		@ link register save eliminated.
 343              	.LVL28:
 130:../../cores/mapleMX/syscalls.c **** 	return 0;
 131:../../cores/mapleMX/syscalls.c **** }
 344              		.loc 1 131 0
ARM GAS  /var/folders/19/rz7506jh8xn7x1006s6s574h0000gn/T//cczs9nwv.s 			page 9


 345 0000 0020     		movs	r0, #0
 346              	.LVL29:
 347 0002 7047     		bx	lr
 348              		.cfi_endproc
 349              	.LFE26:
 351              		.section	.text._read,"ax",%progbits
 352              		.align	1
 353              		.global	_read
 354              		.thumb
 355              		.thumb_func
 357              	_read:
 358              	.LFB27:
 132:../../cores/mapleMX/syscalls.c **** 
 133:../../cores/mapleMX/syscalls.c **** int _read(int file, char *ptr, int len)
 134:../../cores/mapleMX/syscalls.c **** {
 359              		.loc 1 134 0
 360              		.cfi_startproc
 361              		@ args = 0, pretend = 0, frame = 0
 362              		@ frame_needed = 0, uses_anonymous_args = 0
 363              	.LVL30:
 364 0000 70B5     		push	{r4, r5, r6, lr}
 365              	.LCFI4:
 366              		.cfi_def_cfa_offset 16
 367              		.cfi_offset 4, -16
 368              		.cfi_offset 5, -12
 369              		.cfi_offset 6, -8
 370              		.cfi_offset 14, -4
 371              		.loc 1 134 0
 372 0002 0E46     		mov	r6, r1
 373 0004 1546     		mov	r5, r2
 135:../../cores/mapleMX/syscalls.c **** 	int DataIdx;
 136:../../cores/mapleMX/syscalls.c **** 
 137:../../cores/mapleMX/syscalls.c **** 	for (DataIdx = 0; DataIdx < len; DataIdx++)
 374              		.loc 1 137 0
 375 0006 0C46     		mov	r4, r1
 376              	.LVL31:
 377              	.L27:
 378              		.loc 1 137 0 is_stmt 0 discriminator 1
 379 0008 A31B     		subs	r3, r4, r6
 380              	.LVL32:
 381 000a 9D42     		cmp	r5, r3
 382 000c 04DD     		ble	.L29
 138:../../cores/mapleMX/syscalls.c **** 	{
 139:../../cores/mapleMX/syscalls.c **** 	  *ptr++ = __io_getchar();
 383              		.loc 1 139 0 is_stmt 1 discriminator 3
 384 000e FFF7FEFF 		bl	__io_getchar
 385              	.LVL33:
 386 0012 04F8010B 		strb	r0, [r4], #1
 387              	.LVL34:
 388 0016 F7E7     		b	.L27
 389              	.LVL35:
 390              	.L29:
 140:../../cores/mapleMX/syscalls.c **** 	}
 141:../../cores/mapleMX/syscalls.c **** 
 142:../../cores/mapleMX/syscalls.c ****    return len;
 143:../../cores/mapleMX/syscalls.c **** }
 391              		.loc 1 143 0
ARM GAS  /var/folders/19/rz7506jh8xn7x1006s6s574h0000gn/T//cczs9nwv.s 			page 10


 392 0018 2846     		mov	r0, r5
 393 001a 70BD     		pop	{r4, r5, r6, pc}
 394              		.cfi_endproc
 395              	.LFE27:
 397              		.section	.text._open,"ax",%progbits
 398              		.align	1
 399              		.global	_open
 400              		.thumb
 401              		.thumb_func
 403              	_open:
 404              	.LFB28:
 144:../../cores/mapleMX/syscalls.c **** 
 145:../../cores/mapleMX/syscalls.c **** int _open(char *path, int flags, ...)
 146:../../cores/mapleMX/syscalls.c **** {
 405              		.loc 1 146 0
 406              		.cfi_startproc
 407              		@ args = 4, pretend = 12, frame = 0
 408              		@ frame_needed = 0, uses_anonymous_args = 1
 409              		@ link register save eliminated.
 410              	.LVL36:
 411 0000 0EB4     		push	{r1, r2, r3}
 412              	.LCFI5:
 413              		.cfi_def_cfa_offset 12
 414              		.cfi_offset 1, -12
 415              		.cfi_offset 2, -8
 416              		.cfi_offset 3, -4
 147:../../cores/mapleMX/syscalls.c **** 	/* Pretend like we always fail */
 148:../../cores/mapleMX/syscalls.c **** 	return -1;
 149:../../cores/mapleMX/syscalls.c **** }
 417              		.loc 1 149 0
 418 0002 4FF0FF30 		mov	r0, #-1
 419              	.LVL37:
 420 0006 03B0     		add	sp, sp, #12
 421              	.LCFI6:
 422              		.cfi_restore 3
 423              		.cfi_restore 2
 424              		.cfi_restore 1
 425              		.cfi_def_cfa_offset 0
 426 0008 7047     		bx	lr
 427              		.cfi_endproc
 428              	.LFE28:
 430              		.section	.text._wait,"ax",%progbits
 431              		.align	1
 432              		.global	_wait
 433              		.thumb
 434              		.thumb_func
 436              	_wait:
 437              	.LFB29:
 150:../../cores/mapleMX/syscalls.c **** 
 151:../../cores/mapleMX/syscalls.c **** int _wait(int *status)
 152:../../cores/mapleMX/syscalls.c **** {
 438              		.loc 1 152 0
 439              		.cfi_startproc
 440              		@ args = 0, pretend = 0, frame = 0
 441              		@ frame_needed = 0, uses_anonymous_args = 0
 442              	.LVL38:
 443 0000 08B5     		push	{r3, lr}
ARM GAS  /var/folders/19/rz7506jh8xn7x1006s6s574h0000gn/T//cczs9nwv.s 			page 11


 444              	.LCFI7:
 445              		.cfi_def_cfa_offset 8
 446              		.cfi_offset 3, -8
 447              		.cfi_offset 14, -4
 153:../../cores/mapleMX/syscalls.c **** 	errno = ECHILD;
 448              		.loc 1 153 0
 449 0002 FFF7FEFF 		bl	__errno
 450              	.LVL39:
 451 0006 0A23     		movs	r3, #10
 452 0008 0360     		str	r3, [r0]
 154:../../cores/mapleMX/syscalls.c **** 	return -1;
 155:../../cores/mapleMX/syscalls.c **** }
 453              		.loc 1 155 0
 454 000a 4FF0FF30 		mov	r0, #-1
 455 000e 08BD     		pop	{r3, pc}
 456              		.cfi_endproc
 457              	.LFE29:
 459              		.section	.text._unlink,"ax",%progbits
 460              		.align	1
 461              		.global	_unlink
 462              		.thumb
 463              		.thumb_func
 465              	_unlink:
 466              	.LFB30:
 156:../../cores/mapleMX/syscalls.c **** 
 157:../../cores/mapleMX/syscalls.c **** int _unlink(char *name)
 158:../../cores/mapleMX/syscalls.c **** {
 467              		.loc 1 158 0
 468              		.cfi_startproc
 469              		@ args = 0, pretend = 0, frame = 0
 470              		@ frame_needed = 0, uses_anonymous_args = 0
 471              	.LVL40:
 472 0000 08B5     		push	{r3, lr}
 473              	.LCFI8:
 474              		.cfi_def_cfa_offset 8
 475              		.cfi_offset 3, -8
 476              		.cfi_offset 14, -4
 159:../../cores/mapleMX/syscalls.c **** 	errno = ENOENT;
 477              		.loc 1 159 0
 478 0002 FFF7FEFF 		bl	__errno
 479              	.LVL41:
 480 0006 0223     		movs	r3, #2
 481 0008 0360     		str	r3, [r0]
 160:../../cores/mapleMX/syscalls.c **** 	return -1;
 161:../../cores/mapleMX/syscalls.c **** }
 482              		.loc 1 161 0
 483 000a 4FF0FF30 		mov	r0, #-1
 484 000e 08BD     		pop	{r3, pc}
 485              		.cfi_endproc
 486              	.LFE30:
 488              		.section	.text._times,"ax",%progbits
 489              		.align	1
 490              		.global	_times
 491              		.thumb
 492              		.thumb_func
 494              	_times:
 495              	.LFB31:
ARM GAS  /var/folders/19/rz7506jh8xn7x1006s6s574h0000gn/T//cczs9nwv.s 			page 12


 162:../../cores/mapleMX/syscalls.c **** 
 163:../../cores/mapleMX/syscalls.c **** int _times(struct tms *buf)
 164:../../cores/mapleMX/syscalls.c **** {
 496              		.loc 1 164 0
 497              		.cfi_startproc
 498              		@ args = 0, pretend = 0, frame = 0
 499              		@ frame_needed = 0, uses_anonymous_args = 0
 500              		@ link register save eliminated.
 501              	.LVL42:
 165:../../cores/mapleMX/syscalls.c **** 	return -1;
 166:../../cores/mapleMX/syscalls.c **** }
 502              		.loc 1 166 0
 503 0000 4FF0FF30 		mov	r0, #-1
 504              	.LVL43:
 505 0004 7047     		bx	lr
 506              		.cfi_endproc
 507              	.LFE31:
 509              		.section	.text._stat,"ax",%progbits
 510              		.align	1
 511              		.global	_stat
 512              		.thumb
 513              		.thumb_func
 515              	_stat:
 516              	.LFB32:
 167:../../cores/mapleMX/syscalls.c **** 
 168:../../cores/mapleMX/syscalls.c **** int _stat(char *file, struct stat *st)
 169:../../cores/mapleMX/syscalls.c **** {
 517              		.loc 1 169 0
 518              		.cfi_startproc
 519              		@ args = 0, pretend = 0, frame = 0
 520              		@ frame_needed = 0, uses_anonymous_args = 0
 521              		@ link register save eliminated.
 522              	.LVL44:
 170:../../cores/mapleMX/syscalls.c **** 	st->st_mode = S_IFCHR;
 523              		.loc 1 170 0
 524 0000 4FF40053 		mov	r3, #8192
 525 0004 4B60     		str	r3, [r1, #4]
 171:../../cores/mapleMX/syscalls.c **** 	return 0;
 172:../../cores/mapleMX/syscalls.c **** }
 526              		.loc 1 172 0
 527 0006 0020     		movs	r0, #0
 528              	.LVL45:
 529 0008 7047     		bx	lr
 530              		.cfi_endproc
 531              	.LFE32:
 533              		.section	.text._link,"ax",%progbits
 534              		.align	1
 535              		.global	_link
 536              		.thumb
 537              		.thumb_func
 539              	_link:
 540              	.LFB33:
 173:../../cores/mapleMX/syscalls.c **** 
 174:../../cores/mapleMX/syscalls.c **** int _link(char *old, char *new)
 175:../../cores/mapleMX/syscalls.c **** {
 541              		.loc 1 175 0
 542              		.cfi_startproc
ARM GAS  /var/folders/19/rz7506jh8xn7x1006s6s574h0000gn/T//cczs9nwv.s 			page 13


 543              		@ args = 0, pretend = 0, frame = 0
 544              		@ frame_needed = 0, uses_anonymous_args = 0
 545              	.LVL46:
 546 0000 08B5     		push	{r3, lr}
 547              	.LCFI9:
 548              		.cfi_def_cfa_offset 8
 549              		.cfi_offset 3, -8
 550              		.cfi_offset 14, -4
 176:../../cores/mapleMX/syscalls.c **** 	errno = EMLINK;
 551              		.loc 1 176 0
 552 0002 FFF7FEFF 		bl	__errno
 553              	.LVL47:
 554 0006 1F23     		movs	r3, #31
 555 0008 0360     		str	r3, [r0]
 177:../../cores/mapleMX/syscalls.c **** 	return -1;
 178:../../cores/mapleMX/syscalls.c **** }
 556              		.loc 1 178 0
 557 000a 4FF0FF30 		mov	r0, #-1
 558 000e 08BD     		pop	{r3, pc}
 559              		.cfi_endproc
 560              	.LFE33:
 562              		.section	.text._fork,"ax",%progbits
 563              		.align	1
 564              		.global	_fork
 565              		.thumb
 566              		.thumb_func
 568              	_fork:
 569              	.LFB34:
 179:../../cores/mapleMX/syscalls.c **** 
 180:../../cores/mapleMX/syscalls.c **** int _fork(void)
 181:../../cores/mapleMX/syscalls.c **** {
 570              		.loc 1 181 0
 571              		.cfi_startproc
 572              		@ args = 0, pretend = 0, frame = 0
 573              		@ frame_needed = 0, uses_anonymous_args = 0
 574 0000 08B5     		push	{r3, lr}
 575              	.LCFI10:
 576              		.cfi_def_cfa_offset 8
 577              		.cfi_offset 3, -8
 578              		.cfi_offset 14, -4
 182:../../cores/mapleMX/syscalls.c **** 	errno = EAGAIN;
 579              		.loc 1 182 0
 580 0002 FFF7FEFF 		bl	__errno
 581              	.LVL48:
 582 0006 0B23     		movs	r3, #11
 583 0008 0360     		str	r3, [r0]
 183:../../cores/mapleMX/syscalls.c **** 	return -1;
 184:../../cores/mapleMX/syscalls.c **** }
 584              		.loc 1 184 0
 585 000a 4FF0FF30 		mov	r0, #-1
 586 000e 08BD     		pop	{r3, pc}
 587              		.cfi_endproc
 588              	.LFE34:
 590              		.section	.text._execve,"ax",%progbits
 591              		.align	1
 592              		.global	_execve
 593              		.thumb
ARM GAS  /var/folders/19/rz7506jh8xn7x1006s6s574h0000gn/T//cczs9nwv.s 			page 14


 594              		.thumb_func
 596              	_execve:
 597              	.LFB35:
 185:../../cores/mapleMX/syscalls.c **** 
 186:../../cores/mapleMX/syscalls.c **** int _execve(char *name, char **argv, char **env)
 187:../../cores/mapleMX/syscalls.c **** {
 598              		.loc 1 187 0
 599              		.cfi_startproc
 600              		@ args = 0, pretend = 0, frame = 0
 601              		@ frame_needed = 0, uses_anonymous_args = 0
 602              	.LVL49:
 603 0000 08B5     		push	{r3, lr}
 604              	.LCFI11:
 605              		.cfi_def_cfa_offset 8
 606              		.cfi_offset 3, -8
 607              		.cfi_offset 14, -4
 188:../../cores/mapleMX/syscalls.c **** 	errno = ENOMEM;
 608              		.loc 1 188 0
 609 0002 FFF7FEFF 		bl	__errno
 610              	.LVL50:
 611 0006 0C23     		movs	r3, #12
 612 0008 0360     		str	r3, [r0]
 189:../../cores/mapleMX/syscalls.c **** 	return -1;
 190:../../cores/mapleMX/syscalls.c **** }
 613              		.loc 1 190 0
 614 000a 4FF0FF30 		mov	r0, #-1
 615 000e 08BD     		pop	{r3, pc}
 616              		.cfi_endproc
 617              	.LFE35:
 619              		.section	.bss.heap_end.5920,"aw",%nobits
 620              		.align	2
 621              		.set	.LANCHOR0,. + 0
 624              	heap_end.5920:
 625 0000 00000000 		.space	4
 626              		.weak	__io_getchar
 627              		.weak	__io_putchar
 628              		.text
 629              	.Letext0:
 630              		.file 2 "/Applications/Ac6/SystemWorkbench.app/Contents/Eclipse/plugins/fr.ac6.mcu.externaltools.a
 631              		.file 3 "/Applications/Ac6/SystemWorkbench.app/Contents/Eclipse/plugins/fr.ac6.mcu.externaltools.a
 632              		.file 4 "/Applications/Ac6/SystemWorkbench.app/Contents/Eclipse/plugins/fr.ac6.mcu.externaltools.a
 633              		.file 5 "/Applications/Ac6/SystemWorkbench.app/Contents/Eclipse/plugins/fr.ac6.mcu.externaltools.a
 634              		.file 6 "/Applications/Ac6/SystemWorkbench.app/Contents/Eclipse/plugins/fr.ac6.mcu.externaltools.a
 635              		.file 7 "/Applications/Ac6/SystemWorkbench.app/Contents/Eclipse/plugins/fr.ac6.mcu.externaltools.a
 636              		.file 8 "/Applications/Ac6/SystemWorkbench.app/Contents/Eclipse/plugins/fr.ac6.mcu.externaltools.a
 637              		.file 9 "/Applications/Ac6/SystemWorkbench.app/Contents/Eclipse/plugins/fr.ac6.mcu.externaltools.a
 638              		.file 10 "/Applications/Ac6/SystemWorkbench.app/Contents/Eclipse/plugins/fr.ac6.mcu.externaltools.
 639              		.file 11 "/Applications/Ac6/SystemWorkbench.app/Contents/Eclipse/plugins/fr.ac6.mcu.externaltools.
ARM GAS  /var/folders/19/rz7506jh8xn7x1006s6s574h0000gn/T//cczs9nwv.s 			page 15

