ARM GAS  /var/folders/19/rz7506jh8xn7x1006s6s574h0000gn/T//ccTZ77F5.s 			page 1


   1              		.syntax unified
   2              		.cpu cortex-m4
   3              		.fpu softvfp
   4              		.eabi_attribute 20, 1
   5              		.eabi_attribute 21, 1
   6              		.eabi_attribute 23, 3
   7              		.eabi_attribute 24, 1
   8              		.eabi_attribute 25, 1
   9              		.eabi_attribute 26, 1
  10              		.eabi_attribute 30, 4
  11              		.eabi_attribute 34, 1
  12              		.eabi_attribute 18, 4
  13              		.thumb
  14              		.file	"usart.c"
  15              		.text
  16              	.Ltext0:
  17              		.cfi_sections	.debug_frame
  18              		.section	.text.MX_USART2_UART_Init,"ax",%progbits
  19              		.align	1
  20              		.global	MX_USART2_UART_Init
  21              		.thumb
  22              		.thumb_func
  24              	MX_USART2_UART_Init:
  25              	.LFB125:
  26              		.file 1 "Src/usart.c"
   1:Src/usart.c   **** /**
   2:Src/usart.c   ****   ******************************************************************************
   3:Src/usart.c   ****   * File Name          : USART.c
   4:Src/usart.c   ****   * Description        : This file provides code for the configuration
   5:Src/usart.c   ****   *                      of the USART instances.
   6:Src/usart.c   ****   ******************************************************************************
   7:Src/usart.c   ****   *
   8:Src/usart.c   ****   * COPYRIGHT(c) 2016 STMicroelectronics
   9:Src/usart.c   ****   *
  10:Src/usart.c   ****   * Redistribution and use in source and binary forms, with or without modification,
  11:Src/usart.c   ****   * are permitted provided that the following conditions are met:
  12:Src/usart.c   ****   *   1. Redistributions of source code must retain the above copyright notice,
  13:Src/usart.c   ****   *      this list of conditions and the following disclaimer.
  14:Src/usart.c   ****   *   2. Redistributions in binary form must reproduce the above copyright notice,
  15:Src/usart.c   ****   *      this list of conditions and the following disclaimer in the documentation
  16:Src/usart.c   ****   *      and/or other materials provided with the distribution.
  17:Src/usart.c   ****   *   3. Neither the name of STMicroelectronics nor the names of its contributors
  18:Src/usart.c   ****   *      may be used to endorse or promote products derived from this software
  19:Src/usart.c   ****   *      without specific prior written permission.
  20:Src/usart.c   ****   *
  21:Src/usart.c   ****   * THIS SOFTWARE IS PROVIDED BY THE COPYRIGHT HOLDERS AND CONTRIBUTORS "AS IS"
  22:Src/usart.c   ****   * AND ANY EXPRESS OR IMPLIED WARRANTIES, INCLUDING, BUT NOT LIMITED TO, THE
  23:Src/usart.c   ****   * IMPLIED WARRANTIES OF MERCHANTABILITY AND FITNESS FOR A PARTICULAR PURPOSE ARE
  24:Src/usart.c   ****   * DISCLAIMED. IN NO EVENT SHALL THE COPYRIGHT HOLDER OR CONTRIBUTORS BE LIABLE
  25:Src/usart.c   ****   * FOR ANY DIRECT, INDIRECT, INCIDENTAL, SPECIAL, EXEMPLARY, OR CONSEQUENTIAL
  26:Src/usart.c   ****   * DAMAGES (INCLUDING, BUT NOT LIMITED TO, PROCUREMENT OF SUBSTITUTE GOODS OR
  27:Src/usart.c   ****   * SERVICES; LOSS OF USE, DATA, OR PROFITS; OR BUSINESS INTERRUPTION) HOWEVER
  28:Src/usart.c   ****   * CAUSED AND ON ANY THEORY OF LIABILITY, WHETHER IN CONTRACT, STRICT LIABILITY,
  29:Src/usart.c   ****   * OR TORT (INCLUDING NEGLIGENCE OR OTHERWISE) ARISING IN ANY WAY OUT OF THE USE
  30:Src/usart.c   ****   * OF THIS SOFTWARE, EVEN IF ADVISED OF THE POSSIBILITY OF SUCH DAMAGE.
  31:Src/usart.c   ****   *
  32:Src/usart.c   ****   ******************************************************************************
ARM GAS  /var/folders/19/rz7506jh8xn7x1006s6s574h0000gn/T//ccTZ77F5.s 			page 2


  33:Src/usart.c   ****   */
  34:Src/usart.c   **** 
  35:Src/usart.c   **** /* Includes ------------------------------------------------------------------*/
  36:Src/usart.c   **** #include "usart.h"
  37:Src/usart.c   **** 
  38:Src/usart.c   **** #include "gpio.h"
  39:Src/usart.c   **** 
  40:Src/usart.c   **** /* USER CODE BEGIN 0 */
  41:Src/usart.c   **** 
  42:Src/usart.c   **** /* USER CODE END 0 */
  43:Src/usart.c   **** 
  44:Src/usart.c   **** UART_HandleTypeDef huart2;
  45:Src/usart.c   **** UART_HandleTypeDef huart6;
  46:Src/usart.c   **** 
  47:Src/usart.c   **** /* USART2 init function */
  48:Src/usart.c   **** 
  49:Src/usart.c   **** void MX_USART2_UART_Init(void)
  50:Src/usart.c   **** {
  27              		.loc 1 50 0
  28              		.cfi_startproc
  29              		@ args = 0, pretend = 0, frame = 0
  30              		@ frame_needed = 0, uses_anonymous_args = 0
  31              		@ link register save eliminated.
  51:Src/usart.c   **** 
  52:Src/usart.c   ****   huart2.Instance = USART2;
  32              		.loc 1 52 0
  33 0000 0748     		ldr	r0, .L2
  53:Src/usart.c   ****   huart2.Init.BaudRate = 115200;
  34              		.loc 1 53 0
  35 0002 084B     		ldr	r3, .L2+4
  36 0004 4FF4E13C 		mov	ip, #115200
  37 0008 80E80810 		stmia	r0, {r3, ip}
  54:Src/usart.c   ****   huart2.Init.WordLength = UART_WORDLENGTH_8B;
  55:Src/usart.c   ****   huart2.Init.StopBits = UART_STOPBITS_1;
  56:Src/usart.c   ****   huart2.Init.Parity = UART_PARITY_NONE;
  57:Src/usart.c   ****   huart2.Init.Mode = UART_MODE_TX_RX;
  38              		.loc 1 57 0
  39 000c 0C22     		movs	r2, #12
  54:Src/usart.c   ****   huart2.Init.WordLength = UART_WORDLENGTH_8B;
  40              		.loc 1 54 0
  41 000e 0023     		movs	r3, #0
  42 0010 8360     		str	r3, [r0, #8]
  55:Src/usart.c   ****   huart2.Init.StopBits = UART_STOPBITS_1;
  43              		.loc 1 55 0
  44 0012 C360     		str	r3, [r0, #12]
  56:Src/usart.c   ****   huart2.Init.Parity = UART_PARITY_NONE;
  45              		.loc 1 56 0
  46 0014 0361     		str	r3, [r0, #16]
  47              		.loc 1 57 0
  48 0016 4261     		str	r2, [r0, #20]
  58:Src/usart.c   ****   huart2.Init.HwFlowCtl = UART_HWCONTROL_NONE;
  49              		.loc 1 58 0
  50 0018 8361     		str	r3, [r0, #24]
  59:Src/usart.c   ****   huart2.Init.OverSampling = UART_OVERSAMPLING_16;
  51              		.loc 1 59 0
  52 001a C361     		str	r3, [r0, #28]
  60:Src/usart.c   ****   HAL_UART_Init(&huart2);
ARM GAS  /var/folders/19/rz7506jh8xn7x1006s6s574h0000gn/T//ccTZ77F5.s 			page 3


  53              		.loc 1 60 0
  54 001c FFF7FEBF 		b	HAL_UART_Init
  55              	.LVL0:
  56              	.L3:
  57              		.align	2
  58              	.L2:
  59 0020 00000000 		.word	huart2
  60 0024 00440040 		.word	1073759232
  61              		.cfi_endproc
  62              	.LFE125:
  64              		.section	.text.MX_USART6_UART_Init,"ax",%progbits
  65              		.align	1
  66              		.global	MX_USART6_UART_Init
  67              		.thumb
  68              		.thumb_func
  70              	MX_USART6_UART_Init:
  71              	.LFB126:
  61:Src/usart.c   **** 
  62:Src/usart.c   **** }
  63:Src/usart.c   **** /* USART6 init function */
  64:Src/usart.c   **** 
  65:Src/usart.c   **** void MX_USART6_UART_Init(void)
  66:Src/usart.c   **** {
  72              		.loc 1 66 0
  73              		.cfi_startproc
  74              		@ args = 0, pretend = 0, frame = 0
  75              		@ frame_needed = 0, uses_anonymous_args = 0
  76              		@ link register save eliminated.
  67:Src/usart.c   **** 
  68:Src/usart.c   ****   huart6.Instance = USART6;
  77              		.loc 1 68 0
  78 0000 0748     		ldr	r0, .L5
  69:Src/usart.c   ****   huart6.Init.BaudRate = 115200;
  79              		.loc 1 69 0
  80 0002 084B     		ldr	r3, .L5+4
  81 0004 4FF4E13C 		mov	ip, #115200
  82 0008 80E80810 		stmia	r0, {r3, ip}
  70:Src/usart.c   ****   huart6.Init.WordLength = UART_WORDLENGTH_8B;
  71:Src/usart.c   ****   huart6.Init.StopBits = UART_STOPBITS_1;
  72:Src/usart.c   ****   huart6.Init.Parity = UART_PARITY_NONE;
  73:Src/usart.c   ****   huart6.Init.Mode = UART_MODE_TX_RX;
  83              		.loc 1 73 0
  84 000c 0C22     		movs	r2, #12
  70:Src/usart.c   ****   huart6.Init.WordLength = UART_WORDLENGTH_8B;
  85              		.loc 1 70 0
  86 000e 0023     		movs	r3, #0
  87 0010 8360     		str	r3, [r0, #8]
  71:Src/usart.c   ****   huart6.Init.StopBits = UART_STOPBITS_1;
  88              		.loc 1 71 0
  89 0012 C360     		str	r3, [r0, #12]
  72:Src/usart.c   ****   huart6.Init.Parity = UART_PARITY_NONE;
  90              		.loc 1 72 0
  91 0014 0361     		str	r3, [r0, #16]
  92              		.loc 1 73 0
  93 0016 4261     		str	r2, [r0, #20]
  74:Src/usart.c   ****   huart6.Init.HwFlowCtl = UART_HWCONTROL_NONE;
  94              		.loc 1 74 0
ARM GAS  /var/folders/19/rz7506jh8xn7x1006s6s574h0000gn/T//ccTZ77F5.s 			page 4


  95 0018 8361     		str	r3, [r0, #24]
  75:Src/usart.c   ****   huart6.Init.OverSampling = UART_OVERSAMPLING_16;
  96              		.loc 1 75 0
  97 001a C361     		str	r3, [r0, #28]
  76:Src/usart.c   ****   HAL_UART_Init(&huart6);
  98              		.loc 1 76 0
  99 001c FFF7FEBF 		b	HAL_UART_Init
 100              	.LVL1:
 101              	.L6:
 102              		.align	2
 103              	.L5:
 104 0020 00000000 		.word	huart6
 105 0024 00140140 		.word	1073812480
 106              		.cfi_endproc
 107              	.LFE126:
 109              		.section	.text.HAL_UART_MspInit,"ax",%progbits
 110              		.align	1
 111              		.global	HAL_UART_MspInit
 112              		.thumb
 113              		.thumb_func
 115              	HAL_UART_MspInit:
 116              	.LFB127:
  77:Src/usart.c   **** 
  78:Src/usart.c   **** }
  79:Src/usart.c   **** 
  80:Src/usart.c   **** void HAL_UART_MspInit(UART_HandleTypeDef* huart)
  81:Src/usart.c   **** {
 117              		.loc 1 81 0
 118              		.cfi_startproc
 119              		@ args = 0, pretend = 0, frame = 32
 120              		@ frame_needed = 0, uses_anonymous_args = 0
 121              	.LVL2:
 122 0000 00B5     		push	{lr}
 123              	.LCFI0:
 124              		.cfi_def_cfa_offset 4
 125              		.cfi_offset 14, -4
  82:Src/usart.c   **** 
  83:Src/usart.c   ****   GPIO_InitTypeDef GPIO_InitStruct;
  84:Src/usart.c   ****   if(huart->Instance==USART2)
 126              		.loc 1 84 0
 127 0002 0368     		ldr	r3, [r0]
 128 0004 1D4A     		ldr	r2, .L12
 129 0006 9342     		cmp	r3, r2
  81:Src/usart.c   **** {
 130              		.loc 1 81 0
 131 0008 89B0     		sub	sp, sp, #36
 132              	.LCFI1:
 133              		.cfi_def_cfa_offset 40
 134              		.loc 1 84 0
 135 000a 16D1     		bne	.L8
 136              	.LBB2:
  85:Src/usart.c   ****   {
  86:Src/usart.c   ****   /* USER CODE BEGIN USART2_MspInit 0 */
  87:Src/usart.c   **** 
  88:Src/usart.c   ****   /* USER CODE END USART2_MspInit 0 */
  89:Src/usart.c   ****     /* Peripheral clock enable */
  90:Src/usart.c   ****     __USART2_CLK_ENABLE();
ARM GAS  /var/folders/19/rz7506jh8xn7x1006s6s574h0000gn/T//ccTZ77F5.s 			page 5


 137              		.loc 1 90 0
 138 000c 0023     		movs	r3, #0
 139 000e 02F5FA32 		add	r2, r2, #128000
 140 0012 0193     		str	r3, [sp, #4]
 141 0014 116C     		ldr	r1, [r2, #64]
 142              	.LBE2:
  91:Src/usart.c   ****   
  92:Src/usart.c   ****     /**USART2 GPIO Configuration    
  93:Src/usart.c   ****     PA2     ------> USART2_TX
  94:Src/usart.c   ****     PA3     ------> USART2_RX 
  95:Src/usart.c   ****     */
  96:Src/usart.c   ****     GPIO_InitStruct.Pin = USART_TX_Pin|USART_RX_Pin;
  97:Src/usart.c   ****     GPIO_InitStruct.Mode = GPIO_MODE_AF_PP;
  98:Src/usart.c   ****     GPIO_InitStruct.Pull = GPIO_NOPULL;
  99:Src/usart.c   ****     GPIO_InitStruct.Speed = GPIO_SPEED_LOW;
 100:Src/usart.c   ****     GPIO_InitStruct.Alternate = GPIO_AF7_USART2;
 101:Src/usart.c   ****     HAL_GPIO_Init(GPIOA, &GPIO_InitStruct);
 143              		.loc 1 101 0
 144 0016 1A48     		ldr	r0, .L12+4
 145              	.LVL3:
 146              	.LBB3:
  90:Src/usart.c   ****     __USART2_CLK_ENABLE();
 147              		.loc 1 90 0
 148 0018 41F40031 		orr	r1, r1, #131072
 149 001c 1164     		str	r1, [r2, #64]
 150 001e 126C     		ldr	r2, [r2, #64]
 151              	.LBE3:
  98:Src/usart.c   ****     GPIO_InitStruct.Pull = GPIO_NOPULL;
 152              		.loc 1 98 0
 153 0020 0593     		str	r3, [sp, #20]
 154              	.LBB4:
  90:Src/usart.c   ****     __USART2_CLK_ENABLE();
 155              		.loc 1 90 0
 156 0022 02F40032 		and	r2, r2, #131072
 157 0026 0192     		str	r2, [sp, #4]
 158 0028 019A     		ldr	r2, [sp, #4]
 159              	.LBE4:
  99:Src/usart.c   ****     GPIO_InitStruct.Speed = GPIO_SPEED_LOW;
 160              		.loc 1 99 0
 161 002a 0693     		str	r3, [sp, #24]
  96:Src/usart.c   ****     GPIO_InitStruct.Pin = USART_TX_Pin|USART_RX_Pin;
 162              		.loc 1 96 0
 163 002c 0C22     		movs	r2, #12
 164 002e 0392     		str	r2, [sp, #12]
 100:Src/usart.c   ****     GPIO_InitStruct.Alternate = GPIO_AF7_USART2;
 165              		.loc 1 100 0
 166 0030 0723     		movs	r3, #7
  97:Src/usart.c   ****     GPIO_InitStruct.Mode = GPIO_MODE_AF_PP;
 167              		.loc 1 97 0
 168 0032 0222     		movs	r2, #2
 169 0034 0492     		str	r2, [sp, #16]
 100:Src/usart.c   ****     GPIO_InitStruct.Alternate = GPIO_AF7_USART2;
 170              		.loc 1 100 0
 171 0036 0793     		str	r3, [sp, #28]
 172 0038 19E0     		b	.L10
 173              	.LVL4:
 174              	.L8:
ARM GAS  /var/folders/19/rz7506jh8xn7x1006s6s574h0000gn/T//ccTZ77F5.s 			page 6


 102:Src/usart.c   **** 
 103:Src/usart.c   ****   /* USER CODE BEGIN USART2_MspInit 1 */
 104:Src/usart.c   **** 
 105:Src/usart.c   ****   /* USER CODE END USART2_MspInit 1 */
 106:Src/usart.c   ****   }
 107:Src/usart.c   ****   else if(huart->Instance==USART6)
 175              		.loc 1 107 0
 176 003a 124A     		ldr	r2, .L12+8
 177 003c 9342     		cmp	r3, r2
 178 003e 19D1     		bne	.L7
 179              	.LBB5:
 108:Src/usart.c   ****   {
 109:Src/usart.c   ****   /* USER CODE BEGIN USART6_MspInit 0 */
 110:Src/usart.c   **** 
 111:Src/usart.c   ****   /* USER CODE END USART6_MspInit 0 */
 112:Src/usart.c   ****     /* Peripheral clock enable */
 113:Src/usart.c   ****     __USART6_CLK_ENABLE();
 180              		.loc 1 113 0
 181 0040 0023     		movs	r3, #0
 182 0042 0293     		str	r3, [sp, #8]
 183 0044 104B     		ldr	r3, .L12+12
 184              	.LBE5:
 114:Src/usart.c   ****   
 115:Src/usart.c   ****     /**USART6 GPIO Configuration    
 116:Src/usart.c   ****     PC6     ------> USART6_TX
 117:Src/usart.c   ****     PC7     ------> USART6_RX 
 118:Src/usart.c   ****     */
 119:Src/usart.c   ****     GPIO_InitStruct.Pin = GPIO_PIN_6|GPIO_PIN_7;
 120:Src/usart.c   ****     GPIO_InitStruct.Mode = GPIO_MODE_AF_PP;
 121:Src/usart.c   ****     GPIO_InitStruct.Pull = GPIO_PULLUP;
 122:Src/usart.c   ****     GPIO_InitStruct.Speed = GPIO_SPEED_HIGH;
 123:Src/usart.c   ****     GPIO_InitStruct.Alternate = GPIO_AF8_USART6;
 124:Src/usart.c   ****     HAL_GPIO_Init(GPIOC, &GPIO_InitStruct);
 185              		.loc 1 124 0
 186 0046 1148     		ldr	r0, .L12+16
 187              	.LVL5:
 188              	.LBB6:
 113:Src/usart.c   ****     __USART6_CLK_ENABLE();
 189              		.loc 1 113 0
 190 0048 5A6C     		ldr	r2, [r3, #68]
 191 004a 42F02002 		orr	r2, r2, #32
 192 004e 5A64     		str	r2, [r3, #68]
 193 0050 5B6C     		ldr	r3, [r3, #68]
 194 0052 03F02003 		and	r3, r3, #32
 195 0056 0293     		str	r3, [sp, #8]
 196 0058 029B     		ldr	r3, [sp, #8]
 197              	.LBE6:
 119:Src/usart.c   ****     GPIO_InitStruct.Pin = GPIO_PIN_6|GPIO_PIN_7;
 198              		.loc 1 119 0
 199 005a C023     		movs	r3, #192
 200 005c 0393     		str	r3, [sp, #12]
 120:Src/usart.c   ****     GPIO_InitStruct.Mode = GPIO_MODE_AF_PP;
 201              		.loc 1 120 0
 202 005e 0223     		movs	r3, #2
 203 0060 0493     		str	r3, [sp, #16]
 121:Src/usart.c   ****     GPIO_InitStruct.Pull = GPIO_PULLUP;
 204              		.loc 1 121 0
ARM GAS  /var/folders/19/rz7506jh8xn7x1006s6s574h0000gn/T//ccTZ77F5.s 			page 7


 205 0062 0123     		movs	r3, #1
 206 0064 0593     		str	r3, [sp, #20]
 122:Src/usart.c   ****     GPIO_InitStruct.Speed = GPIO_SPEED_HIGH;
 207              		.loc 1 122 0
 208 0066 0323     		movs	r3, #3
 209 0068 0693     		str	r3, [sp, #24]
 123:Src/usart.c   ****     GPIO_InitStruct.Alternate = GPIO_AF8_USART6;
 210              		.loc 1 123 0
 211 006a 0823     		movs	r3, #8
 212 006c 0793     		str	r3, [sp, #28]
 213              	.L10:
 214              		.loc 1 124 0
 215 006e 03A9     		add	r1, sp, #12
 216 0070 FFF7FEFF 		bl	HAL_GPIO_Init
 217              	.LVL6:
 218              	.L7:
 125:Src/usart.c   **** 
 126:Src/usart.c   ****   /* USER CODE BEGIN USART6_MspInit 1 */
 127:Src/usart.c   **** 
 128:Src/usart.c   ****   /* USER CODE END USART6_MspInit 1 */
 129:Src/usart.c   ****   }
 130:Src/usart.c   **** }
 219              		.loc 1 130 0
 220 0074 09B0     		add	sp, sp, #36
 221              		@ sp needed
 222 0076 5DF804FB 		ldr	pc, [sp], #4
 223              	.L13:
 224 007a 00BF     		.align	2
 225              	.L12:
 226 007c 00440040 		.word	1073759232
 227 0080 00000240 		.word	1073872896
 228 0084 00140140 		.word	1073812480
 229 0088 00380240 		.word	1073887232
 230 008c 00080240 		.word	1073874944
 231              		.cfi_endproc
 232              	.LFE127:
 234              		.section	.text.HAL_UART_MspDeInit,"ax",%progbits
 235              		.align	1
 236              		.global	HAL_UART_MspDeInit
 237              		.thumb
 238              		.thumb_func
 240              	HAL_UART_MspDeInit:
 241              	.LFB128:
 131:Src/usart.c   **** 
 132:Src/usart.c   **** void HAL_UART_MspDeInit(UART_HandleTypeDef* huart)
 133:Src/usart.c   **** {
 242              		.loc 1 133 0
 243              		.cfi_startproc
 244              		@ args = 0, pretend = 0, frame = 0
 245              		@ frame_needed = 0, uses_anonymous_args = 0
 246              		@ link register save eliminated.
 247              	.LVL7:
 134:Src/usart.c   **** 
 135:Src/usart.c   ****   if(huart->Instance==USART2)
 248              		.loc 1 135 0
 249 0000 0368     		ldr	r3, [r0]
 250 0002 0C4A     		ldr	r2, .L18
ARM GAS  /var/folders/19/rz7506jh8xn7x1006s6s574h0000gn/T//ccTZ77F5.s 			page 8


 251 0004 9342     		cmp	r3, r2
 252 0006 07D1     		bne	.L15
 136:Src/usart.c   ****   {
 137:Src/usart.c   ****   /* USER CODE BEGIN USART2_MspDeInit 0 */
 138:Src/usart.c   **** 
 139:Src/usart.c   ****   /* USER CODE END USART2_MspDeInit 0 */
 140:Src/usart.c   ****     /* Peripheral clock disable */
 141:Src/usart.c   ****     __USART2_CLK_DISABLE();
 253              		.loc 1 141 0
 254 0008 0B4B     		ldr	r3, .L18+4
 142:Src/usart.c   ****   
 143:Src/usart.c   ****     /**USART2 GPIO Configuration    
 144:Src/usart.c   ****     PA2     ------> USART2_TX
 145:Src/usart.c   ****     PA3     ------> USART2_RX 
 146:Src/usart.c   ****     */
 147:Src/usart.c   ****     HAL_GPIO_DeInit(GPIOA, USART_TX_Pin|USART_RX_Pin);
 255              		.loc 1 147 0
 256 000a 0C48     		ldr	r0, .L18+8
 257              	.LVL8:
 141:Src/usart.c   ****     __USART2_CLK_DISABLE();
 258              		.loc 1 141 0
 259 000c 1A6C     		ldr	r2, [r3, #64]
 260 000e 22F40032 		bic	r2, r2, #131072
 261 0012 1A64     		str	r2, [r3, #64]
 262              		.loc 1 147 0
 263 0014 0C21     		movs	r1, #12
 264 0016 09E0     		b	.L17
 265              	.LVL9:
 266              	.L15:
 148:Src/usart.c   **** 
 149:Src/usart.c   ****   /* USER CODE BEGIN USART2_MspDeInit 1 */
 150:Src/usart.c   **** 
 151:Src/usart.c   ****   /* USER CODE END USART2_MspDeInit 1 */
 152:Src/usart.c   ****   }
 153:Src/usart.c   ****   else if(huart->Instance==USART6)
 267              		.loc 1 153 0
 268 0018 094A     		ldr	r2, .L18+12
 269 001a 9342     		cmp	r3, r2
 270 001c 08D1     		bne	.L14
 154:Src/usart.c   ****   {
 155:Src/usart.c   ****   /* USER CODE BEGIN USART6_MspDeInit 0 */
 156:Src/usart.c   **** 
 157:Src/usart.c   ****   /* USER CODE END USART6_MspDeInit 0 */
 158:Src/usart.c   ****     /* Peripheral clock disable */
 159:Src/usart.c   ****     __USART6_CLK_DISABLE();
 271              		.loc 1 159 0
 272 001e 064B     		ldr	r3, .L18+4
 160:Src/usart.c   ****   
 161:Src/usart.c   ****     /**USART6 GPIO Configuration    
 162:Src/usart.c   ****     PC6     ------> USART6_TX
 163:Src/usart.c   ****     PC7     ------> USART6_RX 
 164:Src/usart.c   ****     */
 165:Src/usart.c   ****     HAL_GPIO_DeInit(GPIOC, GPIO_PIN_6|GPIO_PIN_7);
 273              		.loc 1 165 0
 274 0020 0848     		ldr	r0, .L18+16
 275              	.LVL10:
 159:Src/usart.c   ****     __USART6_CLK_DISABLE();
ARM GAS  /var/folders/19/rz7506jh8xn7x1006s6s574h0000gn/T//ccTZ77F5.s 			page 9


 276              		.loc 1 159 0
 277 0022 5A6C     		ldr	r2, [r3, #68]
 278 0024 22F02002 		bic	r2, r2, #32
 279 0028 5A64     		str	r2, [r3, #68]
 280              		.loc 1 165 0
 281 002a C021     		movs	r1, #192
 282              	.L17:
 283 002c FFF7FEBF 		b	HAL_GPIO_DeInit
 284              	.LVL11:
 285              	.L14:
 286 0030 7047     		bx	lr
 287              	.L19:
 288 0032 00BF     		.align	2
 289              	.L18:
 290 0034 00440040 		.word	1073759232
 291 0038 00380240 		.word	1073887232
 292 003c 00000240 		.word	1073872896
 293 0040 00140140 		.word	1073812480
 294 0044 00080240 		.word	1073874944
 295              		.cfi_endproc
 296              	.LFE128:
 298              		.comm	huart6,64,4
 299              		.comm	huart2,64,4
 300              		.text
 301              	.Letext0:
 302              		.file 2 "/Users/Arethusa/Library/Arduino15/packages/arduino/tools/arm-none-eabi-gcc/4.8.3-2014q1/a
 303              		.file 3 "/Users/Arethusa/Library/Arduino15/packages/arduino/tools/arm-none-eabi-gcc/4.8.3-2014q1/a
 304              		.file 4 "Drivers/CMSIS/Device/ST/STM32F4xx/Include/stm32f401xe.h"
 305              		.file 5 "Drivers/STM32F4xx_HAL_Driver/Inc/stm32f4xx_hal_def.h"
 306              		.file 6 "Drivers/STM32F4xx_HAL_Driver/Inc/stm32f4xx_hal_gpio.h"
 307              		.file 7 "Drivers/STM32F4xx_HAL_Driver/Inc/stm32f4xx_hal_dma.h"
 308              		.file 8 "Drivers/STM32F4xx_HAL_Driver/Inc/stm32f4xx_hal_uart.h"
 309              		.file 9 "Drivers/CMSIS/Include/core_cm4.h"
ARM GAS  /var/folders/19/rz7506jh8xn7x1006s6s574h0000gn/T//ccTZ77F5.s 			page 10

