ARM GAS  /var/folders/19/rz7506jh8xn7x1006s6s574h0000gn/T//ccKTYC3Z.s 			page 1


   1              		.syntax unified
   2              		.cpu cortex-m4
   3              		.fpu softvfp
   4              		.eabi_attribute 20, 1
   5              		.eabi_attribute 21, 1
   6              		.eabi_attribute 23, 3
   7              		.eabi_attribute 24, 1
   8              		.eabi_attribute 25, 1
   9              		.eabi_attribute 26, 1
  10              		.eabi_attribute 30, 4
  11              		.eabi_attribute 34, 1
  12              		.eabi_attribute 18, 4
  13              		.thumb
  14              		.file	"usbd_conf.c"
  15              		.text
  16              	.Ltext0:
  17              		.cfi_sections	.debug_frame
  18              		.section	.text.HAL_PCD_MspInit,"ax",%progbits
  19              		.align	1
  20              		.global	HAL_PCD_MspInit
  21              		.thumb
  22              		.thumb_func
  24              	HAL_PCD_MspInit:
  25              	.LFB125:
  26              		.file 1 "Src/usbd_conf.c"
   1:Src/usbd_conf.c **** /**
   2:Src/usbd_conf.c ****   ******************************************************************************
   3:Src/usbd_conf.c ****   * @file           : usbd_conf.c
   4:Src/usbd_conf.c ****   * @version        : v1.0_Cube
   5:Src/usbd_conf.c ****   * @brief          : This file implements the board support package for the USB device library
   6:Src/usbd_conf.c ****   ******************************************************************************
   7:Src/usbd_conf.c ****   *
   8:Src/usbd_conf.c ****   * COPYRIGHT(c) 2016 STMicroelectronics
   9:Src/usbd_conf.c ****   *
  10:Src/usbd_conf.c ****   * Redistribution and use in source and binary forms, with or without modification,
  11:Src/usbd_conf.c ****   * are permitted provided that the following conditions are met:
  12:Src/usbd_conf.c ****   * 1. Redistributions of source code must retain the above copyright notice,
  13:Src/usbd_conf.c ****   * this list of conditions and the following disclaimer.
  14:Src/usbd_conf.c ****   * 2. Redistributions in binary form must reproduce the above copyright notice,
  15:Src/usbd_conf.c ****   * this list of conditions and the following disclaimer in the documentation
  16:Src/usbd_conf.c ****   * and/or other materials provided with the distribution.
  17:Src/usbd_conf.c ****   * 3. Neither the name of STMicroelectronics nor the names of its contributors
  18:Src/usbd_conf.c ****   * may be used to endorse or promote products derived from this software
  19:Src/usbd_conf.c ****   * without specific prior written permission.
  20:Src/usbd_conf.c ****   *
  21:Src/usbd_conf.c ****   * THIS SOFTWARE IS PROVIDED BY THE COPYRIGHT HOLDERS AND CONTRIBUTORS "AS IS"
  22:Src/usbd_conf.c ****   * AND ANY EXPRESS OR IMPLIED WARRANTIES, INCLUDING, BUT NOT LIMITED TO, THE
  23:Src/usbd_conf.c ****   * IMPLIED WARRANTIES OF MERCHANTABILITY AND FITNESS FOR A PARTICULAR PURPOSE ARE
  24:Src/usbd_conf.c ****   * DISCLAIMED. IN NO EVENT SHALL THE COPYRIGHT HOLDER OR CONTRIBUTORS BE LIABLE
  25:Src/usbd_conf.c ****   * FOR ANY DIRECT, INDIRECT, INCIDENTAL, SPECIAL, EXEMPLARY, OR CONSEQUENTIAL
  26:Src/usbd_conf.c ****   * DAMAGES (INCLUDING, BUT NOT LIMITED TO, PROCUREMENT OF SUBSTITUTE GOODS OR
  27:Src/usbd_conf.c ****   * SERVICES; LOSS OF USE, DATA, OR PROFITS; OR BUSINESS INTERRUPTION) HOWEVER
  28:Src/usbd_conf.c ****   * CAUSED AND ON ANY THEORY OF LIABILITY, WHETHER IN CONTRACT, STRICT LIABILITY,
  29:Src/usbd_conf.c ****   * OR TORT (INCLUDING NEGLIGENCE OR OTHERWISE) ARISING IN ANY WAY OUT OF THE USE
  30:Src/usbd_conf.c ****   * OF THIS SOFTWARE, EVEN IF ADVISED OF THE POSSIBILITY OF SUCH DAMAGE.
  31:Src/usbd_conf.c ****   *
  32:Src/usbd_conf.c ****   ******************************************************************************
ARM GAS  /var/folders/19/rz7506jh8xn7x1006s6s574h0000gn/T//ccKTYC3Z.s 			page 2


  33:Src/usbd_conf.c **** */
  34:Src/usbd_conf.c **** /* Includes ------------------------------------------------------------------*/
  35:Src/usbd_conf.c **** #include "stm32f4xx.h"
  36:Src/usbd_conf.c **** #include "stm32f4xx_hal.h"
  37:Src/usbd_conf.c **** #include "usbd_def.h"
  38:Src/usbd_conf.c **** #include "usbd_core.h"
  39:Src/usbd_conf.c **** 
  40:Src/usbd_conf.c **** PCD_HandleTypeDef hpcd_USB_OTG_FS;
  41:Src/usbd_conf.c **** 
  42:Src/usbd_conf.c **** /* External functions --------------------------------------------------------*/
  43:Src/usbd_conf.c **** void SystemClock_Config(void);
  44:Src/usbd_conf.c **** 
  45:Src/usbd_conf.c **** /* USER CODE BEGIN 0 */
  46:Src/usbd_conf.c **** /* USER CODE END 0 */
  47:Src/usbd_conf.c **** 
  48:Src/usbd_conf.c **** /* Private function prototypes -----------------------------------------------*/
  49:Src/usbd_conf.c **** /* Private functions ---------------------------------------------------------*/
  50:Src/usbd_conf.c **** /* USER CODE BEGIN 1 */
  51:Src/usbd_conf.c **** /* USER CODE END 1 */
  52:Src/usbd_conf.c **** 
  53:Src/usbd_conf.c **** /*******************************************************************************
  54:Src/usbd_conf.c ****                        LL Driver Callbacks (PCD -> USB Device Library)
  55:Src/usbd_conf.c **** *******************************************************************************/
  56:Src/usbd_conf.c **** /* MSP Init */
  57:Src/usbd_conf.c **** 
  58:Src/usbd_conf.c **** void HAL_PCD_MspInit(PCD_HandleTypeDef* hpcd)
  59:Src/usbd_conf.c **** {
  27              		.loc 1 59 0
  28              		.cfi_startproc
  29              		@ args = 0, pretend = 0, frame = 24
  30              		@ frame_needed = 0, uses_anonymous_args = 0
  31              	.LVL0:
  32 0000 10B5     		push	{r4, lr}
  33              	.LCFI0:
  34              		.cfi_def_cfa_offset 8
  35              		.cfi_offset 4, -8
  36              		.cfi_offset 14, -4
  60:Src/usbd_conf.c ****   GPIO_InitTypeDef GPIO_InitStruct;
  61:Src/usbd_conf.c ****   if(hpcd->Instance==USB_OTG_FS)
  37              		.loc 1 61 0
  38 0002 0368     		ldr	r3, [r0]
  39 0004 B3F1A04F 		cmp	r3, #1342177280
  59:Src/usbd_conf.c **** {
  40              		.loc 1 59 0
  41 0008 86B0     		sub	sp, sp, #24
  42              	.LCFI1:
  43              		.cfi_def_cfa_offset 32
  44              		.loc 1 61 0
  45 000a 2ED1     		bne	.L1
  62:Src/usbd_conf.c ****   {
  63:Src/usbd_conf.c ****   /* USER CODE BEGIN USB_OTG_FS_MspInit 0 */
  64:Src/usbd_conf.c **** 
  65:Src/usbd_conf.c ****   /* USER CODE END USB_OTG_FS_MspInit 0 */
  66:Src/usbd_conf.c ****   
  67:Src/usbd_conf.c ****     /**USB_OTG_FS GPIO Configuration    
  68:Src/usbd_conf.c ****     PA9     ------> USB_OTG_FS_VBUS
  69:Src/usbd_conf.c ****     PA11     ------> USB_OTG_FS_DM
ARM GAS  /var/folders/19/rz7506jh8xn7x1006s6s574h0000gn/T//ccKTYC3Z.s 			page 3


  70:Src/usbd_conf.c ****     PA12     ------> USB_OTG_FS_DP 
  71:Src/usbd_conf.c ****     */
  72:Src/usbd_conf.c ****     GPIO_InitStruct.Pin = GPIO_PIN_9;
  73:Src/usbd_conf.c ****     GPIO_InitStruct.Mode = GPIO_MODE_INPUT;
  46              		.loc 1 73 0
  47 000c 0024     		movs	r4, #0
  72:Src/usbd_conf.c ****     GPIO_InitStruct.Pin = GPIO_PIN_9;
  48              		.loc 1 72 0
  49 000e 4FF40073 		mov	r3, #512
  74:Src/usbd_conf.c ****     GPIO_InitStruct.Pull = GPIO_NOPULL;
  75:Src/usbd_conf.c ****     HAL_GPIO_Init(GPIOA, &GPIO_InitStruct);
  50              		.loc 1 75 0
  51 0012 1748     		ldr	r0, .L4
  52              	.LVL1:
  72:Src/usbd_conf.c ****     GPIO_InitStruct.Pin = GPIO_PIN_9;
  53              		.loc 1 72 0
  54 0014 0193     		str	r3, [sp, #4]
  55              		.loc 1 75 0
  56 0016 01A9     		add	r1, sp, #4
  73:Src/usbd_conf.c ****     GPIO_InitStruct.Mode = GPIO_MODE_INPUT;
  57              		.loc 1 73 0
  58 0018 0294     		str	r4, [sp, #8]
  74:Src/usbd_conf.c ****     GPIO_InitStruct.Pull = GPIO_NOPULL;
  59              		.loc 1 74 0
  60 001a 0394     		str	r4, [sp, #12]
  61              		.loc 1 75 0
  62 001c FFF7FEFF 		bl	HAL_GPIO_Init
  63              	.LVL2:
  76:Src/usbd_conf.c **** 
  77:Src/usbd_conf.c ****     GPIO_InitStruct.Pin = GPIO_PIN_11|GPIO_PIN_12;
  64              		.loc 1 77 0
  65 0020 4FF4C053 		mov	r3, #6144
  66 0024 0193     		str	r3, [sp, #4]
  78:Src/usbd_conf.c ****     GPIO_InitStruct.Mode = GPIO_MODE_AF_PP;
  67              		.loc 1 78 0
  68 0026 0223     		movs	r3, #2
  69 0028 0293     		str	r3, [sp, #8]
  79:Src/usbd_conf.c ****     GPIO_InitStruct.Pull = GPIO_NOPULL;
  80:Src/usbd_conf.c ****     GPIO_InitStruct.Speed = GPIO_SPEED_HIGH;
  70              		.loc 1 80 0
  71 002a 0323     		movs	r3, #3
  72 002c 0493     		str	r3, [sp, #16]
  81:Src/usbd_conf.c ****     GPIO_InitStruct.Alternate = GPIO_AF10_OTG_FS;
  82:Src/usbd_conf.c ****     HAL_GPIO_Init(GPIOA, &GPIO_InitStruct);
  73              		.loc 1 82 0
  74 002e 1048     		ldr	r0, .L4
  79:Src/usbd_conf.c ****     GPIO_InitStruct.Pull = GPIO_NOPULL;
  75              		.loc 1 79 0
  76 0030 0394     		str	r4, [sp, #12]
  81:Src/usbd_conf.c ****     GPIO_InitStruct.Alternate = GPIO_AF10_OTG_FS;
  77              		.loc 1 81 0
  78 0032 0A23     		movs	r3, #10
  79              		.loc 1 82 0
  80 0034 01A9     		add	r1, sp, #4
  81:Src/usbd_conf.c ****     GPIO_InitStruct.Alternate = GPIO_AF10_OTG_FS;
  81              		.loc 1 81 0
  82 0036 0593     		str	r3, [sp, #20]
ARM GAS  /var/folders/19/rz7506jh8xn7x1006s6s574h0000gn/T//ccKTYC3Z.s 			page 4


  83              		.loc 1 82 0
  84 0038 FFF7FEFF 		bl	HAL_GPIO_Init
  85              	.LVL3:
  83:Src/usbd_conf.c **** 
  84:Src/usbd_conf.c ****     /* Peripheral clock enable */
  85:Src/usbd_conf.c ****     __USB_OTG_FS_CLK_ENABLE();
  86              		.loc 1 85 0
  87 003c 0D4B     		ldr	r3, .L4+4
  88 003e 5A6B     		ldr	r2, [r3, #52]
  89 0040 42F08002 		orr	r2, r2, #128
  90 0044 5A63     		str	r2, [r3, #52]
  91              	.LBB2:
  92 0046 0094     		str	r4, [sp]
  93 0048 5A6C     		ldr	r2, [r3, #68]
  94 004a 42F48042 		orr	r2, r2, #16384
  95 004e 5A64     		str	r2, [r3, #68]
  96 0050 5B6C     		ldr	r3, [r3, #68]
  97 0052 03F48043 		and	r3, r3, #16384
  98 0056 0093     		str	r3, [sp]
  99              	.LBE2:
  86:Src/usbd_conf.c **** 
  87:Src/usbd_conf.c ****     /* Peripheral interrupt init*/
  88:Src/usbd_conf.c ****     HAL_NVIC_SetPriority(OTG_FS_IRQn, 0, 0);
 100              		.loc 1 88 0
 101 0058 4320     		movs	r0, #67
 102 005a 2146     		mov	r1, r4
 103 005c 2246     		mov	r2, r4
 104              	.LBB3:
  85:Src/usbd_conf.c ****     __USB_OTG_FS_CLK_ENABLE();
 105              		.loc 1 85 0
 106 005e 009B     		ldr	r3, [sp]
 107              	.LBE3:
 108              		.loc 1 88 0
 109 0060 FFF7FEFF 		bl	HAL_NVIC_SetPriority
 110              	.LVL4:
  89:Src/usbd_conf.c ****     HAL_NVIC_EnableIRQ(OTG_FS_IRQn);
 111              		.loc 1 89 0
 112 0064 4320     		movs	r0, #67
 113 0066 FFF7FEFF 		bl	HAL_NVIC_EnableIRQ
 114              	.LVL5:
 115              	.L1:
  90:Src/usbd_conf.c ****   /* USER CODE BEGIN USB_OTG_FS_MspInit 1 */
  91:Src/usbd_conf.c **** 
  92:Src/usbd_conf.c ****   /* USER CODE END USB_OTG_FS_MspInit 1 */
  93:Src/usbd_conf.c ****   }
  94:Src/usbd_conf.c **** }
 116              		.loc 1 94 0
 117 006a 06B0     		add	sp, sp, #24
 118              		@ sp needed
 119 006c 10BD     		pop	{r4, pc}
 120              	.L5:
 121 006e 00BF     		.align	2
 122              	.L4:
 123 0070 00000240 		.word	1073872896
 124 0074 00380240 		.word	1073887232
 125              		.cfi_endproc
 126              	.LFE125:
ARM GAS  /var/folders/19/rz7506jh8xn7x1006s6s574h0000gn/T//ccKTYC3Z.s 			page 5


 128              		.section	.text.HAL_PCD_MspDeInit,"ax",%progbits
 129              		.align	1
 130              		.global	HAL_PCD_MspDeInit
 131              		.thumb
 132              		.thumb_func
 134              	HAL_PCD_MspDeInit:
 135              	.LFB126:
  95:Src/usbd_conf.c **** 
  96:Src/usbd_conf.c **** void HAL_PCD_MspDeInit(PCD_HandleTypeDef* hpcd)
  97:Src/usbd_conf.c **** {
 136              		.loc 1 97 0
 137              		.cfi_startproc
 138              		@ args = 0, pretend = 0, frame = 0
 139              		@ frame_needed = 0, uses_anonymous_args = 0
 140              	.LVL6:
 141 0000 08B5     		push	{r3, lr}
 142              	.LCFI2:
 143              		.cfi_def_cfa_offset 8
 144              		.cfi_offset 3, -8
 145              		.cfi_offset 14, -4
  98:Src/usbd_conf.c ****   if(hpcd->Instance==USB_OTG_FS)
 146              		.loc 1 98 0
 147 0002 0368     		ldr	r3, [r0]
 148 0004 B3F1A04F 		cmp	r3, #1342177280
 149 0008 0ED1     		bne	.L6
  99:Src/usbd_conf.c ****   {
 100:Src/usbd_conf.c ****   /* USER CODE BEGIN USB_OTG_FS_MspDeInit 0 */
 101:Src/usbd_conf.c **** 
 102:Src/usbd_conf.c ****   /* USER CODE END USB_OTG_FS_MspDeInit 0 */
 103:Src/usbd_conf.c ****     /* Peripheral clock disable */
 104:Src/usbd_conf.c ****     __USB_OTG_FS_CLK_DISABLE();
 150              		.loc 1 104 0
 151 000a 084B     		ldr	r3, .L8
 105:Src/usbd_conf.c ****   
 106:Src/usbd_conf.c ****     /**USB_OTG_FS GPIO Configuration    
 107:Src/usbd_conf.c ****     PA9     ------> USB_OTG_FS_VBUS
 108:Src/usbd_conf.c ****     PA11     ------> USB_OTG_FS_DM
 109:Src/usbd_conf.c ****     PA12     ------> USB_OTG_FS_DP 
 110:Src/usbd_conf.c ****     */
 111:Src/usbd_conf.c ****     HAL_GPIO_DeInit(GPIOA, GPIO_PIN_9|GPIO_PIN_11|GPIO_PIN_12);
 152              		.loc 1 111 0
 153 000c 0848     		ldr	r0, .L8+4
 154              	.LVL7:
 104:Src/usbd_conf.c ****     __USB_OTG_FS_CLK_DISABLE();
 155              		.loc 1 104 0
 156 000e 5A6B     		ldr	r2, [r3, #52]
 157 0010 22F08002 		bic	r2, r2, #128
 158 0014 5A63     		str	r2, [r3, #52]
 159              		.loc 1 111 0
 160 0016 4FF4D051 		mov	r1, #6656
 161 001a FFF7FEFF 		bl	HAL_GPIO_DeInit
 162              	.LVL8:
 112:Src/usbd_conf.c **** 
 113:Src/usbd_conf.c ****     /* Peripheral interrupt Deinit*/
 114:Src/usbd_conf.c ****     HAL_NVIC_DisableIRQ(OTG_FS_IRQn);
 163              		.loc 1 114 0
 164 001e 4320     		movs	r0, #67
ARM GAS  /var/folders/19/rz7506jh8xn7x1006s6s574h0000gn/T//ccKTYC3Z.s 			page 6


 115:Src/usbd_conf.c **** 
 116:Src/usbd_conf.c ****   /* USER CODE BEGIN USB_OTG_FS_MspDeInit 1 */
 117:Src/usbd_conf.c **** 
 118:Src/usbd_conf.c ****   /* USER CODE END USB_OTG_FS_MspDeInit 1 */
 119:Src/usbd_conf.c ****   }
 120:Src/usbd_conf.c **** }
 165              		.loc 1 120 0
 166 0020 BDE80840 		pop	{r3, lr}
 114:Src/usbd_conf.c ****     HAL_NVIC_DisableIRQ(OTG_FS_IRQn);
 167              		.loc 1 114 0
 168 0024 FFF7FEBF 		b	HAL_NVIC_DisableIRQ
 169              	.LVL9:
 170              	.L6:
 171 0028 08BD     		pop	{r3, pc}
 172              	.L9:
 173 002a 00BF     		.align	2
 174              	.L8:
 175 002c 00380240 		.word	1073887232
 176 0030 00000240 		.word	1073872896
 177              		.cfi_endproc
 178              	.LFE126:
 180              		.section	.text.HAL_PCD_SetupStageCallback,"ax",%progbits
 181              		.align	1
 182              		.global	HAL_PCD_SetupStageCallback
 183              		.thumb
 184              		.thumb_func
 186              	HAL_PCD_SetupStageCallback:
 187              	.LFB127:
 121:Src/usbd_conf.c **** 
 122:Src/usbd_conf.c **** /**
 123:Src/usbd_conf.c ****   * @brief  Setup stage callback
 124:Src/usbd_conf.c ****   * @param  hpcd: PCD handle
 125:Src/usbd_conf.c ****   * @retval None
 126:Src/usbd_conf.c ****   */
 127:Src/usbd_conf.c **** void HAL_PCD_SetupStageCallback(PCD_HandleTypeDef *hpcd)
 128:Src/usbd_conf.c **** {
 188              		.loc 1 128 0
 189              		.cfi_startproc
 190              		@ args = 0, pretend = 0, frame = 0
 191              		@ frame_needed = 0, uses_anonymous_args = 0
 192              		@ link register save eliminated.
 193              	.LVL10:
 194              		.loc 1 128 0
 195 0000 0146     		mov	r1, r0
 129:Src/usbd_conf.c ****   USBD_LL_SetupStage(hpcd->pData, (uint8_t *)hpcd->Setup);
 196              		.loc 1 129 0
 197 0002 01F56171 		add	r1, r1, #900
 198 0006 D0F8B403 		ldr	r0, [r0, #948]
 199              	.LVL11:
 200 000a FFF7FEBF 		b	USBD_LL_SetupStage
 201              	.LVL12:
 202              		.cfi_endproc
 203              	.LFE127:
 205              		.section	.text.HAL_PCD_DataOutStageCallback,"ax",%progbits
 206              		.align	1
 207              		.global	HAL_PCD_DataOutStageCallback
 208              		.thumb
ARM GAS  /var/folders/19/rz7506jh8xn7x1006s6s574h0000gn/T//ccKTYC3Z.s 			page 7


 209              		.thumb_func
 211              	HAL_PCD_DataOutStageCallback:
 212              	.LFB128:
 130:Src/usbd_conf.c **** }
 131:Src/usbd_conf.c **** 
 132:Src/usbd_conf.c **** /**
 133:Src/usbd_conf.c ****   * @brief  Data Out stage callback.
 134:Src/usbd_conf.c ****   * @param  hpcd: PCD handle
 135:Src/usbd_conf.c ****   * @param  epnum: Endpoint Number
 136:Src/usbd_conf.c ****   * @retval None
 137:Src/usbd_conf.c ****   */
 138:Src/usbd_conf.c **** void HAL_PCD_DataOutStageCallback(PCD_HandleTypeDef *hpcd, uint8_t epnum)
 139:Src/usbd_conf.c **** {
 213              		.loc 1 139 0
 214              		.cfi_startproc
 215              		@ args = 0, pretend = 0, frame = 0
 216              		@ frame_needed = 0, uses_anonymous_args = 0
 217              		@ link register save eliminated.
 218              	.LVL13:
 140:Src/usbd_conf.c ****   USBD_LL_DataOutStage(hpcd->pData, epnum, hpcd->OUT_ep[epnum].xfer_buff);
 219              		.loc 1 140 0
 220 0000 1C23     		movs	r3, #28
 221 0002 03FB0103 		mla	r3, r3, r1, r0
 222 0006 D0F8B403 		ldr	r0, [r0, #948]
 223              	.LVL14:
 224 000a D3F8E821 		ldr	r2, [r3, #488]
 225 000e FFF7FEBF 		b	USBD_LL_DataOutStage
 226              	.LVL15:
 227              		.cfi_endproc
 228              	.LFE128:
 230              		.section	.text.HAL_PCD_DataInStageCallback,"ax",%progbits
 231              		.align	1
 232              		.global	HAL_PCD_DataInStageCallback
 233              		.thumb
 234              		.thumb_func
 236              	HAL_PCD_DataInStageCallback:
 237              	.LFB129:
 141:Src/usbd_conf.c **** }
 142:Src/usbd_conf.c **** 
 143:Src/usbd_conf.c **** /**
 144:Src/usbd_conf.c ****   * @brief  Data In stage callback..
 145:Src/usbd_conf.c ****   * @param  hpcd: PCD handle
 146:Src/usbd_conf.c ****   * @param  epnum: Endpoint Number
 147:Src/usbd_conf.c ****   * @retval None
 148:Src/usbd_conf.c ****   */
 149:Src/usbd_conf.c **** void HAL_PCD_DataInStageCallback(PCD_HandleTypeDef *hpcd, uint8_t epnum)
 150:Src/usbd_conf.c **** {
 238              		.loc 1 150 0
 239              		.cfi_startproc
 240              		@ args = 0, pretend = 0, frame = 0
 241              		@ frame_needed = 0, uses_anonymous_args = 0
 242              		@ link register save eliminated.
 243              	.LVL16:
 151:Src/usbd_conf.c ****   USBD_LL_DataInStage(hpcd->pData, epnum, hpcd->IN_ep[epnum].xfer_buff);
 244              		.loc 1 151 0
 245 0000 1C23     		movs	r3, #28
 246 0002 03FB0103 		mla	r3, r3, r1, r0
ARM GAS  /var/folders/19/rz7506jh8xn7x1006s6s574h0000gn/T//ccKTYC3Z.s 			page 8


 247 0006 D0F8B403 		ldr	r0, [r0, #948]
 248              	.LVL17:
 249 000a 5A6C     		ldr	r2, [r3, #68]
 250 000c FFF7FEBF 		b	USBD_LL_DataInStage
 251              	.LVL18:
 252              		.cfi_endproc
 253              	.LFE129:
 255              		.section	.text.HAL_PCD_SOFCallback,"ax",%progbits
 256              		.align	1
 257              		.global	HAL_PCD_SOFCallback
 258              		.thumb
 259              		.thumb_func
 261              	HAL_PCD_SOFCallback:
 262              	.LFB130:
 152:Src/usbd_conf.c **** }
 153:Src/usbd_conf.c **** 
 154:Src/usbd_conf.c **** /**
 155:Src/usbd_conf.c ****   * @brief  SOF callback.
 156:Src/usbd_conf.c ****   * @param  hpcd: PCD handle
 157:Src/usbd_conf.c ****   * @retval None
 158:Src/usbd_conf.c ****   */
 159:Src/usbd_conf.c **** void HAL_PCD_SOFCallback(PCD_HandleTypeDef *hpcd)
 160:Src/usbd_conf.c **** {
 263              		.loc 1 160 0
 264              		.cfi_startproc
 265              		@ args = 0, pretend = 0, frame = 0
 266              		@ frame_needed = 0, uses_anonymous_args = 0
 267              		@ link register save eliminated.
 268              	.LVL19:
 161:Src/usbd_conf.c ****   USBD_LL_SOF(hpcd->pData);
 269              		.loc 1 161 0
 270 0000 D0F8B403 		ldr	r0, [r0, #948]
 271              	.LVL20:
 272 0004 FFF7FEBF 		b	USBD_LL_SOF
 273              	.LVL21:
 274              		.cfi_endproc
 275              	.LFE130:
 277              		.section	.text.HAL_PCD_ResetCallback,"ax",%progbits
 278              		.align	1
 279              		.global	HAL_PCD_ResetCallback
 280              		.thumb
 281              		.thumb_func
 283              	HAL_PCD_ResetCallback:
 284              	.LFB131:
 162:Src/usbd_conf.c **** }
 163:Src/usbd_conf.c **** 
 164:Src/usbd_conf.c **** /**
 165:Src/usbd_conf.c ****   * @brief  Reset callback.
 166:Src/usbd_conf.c ****   * @param  hpcd: PCD handle
 167:Src/usbd_conf.c ****   * @retval None
 168:Src/usbd_conf.c ****   */
 169:Src/usbd_conf.c **** void HAL_PCD_ResetCallback(PCD_HandleTypeDef *hpcd)
 170:Src/usbd_conf.c **** { 
 285              		.loc 1 170 0
 286              		.cfi_startproc
 287              		@ args = 0, pretend = 0, frame = 0
 288              		@ frame_needed = 0, uses_anonymous_args = 0
ARM GAS  /var/folders/19/rz7506jh8xn7x1006s6s574h0000gn/T//ccKTYC3Z.s 			page 9


 289              	.LVL22:
 290 0000 10B5     		push	{r4, lr}
 291              	.LCFI3:
 292              		.cfi_def_cfa_offset 8
 293              		.cfi_offset 4, -8
 294              		.cfi_offset 14, -4
 171:Src/usbd_conf.c ****   USBD_SpeedTypeDef speed = USBD_SPEED_FULL;
 172:Src/usbd_conf.c **** 
 173:Src/usbd_conf.c ****   /*Set USB Current Speed*/
 174:Src/usbd_conf.c ****   switch (hpcd->Init.speed)
 295              		.loc 1 174 0
 296 0002 C168     		ldr	r1, [r0, #12]
 297              	.LVL23:
 170:Src/usbd_conf.c **** { 
 298              		.loc 1 170 0
 299 0004 0446     		mov	r4, r0
 175:Src/usbd_conf.c ****   {
 176:Src/usbd_conf.c ****   case PCD_SPEED_HIGH:
 177:Src/usbd_conf.c ****     speed = USBD_SPEED_HIGH;
 178:Src/usbd_conf.c ****     break;
 179:Src/usbd_conf.c ****   case PCD_SPEED_FULL:
 180:Src/usbd_conf.c ****     speed = USBD_SPEED_FULL;    
 181:Src/usbd_conf.c ****     break;
 182:Src/usbd_conf.c **** 	
 183:Src/usbd_conf.c ****   default:
 184:Src/usbd_conf.c ****     speed = USBD_SPEED_FULL;    
 185:Src/usbd_conf.c ****     break;    
 186:Src/usbd_conf.c ****   }
 187:Src/usbd_conf.c ****   USBD_LL_SetSpeed(hpcd->pData, speed);  
 300              		.loc 1 187 0
 301 0006 0031     		adds	r1, r1, #0
 302              	.LVL24:
 303 0008 D0F8B403 		ldr	r0, [r0, #948]
 304              	.LVL25:
 305 000c 18BF     		it	ne
 306 000e 0121     		movne	r1, #1
 307 0010 FFF7FEFF 		bl	USBD_LL_SetSpeed
 308              	.LVL26:
 188:Src/usbd_conf.c ****   
 189:Src/usbd_conf.c ****   /*Reset Device*/
 190:Src/usbd_conf.c ****   USBD_LL_Reset(hpcd->pData);
 309              		.loc 1 190 0
 310 0014 D4F8B403 		ldr	r0, [r4, #948]
 191:Src/usbd_conf.c **** }
 311              		.loc 1 191 0
 312 0018 BDE81040 		pop	{r4, lr}
 313              	.LVL27:
 190:Src/usbd_conf.c ****   USBD_LL_Reset(hpcd->pData);
 314              		.loc 1 190 0
 315 001c FFF7FEBF 		b	USBD_LL_Reset
 316              	.LVL28:
 317              		.cfi_endproc
 318              	.LFE131:
 320              		.section	.text.HAL_PCD_SuspendCallback,"ax",%progbits
 321              		.align	1
 322              		.global	HAL_PCD_SuspendCallback
 323              		.thumb
ARM GAS  /var/folders/19/rz7506jh8xn7x1006s6s574h0000gn/T//ccKTYC3Z.s 			page 10


 324              		.thumb_func
 326              	HAL_PCD_SuspendCallback:
 327              	.LFB132:
 192:Src/usbd_conf.c **** 
 193:Src/usbd_conf.c **** /**
 194:Src/usbd_conf.c ****   * @brief  Suspend callback.
 195:Src/usbd_conf.c ****   * When Low power mode is enabled the debug cannot be used (IAR, Keil doesn't support it)
 196:Src/usbd_conf.c ****   * @param  hpcd: PCD handle
 197:Src/usbd_conf.c ****   * @retval None
 198:Src/usbd_conf.c ****   */
 199:Src/usbd_conf.c **** void HAL_PCD_SuspendCallback(PCD_HandleTypeDef *hpcd)
 200:Src/usbd_conf.c **** {  
 328              		.loc 1 200 0
 329              		.cfi_startproc
 330              		@ args = 0, pretend = 0, frame = 0
 331              		@ frame_needed = 0, uses_anonymous_args = 0
 332              	.LVL29:
 333 0000 10B5     		push	{r4, lr}
 334              	.LCFI4:
 335              		.cfi_def_cfa_offset 8
 336              		.cfi_offset 4, -8
 337              		.cfi_offset 14, -4
 338              		.loc 1 200 0
 339 0002 0446     		mov	r4, r0
 201:Src/usbd_conf.c ****    /* Inform USB library that core enters in suspend Mode */
 202:Src/usbd_conf.c ****   USBD_LL_Suspend(hpcd->pData);
 340              		.loc 1 202 0
 341 0004 D0F8B403 		ldr	r0, [r0, #948]
 342              	.LVL30:
 343 0008 FFF7FEFF 		bl	USBD_LL_Suspend
 344              	.LVL31:
 203:Src/usbd_conf.c ****   __HAL_PCD_GATE_PHYCLOCK(hpcd);
 345              		.loc 1 203 0
 346 000c 2368     		ldr	r3, [r4]
 347 000e D3F8002E 		ldr	r2, [r3, #3584]
 348 0012 42F00102 		orr	r2, r2, #1
 349 0016 C3F8002E 		str	r2, [r3, #3584]
 204:Src/usbd_conf.c ****   /*Enter in STOP mode */
 205:Src/usbd_conf.c ****   /* USER CODE BEGIN 2 */
 206:Src/usbd_conf.c ****   if (hpcd->Init.low_power_enable)
 350              		.loc 1 206 0
 351 001a 236A     		ldr	r3, [r4, #32]
 352 001c 23B1     		cbz	r3, .L18
 207:Src/usbd_conf.c ****   {
 208:Src/usbd_conf.c ****     /* Set SLEEPDEEP bit and SleepOnExit of Cortex System Control Register */
 209:Src/usbd_conf.c ****     SCB->SCR |= (uint32_t)((uint32_t)(SCB_SCR_SLEEPDEEP_Msk | SCB_SCR_SLEEPONEXIT_Msk));
 353              		.loc 1 209 0
 354 001e 034B     		ldr	r3, .L23
 355 0020 1A69     		ldr	r2, [r3, #16]
 356 0022 42F00602 		orr	r2, r2, #6
 357 0026 1A61     		str	r2, [r3, #16]
 358              	.L18:
 359 0028 10BD     		pop	{r4, pc}
 360              	.LVL32:
 361              	.L24:
 362 002a 00BF     		.align	2
 363              	.L23:
ARM GAS  /var/folders/19/rz7506jh8xn7x1006s6s574h0000gn/T//ccKTYC3Z.s 			page 11


 364 002c 00ED00E0 		.word	-536810240
 365              		.cfi_endproc
 366              	.LFE132:
 368              		.section	.text.HAL_PCD_ResumeCallback,"ax",%progbits
 369              		.align	1
 370              		.global	HAL_PCD_ResumeCallback
 371              		.thumb
 372              		.thumb_func
 374              	HAL_PCD_ResumeCallback:
 375              	.LFB133:
 210:Src/usbd_conf.c ****   }
 211:Src/usbd_conf.c ****   /* USER CODE END 2 */
 212:Src/usbd_conf.c **** }
 213:Src/usbd_conf.c **** 
 214:Src/usbd_conf.c **** /**
 215:Src/usbd_conf.c ****   * @brief  Resume callback.
 216:Src/usbd_conf.c ****     When Low power mode is enabled the debug cannot be used (IAR, Keil doesn't support it)
 217:Src/usbd_conf.c ****   * @param  hpcd: PCD handle
 218:Src/usbd_conf.c ****   * @retval None
 219:Src/usbd_conf.c ****   */
 220:Src/usbd_conf.c **** void HAL_PCD_ResumeCallback(PCD_HandleTypeDef *hpcd)
 221:Src/usbd_conf.c **** {
 376              		.loc 1 221 0
 377              		.cfi_startproc
 378              		@ args = 0, pretend = 0, frame = 0
 379              		@ frame_needed = 0, uses_anonymous_args = 0
 380              		@ link register save eliminated.
 381              	.LVL33:
 222:Src/usbd_conf.c ****   /* USER CODE BEGIN 3 */
 223:Src/usbd_conf.c ****   /* USER CODE END 3 */
 224:Src/usbd_conf.c ****   USBD_LL_Resume(hpcd->pData);
 382              		.loc 1 224 0
 383 0000 D0F8B403 		ldr	r0, [r0, #948]
 384              	.LVL34:
 385 0004 FFF7FEBF 		b	USBD_LL_Resume
 386              	.LVL35:
 387              		.cfi_endproc
 388              	.LFE133:
 390              		.section	.text.HAL_PCD_ISOOUTIncompleteCallback,"ax",%progbits
 391              		.align	1
 392              		.global	HAL_PCD_ISOOUTIncompleteCallback
 393              		.thumb
 394              		.thumb_func
 396              	HAL_PCD_ISOOUTIncompleteCallback:
 397              	.LFB134:
 225:Src/usbd_conf.c **** }
 226:Src/usbd_conf.c **** 
 227:Src/usbd_conf.c **** /**
 228:Src/usbd_conf.c ****   * @brief  ISOC Out Incomplete callback.
 229:Src/usbd_conf.c ****   * @param  hpcd: PCD handle
 230:Src/usbd_conf.c ****   * @param  epnum: Endpoint Number
 231:Src/usbd_conf.c ****   * @retval None
 232:Src/usbd_conf.c ****   */
 233:Src/usbd_conf.c **** void HAL_PCD_ISOOUTIncompleteCallback(PCD_HandleTypeDef *hpcd, uint8_t epnum)
 234:Src/usbd_conf.c **** {
 398              		.loc 1 234 0
 399              		.cfi_startproc
ARM GAS  /var/folders/19/rz7506jh8xn7x1006s6s574h0000gn/T//ccKTYC3Z.s 			page 12


 400              		@ args = 0, pretend = 0, frame = 0
 401              		@ frame_needed = 0, uses_anonymous_args = 0
 402              		@ link register save eliminated.
 403              	.LVL36:
 235:Src/usbd_conf.c ****   USBD_LL_IsoOUTIncomplete(hpcd->pData, epnum);
 404              		.loc 1 235 0
 405 0000 D0F8B403 		ldr	r0, [r0, #948]
 406              	.LVL37:
 407 0004 FFF7FEBF 		b	USBD_LL_IsoOUTIncomplete
 408              	.LVL38:
 409              		.cfi_endproc
 410              	.LFE134:
 412              		.section	.text.HAL_PCD_ISOINIncompleteCallback,"ax",%progbits
 413              		.align	1
 414              		.global	HAL_PCD_ISOINIncompleteCallback
 415              		.thumb
 416              		.thumb_func
 418              	HAL_PCD_ISOINIncompleteCallback:
 419              	.LFB135:
 236:Src/usbd_conf.c **** }
 237:Src/usbd_conf.c **** 
 238:Src/usbd_conf.c **** /**
 239:Src/usbd_conf.c ****   * @brief  ISOC In Incomplete callback.
 240:Src/usbd_conf.c ****   * @param  hpcd: PCD handle
 241:Src/usbd_conf.c ****   * @param  epnum: Endpoint Number
 242:Src/usbd_conf.c ****   * @retval None
 243:Src/usbd_conf.c ****   */
 244:Src/usbd_conf.c **** void HAL_PCD_ISOINIncompleteCallback(PCD_HandleTypeDef *hpcd, uint8_t epnum)
 245:Src/usbd_conf.c **** {
 420              		.loc 1 245 0
 421              		.cfi_startproc
 422              		@ args = 0, pretend = 0, frame = 0
 423              		@ frame_needed = 0, uses_anonymous_args = 0
 424              		@ link register save eliminated.
 425              	.LVL39:
 246:Src/usbd_conf.c ****   USBD_LL_IsoINIncomplete(hpcd->pData, epnum);
 426              		.loc 1 246 0
 427 0000 D0F8B403 		ldr	r0, [r0, #948]
 428              	.LVL40:
 429 0004 FFF7FEBF 		b	USBD_LL_IsoINIncomplete
 430              	.LVL41:
 431              		.cfi_endproc
 432              	.LFE135:
 434              		.section	.text.HAL_PCD_ConnectCallback,"ax",%progbits
 435              		.align	1
 436              		.global	HAL_PCD_ConnectCallback
 437              		.thumb
 438              		.thumb_func
 440              	HAL_PCD_ConnectCallback:
 441              	.LFB136:
 247:Src/usbd_conf.c **** }
 248:Src/usbd_conf.c **** 
 249:Src/usbd_conf.c **** /**
 250:Src/usbd_conf.c ****   * @brief  Connect callback.
 251:Src/usbd_conf.c ****   * @param  hpcd: PCD handle
 252:Src/usbd_conf.c ****   * @retval None
 253:Src/usbd_conf.c ****   */
ARM GAS  /var/folders/19/rz7506jh8xn7x1006s6s574h0000gn/T//ccKTYC3Z.s 			page 13


 254:Src/usbd_conf.c **** void HAL_PCD_ConnectCallback(PCD_HandleTypeDef *hpcd)
 255:Src/usbd_conf.c **** {
 442              		.loc 1 255 0
 443              		.cfi_startproc
 444              		@ args = 0, pretend = 0, frame = 0
 445              		@ frame_needed = 0, uses_anonymous_args = 0
 446              		@ link register save eliminated.
 447              	.LVL42:
 256:Src/usbd_conf.c ****   USBD_LL_DevConnected(hpcd->pData);
 448              		.loc 1 256 0
 449 0000 D0F8B403 		ldr	r0, [r0, #948]
 450              	.LVL43:
 451 0004 FFF7FEBF 		b	USBD_LL_DevConnected
 452              	.LVL44:
 453              		.cfi_endproc
 454              	.LFE136:
 456              		.section	.text.HAL_PCD_DisconnectCallback,"ax",%progbits
 457              		.align	1
 458              		.global	HAL_PCD_DisconnectCallback
 459              		.thumb
 460              		.thumb_func
 462              	HAL_PCD_DisconnectCallback:
 463              	.LFB137:
 257:Src/usbd_conf.c **** }
 258:Src/usbd_conf.c **** 
 259:Src/usbd_conf.c **** /**
 260:Src/usbd_conf.c ****   * @brief  Disconnect callback.
 261:Src/usbd_conf.c ****   * @param  hpcd: PCD handle
 262:Src/usbd_conf.c ****   * @retval None
 263:Src/usbd_conf.c ****   */
 264:Src/usbd_conf.c **** void HAL_PCD_DisconnectCallback(PCD_HandleTypeDef *hpcd)
 265:Src/usbd_conf.c **** {
 464              		.loc 1 265 0
 465              		.cfi_startproc
 466              		@ args = 0, pretend = 0, frame = 0
 467              		@ frame_needed = 0, uses_anonymous_args = 0
 468              		@ link register save eliminated.
 469              	.LVL45:
 266:Src/usbd_conf.c ****   USBD_LL_DevDisconnected(hpcd->pData);
 470              		.loc 1 266 0
 471 0000 D0F8B403 		ldr	r0, [r0, #948]
 472              	.LVL46:
 473 0004 FFF7FEBF 		b	USBD_LL_DevDisconnected
 474              	.LVL47:
 475              		.cfi_endproc
 476              	.LFE137:
 478              		.section	.text.USBD_LL_Init,"ax",%progbits
 479              		.align	1
 480              		.global	USBD_LL_Init
 481              		.thumb
 482              		.thumb_func
 484              	USBD_LL_Init:
 485              	.LFB138:
 267:Src/usbd_conf.c **** }
 268:Src/usbd_conf.c **** 
 269:Src/usbd_conf.c **** /*******************************************************************************
 270:Src/usbd_conf.c ****                        LL Driver Interface (USB Device Library --> PCD)
ARM GAS  /var/folders/19/rz7506jh8xn7x1006s6s574h0000gn/T//ccKTYC3Z.s 			page 14


 271:Src/usbd_conf.c **** *******************************************************************************/
 272:Src/usbd_conf.c **** /**
 273:Src/usbd_conf.c ****   * @brief  Initializes the Low Level portion of the Device driver.
 274:Src/usbd_conf.c ****   * @param  pdev: Device handle
 275:Src/usbd_conf.c ****   * @retval USBD Status
 276:Src/usbd_conf.c ****   */
 277:Src/usbd_conf.c **** USBD_StatusTypeDef  USBD_LL_Init (USBD_HandleTypeDef *pdev)
 278:Src/usbd_conf.c **** { 
 486              		.loc 1 278 0
 487              		.cfi_startproc
 488              		@ args = 0, pretend = 0, frame = 0
 489              		@ frame_needed = 0, uses_anonymous_args = 0
 490              	.LVL48:
 491 0000 70B5     		push	{r4, r5, r6, lr}
 492              	.LCFI5:
 493              		.cfi_def_cfa_offset 16
 494              		.cfi_offset 4, -16
 495              		.cfi_offset 5, -12
 496              		.cfi_offset 6, -8
 497              		.cfi_offset 14, -4
 279:Src/usbd_conf.c ****   /* Init USB_IP */
 280:Src/usbd_conf.c ****   if (pdev->id == DEVICE_FS) {
 498              		.loc 1 280 0
 499 0002 0578     		ldrb	r5, [r0]	@ zero_extendqisi2
 500 0004 2DBB     		cbnz	r5, .L31
 281:Src/usbd_conf.c ****   /* Link The driver to the stack */	
 282:Src/usbd_conf.c ****   hpcd_USB_OTG_FS.pData = pdev;
 501              		.loc 1 282 0
 502 0006 144C     		ldr	r4, .L32
 283:Src/usbd_conf.c ****   pdev->pData = &hpcd_USB_OTG_FS; 
 284:Src/usbd_conf.c ****   
 285:Src/usbd_conf.c ****   hpcd_USB_OTG_FS.Instance = USB_OTG_FS;
 286:Src/usbd_conf.c ****   hpcd_USB_OTG_FS.Init.dev_endpoints = 7;
 503              		.loc 1 286 0
 504 0008 4FF0A042 		mov	r2, #1342177280
 505 000c 0723     		movs	r3, #7
 506 000e 84E80C00 		stmia	r4, {r2, r3}
 282:Src/usbd_conf.c ****   hpcd_USB_OTG_FS.pData = pdev;
 507              		.loc 1 282 0
 508 0012 C4F8B403 		str	r0, [r4, #948]
 287:Src/usbd_conf.c ****   hpcd_USB_OTG_FS.Init.speed = PCD_SPEED_FULL;
 509              		.loc 1 287 0
 510 0016 0223     		movs	r3, #2
 283:Src/usbd_conf.c ****   pdev->pData = &hpcd_USB_OTG_FS; 
 511              		.loc 1 283 0
 512 0018 C0F82042 		str	r4, [r0, #544]
 288:Src/usbd_conf.c ****   hpcd_USB_OTG_FS.Init.dma_enable = DISABLE;
 289:Src/usbd_conf.c ****   hpcd_USB_OTG_FS.Init.ep0_mps = DEP0CTL_MPS_64;
 290:Src/usbd_conf.c ****   hpcd_USB_OTG_FS.Init.phy_itface = PCD_PHY_EMBEDDED;
 291:Src/usbd_conf.c ****   hpcd_USB_OTG_FS.Init.Sof_enable = DISABLE;
 292:Src/usbd_conf.c ****   hpcd_USB_OTG_FS.Init.low_power_enable = DISABLE;
 293:Src/usbd_conf.c ****   hpcd_USB_OTG_FS.Init.lpm_enable = DISABLE;
 294:Src/usbd_conf.c ****   hpcd_USB_OTG_FS.Init.vbus_sensing_enable = ENABLE;
 513              		.loc 1 294 0
 514 001c 0126     		movs	r6, #1
 295:Src/usbd_conf.c ****   hpcd_USB_OTG_FS.Init.use_dedicated_ep1 = DISABLE;
 296:Src/usbd_conf.c ****   HAL_PCD_Init(&hpcd_USB_OTG_FS);
ARM GAS  /var/folders/19/rz7506jh8xn7x1006s6s574h0000gn/T//ccKTYC3Z.s 			page 15


 515              		.loc 1 296 0
 516 001e 2046     		mov	r0, r4
 517              	.LVL49:
 287:Src/usbd_conf.c ****   hpcd_USB_OTG_FS.Init.speed = PCD_SPEED_FULL;
 518              		.loc 1 287 0
 519 0020 E360     		str	r3, [r4, #12]
 290:Src/usbd_conf.c ****   hpcd_USB_OTG_FS.Init.phy_itface = PCD_PHY_EMBEDDED;
 520              		.loc 1 290 0
 521 0022 A361     		str	r3, [r4, #24]
 288:Src/usbd_conf.c ****   hpcd_USB_OTG_FS.Init.dma_enable = DISABLE;
 522              		.loc 1 288 0
 523 0024 2561     		str	r5, [r4, #16]
 289:Src/usbd_conf.c ****   hpcd_USB_OTG_FS.Init.ep0_mps = DEP0CTL_MPS_64;
 524              		.loc 1 289 0
 525 0026 6561     		str	r5, [r4, #20]
 291:Src/usbd_conf.c ****   hpcd_USB_OTG_FS.Init.Sof_enable = DISABLE;
 526              		.loc 1 291 0
 527 0028 E561     		str	r5, [r4, #28]
 292:Src/usbd_conf.c ****   hpcd_USB_OTG_FS.Init.low_power_enable = DISABLE;
 528              		.loc 1 292 0
 529 002a 2562     		str	r5, [r4, #32]
 293:Src/usbd_conf.c ****   hpcd_USB_OTG_FS.Init.lpm_enable = DISABLE;
 530              		.loc 1 293 0
 531 002c 6562     		str	r5, [r4, #36]
 294:Src/usbd_conf.c ****   hpcd_USB_OTG_FS.Init.vbus_sensing_enable = ENABLE;
 532              		.loc 1 294 0
 533 002e E662     		str	r6, [r4, #44]
 295:Src/usbd_conf.c ****   hpcd_USB_OTG_FS.Init.use_dedicated_ep1 = DISABLE;
 534              		.loc 1 295 0
 535 0030 2563     		str	r5, [r4, #48]
 536              		.loc 1 296 0
 537 0032 FFF7FEFF 		bl	HAL_PCD_Init
 538              	.LVL50:
 297:Src/usbd_conf.c **** 
 298:Src/usbd_conf.c ****   HAL_PCD_SetRxFiFo(&hpcd_USB_OTG_FS, 0x80);
 539              		.loc 1 298 0
 540 0036 8021     		movs	r1, #128
 541 0038 2046     		mov	r0, r4
 542 003a FFF7FEFF 		bl	HAL_PCDEx_SetRxFiFo
 543              	.LVL51:
 299:Src/usbd_conf.c ****   HAL_PCD_SetTxFiFo(&hpcd_USB_OTG_FS, 0, 0x40);
 544              		.loc 1 299 0
 545 003e 2946     		mov	r1, r5
 546 0040 4022     		movs	r2, #64
 547 0042 2046     		mov	r0, r4
 548 0044 FFF7FEFF 		bl	HAL_PCDEx_SetTxFiFo
 549              	.LVL52:
 300:Src/usbd_conf.c ****   HAL_PCD_SetTxFiFo(&hpcd_USB_OTG_FS, 1, 0x80);
 550              		.loc 1 300 0
 551 0048 2046     		mov	r0, r4
 552 004a 3146     		mov	r1, r6
 553 004c 8022     		movs	r2, #128
 554 004e FFF7FEFF 		bl	HAL_PCDEx_SetTxFiFo
 555              	.LVL53:
 556              	.L31:
 301:Src/usbd_conf.c ****   }
 302:Src/usbd_conf.c ****   return USBD_OK;
ARM GAS  /var/folders/19/rz7506jh8xn7x1006s6s574h0000gn/T//ccKTYC3Z.s 			page 16


 303:Src/usbd_conf.c **** }
 557              		.loc 1 303 0
 558 0052 0020     		movs	r0, #0
 559 0054 70BD     		pop	{r4, r5, r6, pc}
 560              	.L33:
 561 0056 00BF     		.align	2
 562              	.L32:
 563 0058 00000000 		.word	hpcd_USB_OTG_FS
 564              		.cfi_endproc
 565              	.LFE138:
 567              		.section	.text.USBD_LL_DeInit,"ax",%progbits
 568              		.align	1
 569              		.global	USBD_LL_DeInit
 570              		.thumb
 571              		.thumb_func
 573              	USBD_LL_DeInit:
 574              	.LFB139:
 304:Src/usbd_conf.c **** 
 305:Src/usbd_conf.c **** /**
 306:Src/usbd_conf.c ****   * @brief  De-Initializes the Low Level portion of the Device driver.
 307:Src/usbd_conf.c ****   * @param  pdev: Device handle
 308:Src/usbd_conf.c ****   * @retval USBD Status
 309:Src/usbd_conf.c ****   */
 310:Src/usbd_conf.c **** USBD_StatusTypeDef  USBD_LL_DeInit (USBD_HandleTypeDef *pdev)
 311:Src/usbd_conf.c **** {
 575              		.loc 1 311 0
 576              		.cfi_startproc
 577              		@ args = 0, pretend = 0, frame = 0
 578              		@ frame_needed = 0, uses_anonymous_args = 0
 579              	.LVL54:
 580 0000 08B5     		push	{r3, lr}
 581              	.LCFI6:
 582              		.cfi_def_cfa_offset 8
 583              		.cfi_offset 3, -8
 584              		.cfi_offset 14, -4
 312:Src/usbd_conf.c ****   HAL_PCD_DeInit(pdev->pData);
 585              		.loc 1 312 0
 586 0002 D0F82002 		ldr	r0, [r0, #544]
 587              	.LVL55:
 588 0006 FFF7FEFF 		bl	HAL_PCD_DeInit
 589              	.LVL56:
 313:Src/usbd_conf.c ****   return USBD_OK; 
 314:Src/usbd_conf.c **** }
 590              		.loc 1 314 0
 591 000a 0020     		movs	r0, #0
 592 000c 08BD     		pop	{r3, pc}
 593              		.cfi_endproc
 594              	.LFE139:
 596              		.section	.text.USBD_LL_Start,"ax",%progbits
 597              		.align	1
 598              		.global	USBD_LL_Start
 599              		.thumb
 600              		.thumb_func
 602              	USBD_LL_Start:
 603              	.LFB140:
 315:Src/usbd_conf.c **** 
 316:Src/usbd_conf.c **** /**
ARM GAS  /var/folders/19/rz7506jh8xn7x1006s6s574h0000gn/T//ccKTYC3Z.s 			page 17


 317:Src/usbd_conf.c ****   * @brief  Starts the Low Level portion of the Device driver. 
 318:Src/usbd_conf.c ****   * @param  pdev: Device handle
 319:Src/usbd_conf.c ****   * @retval USBD Status
 320:Src/usbd_conf.c ****   */
 321:Src/usbd_conf.c **** USBD_StatusTypeDef  USBD_LL_Start(USBD_HandleTypeDef *pdev)
 322:Src/usbd_conf.c **** {
 604              		.loc 1 322 0
 605              		.cfi_startproc
 606              		@ args = 0, pretend = 0, frame = 0
 607              		@ frame_needed = 0, uses_anonymous_args = 0
 608              	.LVL57:
 609 0000 08B5     		push	{r3, lr}
 610              	.LCFI7:
 611              		.cfi_def_cfa_offset 8
 612              		.cfi_offset 3, -8
 613              		.cfi_offset 14, -4
 323:Src/usbd_conf.c ****   HAL_PCD_Start(pdev->pData);
 614              		.loc 1 323 0
 615 0002 D0F82002 		ldr	r0, [r0, #544]
 616              	.LVL58:
 617 0006 FFF7FEFF 		bl	HAL_PCD_Start
 618              	.LVL59:
 324:Src/usbd_conf.c ****   return USBD_OK; 
 325:Src/usbd_conf.c **** }
 619              		.loc 1 325 0
 620 000a 0020     		movs	r0, #0
 621 000c 08BD     		pop	{r3, pc}
 622              		.cfi_endproc
 623              	.LFE140:
 625              		.section	.text.USBD_LL_Stop,"ax",%progbits
 626              		.align	1
 627              		.global	USBD_LL_Stop
 628              		.thumb
 629              		.thumb_func
 631              	USBD_LL_Stop:
 632              	.LFB141:
 326:Src/usbd_conf.c **** 
 327:Src/usbd_conf.c **** /**
 328:Src/usbd_conf.c ****   * @brief  Stops the Low Level portion of the Device driver.
 329:Src/usbd_conf.c ****   * @param  pdev: Device handle
 330:Src/usbd_conf.c ****   * @retval USBD Status
 331:Src/usbd_conf.c ****   */
 332:Src/usbd_conf.c **** USBD_StatusTypeDef  USBD_LL_Stop (USBD_HandleTypeDef *pdev)
 333:Src/usbd_conf.c **** {
 633              		.loc 1 333 0
 634              		.cfi_startproc
 635              		@ args = 0, pretend = 0, frame = 0
 636              		@ frame_needed = 0, uses_anonymous_args = 0
 637              	.LVL60:
 638 0000 08B5     		push	{r3, lr}
 639              	.LCFI8:
 640              		.cfi_def_cfa_offset 8
 641              		.cfi_offset 3, -8
 642              		.cfi_offset 14, -4
 334:Src/usbd_conf.c ****   HAL_PCD_Stop(pdev->pData);
 643              		.loc 1 334 0
 644 0002 D0F82002 		ldr	r0, [r0, #544]
ARM GAS  /var/folders/19/rz7506jh8xn7x1006s6s574h0000gn/T//ccKTYC3Z.s 			page 18


 645              	.LVL61:
 646 0006 FFF7FEFF 		bl	HAL_PCD_Stop
 647              	.LVL62:
 335:Src/usbd_conf.c ****   return USBD_OK; 
 336:Src/usbd_conf.c **** }
 648              		.loc 1 336 0
 649 000a 0020     		movs	r0, #0
 650 000c 08BD     		pop	{r3, pc}
 651              		.cfi_endproc
 652              	.LFE141:
 654              		.section	.text.USBD_LL_OpenEP,"ax",%progbits
 655              		.align	1
 656              		.global	USBD_LL_OpenEP
 657              		.thumb
 658              		.thumb_func
 660              	USBD_LL_OpenEP:
 661              	.LFB142:
 337:Src/usbd_conf.c **** 
 338:Src/usbd_conf.c **** /**
 339:Src/usbd_conf.c ****   * @brief  Opens an endpoint of the Low Level Driver.
 340:Src/usbd_conf.c ****   * @param  pdev: Device handle
 341:Src/usbd_conf.c ****   * @param  ep_addr: Endpoint Number
 342:Src/usbd_conf.c ****   * @param  ep_type: Endpoint Type
 343:Src/usbd_conf.c ****   * @param  ep_mps: Endpoint Max Packet Size                 
 344:Src/usbd_conf.c ****   * @retval USBD Status
 345:Src/usbd_conf.c ****   */
 346:Src/usbd_conf.c **** USBD_StatusTypeDef  USBD_LL_OpenEP  (USBD_HandleTypeDef *pdev, 
 347:Src/usbd_conf.c ****                                       uint8_t  ep_addr,                                      
 348:Src/usbd_conf.c ****                                       uint8_t  ep_type,
 349:Src/usbd_conf.c ****                                       uint16_t ep_mps)
 350:Src/usbd_conf.c **** {
 662              		.loc 1 350 0
 663              		.cfi_startproc
 664              		@ args = 0, pretend = 0, frame = 0
 665              		@ frame_needed = 0, uses_anonymous_args = 0
 666              	.LVL63:
 667 0000 10B5     		push	{r4, lr}
 668              	.LCFI9:
 669              		.cfi_def_cfa_offset 8
 670              		.cfi_offset 4, -8
 671              		.cfi_offset 14, -4
 672              		.loc 1 350 0
 673 0002 1446     		mov	r4, r2
 351:Src/usbd_conf.c **** 
 352:Src/usbd_conf.c ****   HAL_PCD_EP_Open(pdev->pData, 
 674              		.loc 1 352 0
 675 0004 D0F82002 		ldr	r0, [r0, #544]
 676              	.LVL64:
 677 0008 1A46     		mov	r2, r3
 678              	.LVL65:
 679 000a 2346     		mov	r3, r4
 680              	.LVL66:
 681 000c FFF7FEFF 		bl	HAL_PCD_EP_Open
 682              	.LVL67:
 353:Src/usbd_conf.c ****                   ep_addr, 
 354:Src/usbd_conf.c ****                   ep_mps, 
 355:Src/usbd_conf.c ****                   ep_type);
ARM GAS  /var/folders/19/rz7506jh8xn7x1006s6s574h0000gn/T//ccKTYC3Z.s 			page 19


 356:Src/usbd_conf.c ****   
 357:Src/usbd_conf.c ****   return USBD_OK; 
 358:Src/usbd_conf.c **** }
 683              		.loc 1 358 0
 684 0010 0020     		movs	r0, #0
 685 0012 10BD     		pop	{r4, pc}
 686              		.cfi_endproc
 687              	.LFE142:
 689              		.section	.text.USBD_LL_CloseEP,"ax",%progbits
 690              		.align	1
 691              		.global	USBD_LL_CloseEP
 692              		.thumb
 693              		.thumb_func
 695              	USBD_LL_CloseEP:
 696              	.LFB143:
 359:Src/usbd_conf.c **** 
 360:Src/usbd_conf.c **** /**
 361:Src/usbd_conf.c ****   * @brief  Closes an endpoint of the Low Level Driver.
 362:Src/usbd_conf.c ****   * @param  pdev: Device handle
 363:Src/usbd_conf.c ****   * @param  ep_addr: Endpoint Number
 364:Src/usbd_conf.c ****   * @retval USBD Status
 365:Src/usbd_conf.c ****   */
 366:Src/usbd_conf.c **** USBD_StatusTypeDef  USBD_LL_CloseEP (USBD_HandleTypeDef *pdev, uint8_t ep_addr)   
 367:Src/usbd_conf.c **** {
 697              		.loc 1 367 0
 698              		.cfi_startproc
 699              		@ args = 0, pretend = 0, frame = 0
 700              		@ frame_needed = 0, uses_anonymous_args = 0
 701              	.LVL68:
 702 0000 08B5     		push	{r3, lr}
 703              	.LCFI10:
 704              		.cfi_def_cfa_offset 8
 705              		.cfi_offset 3, -8
 706              		.cfi_offset 14, -4
 368:Src/usbd_conf.c ****   
 369:Src/usbd_conf.c ****   HAL_PCD_EP_Close(pdev->pData, ep_addr);
 707              		.loc 1 369 0
 708 0002 D0F82002 		ldr	r0, [r0, #544]
 709              	.LVL69:
 710 0006 FFF7FEFF 		bl	HAL_PCD_EP_Close
 711              	.LVL70:
 370:Src/usbd_conf.c ****   return USBD_OK; 
 371:Src/usbd_conf.c **** }
 712              		.loc 1 371 0
 713 000a 0020     		movs	r0, #0
 714 000c 08BD     		pop	{r3, pc}
 715              		.cfi_endproc
 716              	.LFE143:
 718              		.section	.text.USBD_LL_FlushEP,"ax",%progbits
 719              		.align	1
 720              		.global	USBD_LL_FlushEP
 721              		.thumb
 722              		.thumb_func
 724              	USBD_LL_FlushEP:
 725              	.LFB144:
 372:Src/usbd_conf.c **** 
 373:Src/usbd_conf.c **** /**
ARM GAS  /var/folders/19/rz7506jh8xn7x1006s6s574h0000gn/T//ccKTYC3Z.s 			page 20


 374:Src/usbd_conf.c ****   * @brief  Flushes an endpoint of the Low Level Driver.
 375:Src/usbd_conf.c ****   * @param  pdev: Device handle
 376:Src/usbd_conf.c ****   * @param  ep_addr: Endpoint Number
 377:Src/usbd_conf.c ****   * @retval USBD Status
 378:Src/usbd_conf.c ****   */
 379:Src/usbd_conf.c **** USBD_StatusTypeDef  USBD_LL_FlushEP (USBD_HandleTypeDef *pdev, uint8_t ep_addr)   
 380:Src/usbd_conf.c **** {
 726              		.loc 1 380 0
 727              		.cfi_startproc
 728              		@ args = 0, pretend = 0, frame = 0
 729              		@ frame_needed = 0, uses_anonymous_args = 0
 730              	.LVL71:
 731 0000 08B5     		push	{r3, lr}
 732              	.LCFI11:
 733              		.cfi_def_cfa_offset 8
 734              		.cfi_offset 3, -8
 735              		.cfi_offset 14, -4
 381:Src/usbd_conf.c ****   
 382:Src/usbd_conf.c ****   HAL_PCD_EP_Flush(pdev->pData, ep_addr);
 736              		.loc 1 382 0
 737 0002 D0F82002 		ldr	r0, [r0, #544]
 738              	.LVL72:
 739 0006 FFF7FEFF 		bl	HAL_PCD_EP_Flush
 740              	.LVL73:
 383:Src/usbd_conf.c ****   return USBD_OK; 
 384:Src/usbd_conf.c **** }
 741              		.loc 1 384 0
 742 000a 0020     		movs	r0, #0
 743 000c 08BD     		pop	{r3, pc}
 744              		.cfi_endproc
 745              	.LFE144:
 747              		.section	.text.USBD_LL_StallEP,"ax",%progbits
 748              		.align	1
 749              		.global	USBD_LL_StallEP
 750              		.thumb
 751              		.thumb_func
 753              	USBD_LL_StallEP:
 754              	.LFB145:
 385:Src/usbd_conf.c **** 
 386:Src/usbd_conf.c **** /**
 387:Src/usbd_conf.c ****   * @brief  Sets a Stall condition on an endpoint of the Low Level Driver.
 388:Src/usbd_conf.c ****   * @param  pdev: Device handle
 389:Src/usbd_conf.c ****   * @param  ep_addr: Endpoint Number
 390:Src/usbd_conf.c ****   * @retval USBD Status
 391:Src/usbd_conf.c ****   */
 392:Src/usbd_conf.c **** USBD_StatusTypeDef  USBD_LL_StallEP (USBD_HandleTypeDef *pdev, uint8_t ep_addr)   
 393:Src/usbd_conf.c **** {
 755              		.loc 1 393 0
 756              		.cfi_startproc
 757              		@ args = 0, pretend = 0, frame = 0
 758              		@ frame_needed = 0, uses_anonymous_args = 0
 759              	.LVL74:
 760 0000 08B5     		push	{r3, lr}
 761              	.LCFI12:
 762              		.cfi_def_cfa_offset 8
 763              		.cfi_offset 3, -8
 764              		.cfi_offset 14, -4
ARM GAS  /var/folders/19/rz7506jh8xn7x1006s6s574h0000gn/T//ccKTYC3Z.s 			page 21


 394:Src/usbd_conf.c ****   
 395:Src/usbd_conf.c ****   HAL_PCD_EP_SetStall(pdev->pData, ep_addr);
 765              		.loc 1 395 0
 766 0002 D0F82002 		ldr	r0, [r0, #544]
 767              	.LVL75:
 768 0006 FFF7FEFF 		bl	HAL_PCD_EP_SetStall
 769              	.LVL76:
 396:Src/usbd_conf.c ****   return USBD_OK; 
 397:Src/usbd_conf.c **** }
 770              		.loc 1 397 0
 771 000a 0020     		movs	r0, #0
 772 000c 08BD     		pop	{r3, pc}
 773              		.cfi_endproc
 774              	.LFE145:
 776              		.section	.text.USBD_LL_ClearStallEP,"ax",%progbits
 777              		.align	1
 778              		.global	USBD_LL_ClearStallEP
 779              		.thumb
 780              		.thumb_func
 782              	USBD_LL_ClearStallEP:
 783              	.LFB146:
 398:Src/usbd_conf.c **** 
 399:Src/usbd_conf.c **** /**
 400:Src/usbd_conf.c ****   * @brief  Clears a Stall condition on an endpoint of the Low Level Driver.
 401:Src/usbd_conf.c ****   * @param  pdev: Device handle
 402:Src/usbd_conf.c ****   * @param  ep_addr: Endpoint Number
 403:Src/usbd_conf.c ****   * @retval USBD Status
 404:Src/usbd_conf.c ****   */
 405:Src/usbd_conf.c **** USBD_StatusTypeDef  USBD_LL_ClearStallEP (USBD_HandleTypeDef *pdev, uint8_t ep_addr)   
 406:Src/usbd_conf.c **** {
 784              		.loc 1 406 0
 785              		.cfi_startproc
 786              		@ args = 0, pretend = 0, frame = 0
 787              		@ frame_needed = 0, uses_anonymous_args = 0
 788              	.LVL77:
 789 0000 08B5     		push	{r3, lr}
 790              	.LCFI13:
 791              		.cfi_def_cfa_offset 8
 792              		.cfi_offset 3, -8
 793              		.cfi_offset 14, -4
 407:Src/usbd_conf.c ****   
 408:Src/usbd_conf.c ****   HAL_PCD_EP_ClrStall(pdev->pData, ep_addr);  
 794              		.loc 1 408 0
 795 0002 D0F82002 		ldr	r0, [r0, #544]
 796              	.LVL78:
 797 0006 FFF7FEFF 		bl	HAL_PCD_EP_ClrStall
 798              	.LVL79:
 409:Src/usbd_conf.c ****   return USBD_OK; 
 410:Src/usbd_conf.c **** }
 799              		.loc 1 410 0
 800 000a 0020     		movs	r0, #0
 801 000c 08BD     		pop	{r3, pc}
 802              		.cfi_endproc
 803              	.LFE146:
 805              		.section	.text.USBD_LL_IsStallEP,"ax",%progbits
 806              		.align	1
 807              		.global	USBD_LL_IsStallEP
ARM GAS  /var/folders/19/rz7506jh8xn7x1006s6s574h0000gn/T//ccKTYC3Z.s 			page 22


 808              		.thumb
 809              		.thumb_func
 811              	USBD_LL_IsStallEP:
 812              	.LFB147:
 411:Src/usbd_conf.c **** 
 412:Src/usbd_conf.c **** /**
 413:Src/usbd_conf.c ****   * @brief  Returns Stall condition.
 414:Src/usbd_conf.c ****   * @param  pdev: Device handle
 415:Src/usbd_conf.c ****   * @param  ep_addr: Endpoint Number
 416:Src/usbd_conf.c ****   * @retval Stall (1: Yes, 0: No)
 417:Src/usbd_conf.c ****   */
 418:Src/usbd_conf.c **** uint8_t USBD_LL_IsStallEP (USBD_HandleTypeDef *pdev, uint8_t ep_addr)   
 419:Src/usbd_conf.c **** {
 813              		.loc 1 419 0
 814              		.cfi_startproc
 815              		@ args = 0, pretend = 0, frame = 0
 816              		@ frame_needed = 0, uses_anonymous_args = 0
 817              		@ link register save eliminated.
 818              	.LVL80:
 420:Src/usbd_conf.c ****   PCD_HandleTypeDef *hpcd = pdev->pData; 
 421:Src/usbd_conf.c ****   
 422:Src/usbd_conf.c ****   if((ep_addr & 0x80) == 0x80)
 819              		.loc 1 422 0
 820 0000 11F0800F 		tst	r1, #128
 420:Src/usbd_conf.c ****   PCD_HandleTypeDef *hpcd = pdev->pData; 
 821              		.loc 1 420 0
 822 0004 D0F82032 		ldr	r3, [r0, #544]
 823              	.LVL81:
 824 0008 4FF01C02 		mov	r2, #28
 825              		.loc 1 422 0
 826 000c 06D0     		beq	.L43
 423:Src/usbd_conf.c ****   {
 424:Src/usbd_conf.c ****     return hpcd->IN_ep[ep_addr & 0x7F].is_stall; 
 827              		.loc 1 424 0
 828 000e 01F07F01 		and	r1, r1, #127
 829              	.LVL82:
 830 0012 02FB0133 		mla	r3, r2, r1, r3
 831              	.LVL83:
 832 0016 93F83A00 		ldrb	r0, [r3, #58]	@ zero_extendqisi2
 833              	.LVL84:
 834 001a 7047     		bx	lr
 835              	.LVL85:
 836              	.L43:
 425:Src/usbd_conf.c ****   }
 426:Src/usbd_conf.c ****   else
 427:Src/usbd_conf.c ****   {
 428:Src/usbd_conf.c ****     return hpcd->OUT_ep[ep_addr & 0x7F].is_stall; 
 837              		.loc 1 428 0
 838 001c 02FB0131 		mla	r1, r2, r1, r3
 839              	.LVL86:
 840 0020 91F8DE01 		ldrb	r0, [r1, #478]	@ zero_extendqisi2
 841              	.LVL87:
 429:Src/usbd_conf.c ****   }
 430:Src/usbd_conf.c **** }
 842              		.loc 1 430 0
 843 0024 7047     		bx	lr
 844              		.cfi_endproc
ARM GAS  /var/folders/19/rz7506jh8xn7x1006s6s574h0000gn/T//ccKTYC3Z.s 			page 23


 845              	.LFE147:
 847              		.section	.text.USBD_LL_SetUSBAddress,"ax",%progbits
 848              		.align	1
 849              		.global	USBD_LL_SetUSBAddress
 850              		.thumb
 851              		.thumb_func
 853              	USBD_LL_SetUSBAddress:
 854              	.LFB148:
 431:Src/usbd_conf.c **** /**
 432:Src/usbd_conf.c ****   * @brief  Assigns a USB address to the device.
 433:Src/usbd_conf.c ****   * @param  pdev: Device handle
 434:Src/usbd_conf.c ****   * @param  ep_addr: Endpoint Number
 435:Src/usbd_conf.c ****   * @retval USBD Status
 436:Src/usbd_conf.c ****   */
 437:Src/usbd_conf.c **** USBD_StatusTypeDef  USBD_LL_SetUSBAddress (USBD_HandleTypeDef *pdev, uint8_t dev_addr)   
 438:Src/usbd_conf.c **** {
 855              		.loc 1 438 0
 856              		.cfi_startproc
 857              		@ args = 0, pretend = 0, frame = 0
 858              		@ frame_needed = 0, uses_anonymous_args = 0
 859              	.LVL88:
 860 0000 08B5     		push	{r3, lr}
 861              	.LCFI14:
 862              		.cfi_def_cfa_offset 8
 863              		.cfi_offset 3, -8
 864              		.cfi_offset 14, -4
 439:Src/usbd_conf.c ****   
 440:Src/usbd_conf.c ****   HAL_PCD_SetAddress(pdev->pData, dev_addr);
 865              		.loc 1 440 0
 866 0002 D0F82002 		ldr	r0, [r0, #544]
 867              	.LVL89:
 868 0006 FFF7FEFF 		bl	HAL_PCD_SetAddress
 869              	.LVL90:
 441:Src/usbd_conf.c ****   return USBD_OK; 
 442:Src/usbd_conf.c **** }
 870              		.loc 1 442 0
 871 000a 0020     		movs	r0, #0
 872 000c 08BD     		pop	{r3, pc}
 873              		.cfi_endproc
 874              	.LFE148:
 876              		.section	.text.USBD_LL_Transmit,"ax",%progbits
 877              		.align	1
 878              		.global	USBD_LL_Transmit
 879              		.thumb
 880              		.thumb_func
 882              	USBD_LL_Transmit:
 883              	.LFB149:
 443:Src/usbd_conf.c **** 
 444:Src/usbd_conf.c **** /**
 445:Src/usbd_conf.c ****   * @brief  Transmits data over an endpoint.
 446:Src/usbd_conf.c ****   * @param  pdev: Device handle
 447:Src/usbd_conf.c ****   * @param  ep_addr: Endpoint Number
 448:Src/usbd_conf.c ****   * @param  pbuf: Pointer to data to be sent
 449:Src/usbd_conf.c ****   * @param  size: Data size    
 450:Src/usbd_conf.c ****   * @retval USBD Status
 451:Src/usbd_conf.c ****   */
 452:Src/usbd_conf.c **** USBD_StatusTypeDef  USBD_LL_Transmit (USBD_HandleTypeDef *pdev, 
ARM GAS  /var/folders/19/rz7506jh8xn7x1006s6s574h0000gn/T//ccKTYC3Z.s 			page 24


 453:Src/usbd_conf.c ****                                       uint8_t  ep_addr,                                      
 454:Src/usbd_conf.c ****                                       uint8_t  *pbuf,
 455:Src/usbd_conf.c ****                                       uint16_t  size)
 456:Src/usbd_conf.c **** {
 884              		.loc 1 456 0
 885              		.cfi_startproc
 886              		@ args = 0, pretend = 0, frame = 0
 887              		@ frame_needed = 0, uses_anonymous_args = 0
 888              	.LVL91:
 889 0000 08B5     		push	{r3, lr}
 890              	.LCFI15:
 891              		.cfi_def_cfa_offset 8
 892              		.cfi_offset 3, -8
 893              		.cfi_offset 14, -4
 457:Src/usbd_conf.c **** 
 458:Src/usbd_conf.c ****   HAL_PCD_EP_Transmit(pdev->pData, ep_addr, pbuf, size);
 894              		.loc 1 458 0
 895 0002 D0F82002 		ldr	r0, [r0, #544]
 896              	.LVL92:
 897 0006 FFF7FEFF 		bl	HAL_PCD_EP_Transmit
 898              	.LVL93:
 459:Src/usbd_conf.c ****   return USBD_OK;   
 460:Src/usbd_conf.c **** }
 899              		.loc 1 460 0
 900 000a 0020     		movs	r0, #0
 901 000c 08BD     		pop	{r3, pc}
 902              		.cfi_endproc
 903              	.LFE149:
 905              		.section	.text.USBD_LL_PrepareReceive,"ax",%progbits
 906              		.align	1
 907              		.global	USBD_LL_PrepareReceive
 908              		.thumb
 909              		.thumb_func
 911              	USBD_LL_PrepareReceive:
 912              	.LFB150:
 461:Src/usbd_conf.c **** 
 462:Src/usbd_conf.c **** /**
 463:Src/usbd_conf.c ****   * @brief  Prepares an endpoint for reception.
 464:Src/usbd_conf.c ****   * @param  pdev: Device handle
 465:Src/usbd_conf.c ****   * @param  ep_addr: Endpoint Number
 466:Src/usbd_conf.c ****   * @param  pbuf: Pointer to data to be received
 467:Src/usbd_conf.c ****   * @param  size: Data size
 468:Src/usbd_conf.c ****   * @retval USBD Status
 469:Src/usbd_conf.c ****   */
 470:Src/usbd_conf.c **** USBD_StatusTypeDef  USBD_LL_PrepareReceive(USBD_HandleTypeDef *pdev, 
 471:Src/usbd_conf.c ****                                            uint8_t  ep_addr,                                      
 472:Src/usbd_conf.c ****                                            uint8_t  *pbuf,
 473:Src/usbd_conf.c ****                                            uint16_t  size)
 474:Src/usbd_conf.c **** {
 913              		.loc 1 474 0
 914              		.cfi_startproc
 915              		@ args = 0, pretend = 0, frame = 0
 916              		@ frame_needed = 0, uses_anonymous_args = 0
 917              	.LVL94:
 918 0000 08B5     		push	{r3, lr}
 919              	.LCFI16:
 920              		.cfi_def_cfa_offset 8
ARM GAS  /var/folders/19/rz7506jh8xn7x1006s6s574h0000gn/T//ccKTYC3Z.s 			page 25


 921              		.cfi_offset 3, -8
 922              		.cfi_offset 14, -4
 475:Src/usbd_conf.c **** 
 476:Src/usbd_conf.c ****   HAL_PCD_EP_Receive(pdev->pData, ep_addr, pbuf, size);
 923              		.loc 1 476 0
 924 0002 D0F82002 		ldr	r0, [r0, #544]
 925              	.LVL95:
 926 0006 FFF7FEFF 		bl	HAL_PCD_EP_Receive
 927              	.LVL96:
 477:Src/usbd_conf.c ****   return USBD_OK;   
 478:Src/usbd_conf.c **** }
 928              		.loc 1 478 0
 929 000a 0020     		movs	r0, #0
 930 000c 08BD     		pop	{r3, pc}
 931              		.cfi_endproc
 932              	.LFE150:
 934              		.section	.text.USBD_LL_GetRxDataSize,"ax",%progbits
 935              		.align	1
 936              		.global	USBD_LL_GetRxDataSize
 937              		.thumb
 938              		.thumb_func
 940              	USBD_LL_GetRxDataSize:
 941              	.LFB151:
 479:Src/usbd_conf.c **** 
 480:Src/usbd_conf.c **** /**
 481:Src/usbd_conf.c ****   * @brief  Returns the last transfered packet size.
 482:Src/usbd_conf.c ****   * @param  pdev: Device handle
 483:Src/usbd_conf.c ****   * @param  ep_addr: Endpoint Number
 484:Src/usbd_conf.c ****   * @retval Recived Data Size
 485:Src/usbd_conf.c ****   */
 486:Src/usbd_conf.c **** uint32_t USBD_LL_GetRxDataSize  (USBD_HandleTypeDef *pdev, uint8_t  ep_addr)  
 487:Src/usbd_conf.c **** {
 942              		.loc 1 487 0
 943              		.cfi_startproc
 944              		@ args = 0, pretend = 0, frame = 0
 945              		@ frame_needed = 0, uses_anonymous_args = 0
 946              	.LVL97:
 947 0000 08B5     		push	{r3, lr}
 948              	.LCFI17:
 949              		.cfi_def_cfa_offset 8
 950              		.cfi_offset 3, -8
 951              		.cfi_offset 14, -4
 488:Src/usbd_conf.c ****   return HAL_PCD_EP_GetRxCount(pdev->pData, ep_addr);
 952              		.loc 1 488 0
 953 0002 D0F82002 		ldr	r0, [r0, #544]
 954              	.LVL98:
 955 0006 FFF7FEFF 		bl	HAL_PCD_EP_GetRxCount
 956              	.LVL99:
 489:Src/usbd_conf.c **** }
 957              		.loc 1 489 0
 958 000a 08BD     		pop	{r3, pc}
 959              		.cfi_endproc
 960              	.LFE151:
 962              		.section	.text.USBD_LL_Delay,"ax",%progbits
 963              		.align	1
 964              		.global	USBD_LL_Delay
 965              		.thumb
ARM GAS  /var/folders/19/rz7506jh8xn7x1006s6s574h0000gn/T//ccKTYC3Z.s 			page 26


 966              		.thumb_func
 968              	USBD_LL_Delay:
 969              	.LFB152:
 490:Src/usbd_conf.c **** #if (USBD_LPM_ENABLED == 1)
 491:Src/usbd_conf.c **** /**
 492:Src/usbd_conf.c ****   * @brief  HAL_PCDEx_LPM_Callback : Send LPM message to user layer
 493:Src/usbd_conf.c ****   * @param  hpcd: PCD handle
 494:Src/usbd_conf.c ****   * @param  msg: LPM message
 495:Src/usbd_conf.c ****   * @retval HAL status
 496:Src/usbd_conf.c ****   */
 497:Src/usbd_conf.c **** void HAL_PCDEx_LPM_Callback(PCD_HandleTypeDef *hpcd, PCD_LPM_MsgTypeDef msg)
 498:Src/usbd_conf.c **** {
 499:Src/usbd_conf.c ****   switch ( msg)
 500:Src/usbd_conf.c ****   {
 501:Src/usbd_conf.c ****   case PCD_LPM_L0_ACTIVE:
 502:Src/usbd_conf.c ****     if (hpcd->Init.low_power_enable)
 503:Src/usbd_conf.c ****     {
 504:Src/usbd_conf.c ****       SystemClock_Config();
 505:Src/usbd_conf.c ****       
 506:Src/usbd_conf.c ****       /* Reset SLEEPDEEP bit of Cortex System Control Register */
 507:Src/usbd_conf.c ****       SCB->SCR &= (uint32_t)~((uint32_t)(SCB_SCR_SLEEPDEEP_Msk | SCB_SCR_SLEEPONEXIT_Msk));
 508:Src/usbd_conf.c ****     }
 509:Src/usbd_conf.c ****     __HAL_PCD_UNGATE_PHYCLOCK(hpcd);
 510:Src/usbd_conf.c ****     USBD_LL_Resume(hpcd->pData);    
 511:Src/usbd_conf.c ****     break;
 512:Src/usbd_conf.c ****     
 513:Src/usbd_conf.c ****   case PCD_LPM_L1_ACTIVE:
 514:Src/usbd_conf.c ****     __HAL_PCD_GATE_PHYCLOCK(hpcd);
 515:Src/usbd_conf.c ****     USBD_LL_Suspend(hpcd->pData);
 516:Src/usbd_conf.c ****     
 517:Src/usbd_conf.c ****     /*Enter in STOP mode */
 518:Src/usbd_conf.c ****     if (hpcd->Init.low_power_enable)
 519:Src/usbd_conf.c ****     {   
 520:Src/usbd_conf.c ****       /* Set SLEEPDEEP bit and SleepOnExit of Cortex System Control Register */
 521:Src/usbd_conf.c ****       SCB->SCR |= (uint32_t)((uint32_t)(SCB_SCR_SLEEPDEEP_Msk | SCB_SCR_SLEEPONEXIT_Msk));
 522:Src/usbd_conf.c ****     }     
 523:Src/usbd_conf.c ****     break;   
 524:Src/usbd_conf.c ****   }
 525:Src/usbd_conf.c **** }
 526:Src/usbd_conf.c **** #endif
 527:Src/usbd_conf.c **** /**
 528:Src/usbd_conf.c ****   * @brief  Delays routine for the USB Device Library.
 529:Src/usbd_conf.c ****   * @param  Delay: Delay in ms
 530:Src/usbd_conf.c ****   * @retval None
 531:Src/usbd_conf.c ****   */
 532:Src/usbd_conf.c **** void  USBD_LL_Delay (uint32_t Delay)
 533:Src/usbd_conf.c **** {
 970              		.loc 1 533 0
 971              		.cfi_startproc
 972              		@ args = 0, pretend = 0, frame = 0
 973              		@ frame_needed = 0, uses_anonymous_args = 0
 974              		@ link register save eliminated.
 975              	.LVL100:
 534:Src/usbd_conf.c ****   HAL_Delay(Delay);  
 976              		.loc 1 534 0
 977 0000 FFF7FEBF 		b	HAL_Delay
 978              	.LVL101:
ARM GAS  /var/folders/19/rz7506jh8xn7x1006s6s574h0000gn/T//ccKTYC3Z.s 			page 27


 979              		.cfi_endproc
 980              	.LFE152:
 982              		.comm	hpcd_USB_OTG_FS,952,4
 983              		.text
 984              	.Letext0:
 985              		.file 2 "Drivers/CMSIS/Device/ST/STM32F4xx/Include/stm32f401xe.h"
 986              		.file 3 "/Users/Arethusa/Library/Arduino15/packages/arduino/tools/arm-none-eabi-gcc/4.8.3-2014q1/a
 987              		.file 4 "/Users/Arethusa/Library/Arduino15/packages/arduino/tools/arm-none-eabi-gcc/4.8.3-2014q1/a
 988              		.file 5 "Drivers/CMSIS/Include/core_cm4.h"
 989              		.file 6 "Drivers/CMSIS/Device/ST/STM32F4xx/Include/stm32f4xx.h"
 990              		.file 7 "Drivers/STM32F4xx_HAL_Driver/Inc/stm32f4xx_hal_def.h"
 991              		.file 8 "Drivers/STM32F4xx_HAL_Driver/Inc/stm32f4xx_hal_gpio.h"
 992              		.file 9 "Drivers/STM32F4xx_HAL_Driver/Inc/stm32f4xx_ll_usb.h"
 993              		.file 10 "Drivers/STM32F4xx_HAL_Driver/Inc/stm32f4xx_hal_pcd.h"
 994              		.file 11 "Inc/usbd_def.h"
 995              		.file 12 "Drivers/STM32F4xx_HAL_Driver/Inc/stm32f4xx_hal_cortex.h"
 996              		.file 13 "Inc/usbd_core.h"
 997              		.file 14 "Drivers/STM32F4xx_HAL_Driver/Inc/stm32f4xx_hal_pcd_ex.h"
 998              		.file 15 "Drivers/STM32F4xx_HAL_Driver/Inc/stm32f4xx_hal.h"
ARM GAS  /var/folders/19/rz7506jh8xn7x1006s6s574h0000gn/T//ccKTYC3Z.s 			page 28

