ARM GAS  /var/folders/19/rz7506jh8xn7x1006s6s574h0000gn/T//ccSRetOg.s 			page 1


   1              		.syntax unified
   2              		.cpu cortex-m4
   3              		.fpu softvfp
   4              		.eabi_attribute 20, 1
   5              		.eabi_attribute 21, 1
   6              		.eabi_attribute 23, 3
   7              		.eabi_attribute 24, 1
   8              		.eabi_attribute 25, 1
   9              		.eabi_attribute 26, 1
  10              		.eabi_attribute 30, 4
  11              		.eabi_attribute 34, 1
  12              		.eabi_attribute 18, 4
  13              		.thumb
  14              		.syntax unified
  15              		.file	"wiring_digital.c"
  16              		.text
  17              	.Ltext0:
  18              		.cfi_sections	.debug_frame
  19              		.section	.text.pinMode,"ax",%progbits
  20              		.align	1
  21              		.global	pinMode
  22              		.thumb
  23              		.thumb_func
  25              	pinMode:
  26              	.LFB126:
  27              		.file 1 "../../cores/mapleMX/wiring_digital.c"
   1:../../cores/mapleMX/wiring_digital.c **** /*
   2:../../cores/mapleMX/wiring_digital.c ****   Copyright (c) 2011 Arduino.  All right reserved.
   3:../../cores/mapleMX/wiring_digital.c **** 
   4:../../cores/mapleMX/wiring_digital.c ****   This library is free software; you can redistribute it and/or
   5:../../cores/mapleMX/wiring_digital.c ****   modify it under the terms of the GNU Lesser General Public
   6:../../cores/mapleMX/wiring_digital.c ****   License as published by the Free Software Foundation; either
   7:../../cores/mapleMX/wiring_digital.c ****   version 2.1 of the License, or (at your option) any later version.
   8:../../cores/mapleMX/wiring_digital.c **** 
   9:../../cores/mapleMX/wiring_digital.c ****   This library is distributed in the hope that it will be useful,
  10:../../cores/mapleMX/wiring_digital.c ****   but WITHOUT ANY WARRANTY; without even the implied warranty of
  11:../../cores/mapleMX/wiring_digital.c ****   MERCHANTABILITY or FITNESS FOR A PARTICULAR PURPOSE.
  12:../../cores/mapleMX/wiring_digital.c ****   See the GNU Lesser General Public License for more details.
  13:../../cores/mapleMX/wiring_digital.c **** 
  14:../../cores/mapleMX/wiring_digital.c ****   You should have received a copy of the GNU Lesser General Public
  15:../../cores/mapleMX/wiring_digital.c ****   License along with this library; if not, write to the Free Software
  16:../../cores/mapleMX/wiring_digital.c ****   Foundation, Inc., 51 Franklin St, Fifth Floor, Boston, MA  02110-1301  USA
  17:../../cores/mapleMX/wiring_digital.c **** */
  18:../../cores/mapleMX/wiring_digital.c **** 
  19:../../cores/mapleMX/wiring_digital.c **** #include "Arduino.h"
  20:../../cores/mapleMX/wiring_digital.c **** #include "variant.h"
  21:../../cores/mapleMX/wiring_digital.c **** 
  22:../../cores/mapleMX/wiring_digital.c **** #ifdef __cplusplus
  23:../../cores/mapleMX/wiring_digital.c ****  extern "C" {
  24:../../cores/mapleMX/wiring_digital.c **** #endif
  25:../../cores/mapleMX/wiring_digital.c **** 
  26:../../cores/mapleMX/wiring_digital.c **** 	/* 
  27:../../cores/mapleMX/wiring_digital.c **** 	
  28:../../cores/mapleMX/wiring_digital.c **** 		the HAL drivers for STM32 do no access the registers directly 
  29:../../cores/mapleMX/wiring_digital.c **** 		opaque structures are used to abstract the functions needed
  30:../../cores/mapleMX/wiring_digital.c **** 		
  31:../../cores/mapleMX/wiring_digital.c **** 		existing STM examples show this defined locally a static 
ARM GAS  /var/folders/19/rz7506jh8xn7x1006s6s574h0000gn/T//ccSRetOg.s 			page 2


  32:../../cores/mapleMX/wiring_digital.c **** 		'static GPIO_InitTypeDef  GPIO_InitStruct;'
  33:../../cores/mapleMX/wiring_digital.c **** 
  34:../../cores/mapleMX/wiring_digital.c **** 		value which we set here.  This is different than the
  35:../../cores/mapleMX/wiring_digital.c **** 		way maple and sam set the pins as they use a global
  36:../../cores/mapleMX/wiring_digital.c **** 		array that contains device specific register setting values
  37:../../cores/mapleMX/wiring_digital.c **** 	
  38:../../cores/mapleMX/wiring_digital.c **** 
  39:../../cores/mapleMX/wiring_digital.c **** 		GPIO_InitTypeDef has the following members defined in stm32f4xx_hal_gpio.h:
  40:../../cores/mapleMX/wiring_digital.c **** 
  41:../../cores/mapleMX/wiring_digital.c ****   uint32_t Pin		Specifies the GPIO pins to be configured.
  42:../../cores/mapleMX/wiring_digital.c **** 					typically a bitmapped mask that can be stored in a 16 bit value
  43:../../cores/mapleMX/wiring_digital.c **** 
  44:../../cores/mapleMX/wiring_digital.c ****   uint32_t Mode		Specifies the operating mode for the selected pins.
  45:../../cores/mapleMX/wiring_digital.c ****                     There are a number of modes that can be defined. 
  46:../../cores/mapleMX/wiring_digital.c **** GPIO_MODE_INPUT		        	Input Floating Mode
  47:../../cores/mapleMX/wiring_digital.c **** GPIO_MODE_OUTPUT_PP        		Output Push Pull Mode
  48:../../cores/mapleMX/wiring_digital.c **** GPIO_MODE_OUTPUT_OD        		Output Open Drain Mode
  49:../../cores/mapleMX/wiring_digital.c **** GPIO_MODE_AF_PP            		Alternate Function Push Pull Mode
  50:../../cores/mapleMX/wiring_digital.c **** GPIO_MODE_AF_OD            		Alternate Function Open Drain Mode
  51:../../cores/mapleMX/wiring_digital.c **** 
  52:../../cores/mapleMX/wiring_digital.c **** GPIO_MODE_ANALOG           		Analog Mode
  53:../../cores/mapleMX/wiring_digital.c ****     
  54:../../cores/mapleMX/wiring_digital.c **** GPIO_MODE_IT_RISING        		External Interrupt Mode with Rising edge trigger detection
  55:../../cores/mapleMX/wiring_digital.c **** GPIO_MODE_IT_FALLING       		External Interrupt Mode with Falling edge trigger detection
  56:../../cores/mapleMX/wiring_digital.c **** GPIO_MODE_IT_RISING_FALLING		External Interrupt Mode with Rising/Falling edge trigger detection
  57:../../cores/mapleMX/wiring_digital.c ****  
  58:../../cores/mapleMX/wiring_digital.c **** GPIO_MODE_EVT_RISING       		External Event Mode with Rising edge trigger detection
  59:../../cores/mapleMX/wiring_digital.c **** GPIO_MODE_EVT_FALLING      		External Event Mode with Falling edge trigger detection
  60:../../cores/mapleMX/wiring_digital.c **** GPIO_MODE_EVT_RISING_FALLING	External Event Mode with Rising/Falling edge trigger detection
  61:../../cores/mapleMX/wiring_digital.c **** 
  62:../../cores/mapleMX/wiring_digital.c **** 
  63:../../cores/mapleMX/wiring_digital.c ****   uint32_t Pull		Specifies the Pull-up or Pull-Down activation for the selected pins.
  64:../../cores/mapleMX/wiring_digital.c **** GPIO_NOPULL						No Pull-up or Pull-down activation
  65:../../cores/mapleMX/wiring_digital.c **** GPIO_PULLUP						Pull-up activation
  66:../../cores/mapleMX/wiring_digital.c **** GPIO_PULLDOWN					Pull-down activation
  67:../../cores/mapleMX/wiring_digital.c **** 
  68:../../cores/mapleMX/wiring_digital.c ****   uint32_t Speed	Specifies the speed for the selected pins.
  69:../../cores/mapleMX/wiring_digital.c **** GPIO_SPEED_LOW					Low speed
  70:../../cores/mapleMX/wiring_digital.c **** GPIO_SPEED_MEDIUM				Medium speed
  71:../../cores/mapleMX/wiring_digital.c **** GPIO_SPEED_FAST					Fast speed
  72:../../cores/mapleMX/wiring_digital.c **** GPIO_SPEED_HIGH					High speed
  73:../../cores/mapleMX/wiring_digital.c **** 
  74:../../cores/mapleMX/wiring_digital.c ****   uint32_t Alternate	Peripheral to be connected to the selected pins. 
  75:../../cores/mapleMX/wiring_digital.c ****                         these are defined in stm32f4xx_hal_gpio_ex.h
  76:../../cores/mapleMX/wiring_digital.c ****                         not all calls to HAL_GPIO_Init require this value to 
  77:../../cores/mapleMX/wiring_digital.c ****                         be set in the existing example code    
  78:../../cores/mapleMX/wiring_digital.c ****                             
  79:../../cores/mapleMX/wiring_digital.c ****                             
  80:../../cores/mapleMX/wiring_digital.c **** */
  81:../../cores/mapleMX/wiring_digital.c **** 
  82:../../cores/mapleMX/wiring_digital.c **** 		
  83:../../cores/mapleMX/wiring_digital.c **** 		
  84:../../cores/mapleMX/wiring_digital.c **** 
  85:../../cores/mapleMX/wiring_digital.c **** extern void pinMode( uint32_t ulPin, uint32_t ulMode )
  86:../../cores/mapleMX/wiring_digital.c **** {
  28              		.loc 1 86 0
  29              		.cfi_startproc
ARM GAS  /var/folders/19/rz7506jh8xn7x1006s6s574h0000gn/T//ccSRetOg.s 			page 3


  30              		@ args = 0, pretend = 0, frame = 24
  31              		@ frame_needed = 0, uses_anonymous_args = 0
  32              	.LVL0:
  33 0000 7FB5     		push	{r0, r1, r2, r3, r4, r5, r6, lr}
  34              	.LCFI0:
  35              		.cfi_def_cfa_offset 32
  36              		.cfi_offset 14, -4
  87:../../cores/mapleMX/wiring_digital.c **** 
  88:../../cores/mapleMX/wiring_digital.c **** 	/*
  89:../../cores/mapleMX/wiring_digital.c **** 		in example code this is typically local
  90:../../cores/mapleMX/wiring_digital.c **** 	*/
  91:../../cores/mapleMX/wiring_digital.c **** 	GPIO_InitTypeDef  GPIO_InitStruct;
  92:../../cores/mapleMX/wiring_digital.c **** 	
  93:../../cores/mapleMX/wiring_digital.c **** 
  94:../../cores/mapleMX/wiring_digital.c **** 	/* 
  95:../../cores/mapleMX/wiring_digital.c **** 		to set the mode through the HAL libraries we populate the
  96:../../cores/mapleMX/wiring_digital.c **** 		structure.  If STM32CubeMX is used to enable the pin
  97:../../cores/mapleMX/wiring_digital.c **** 		or peripheral this code becomes redundant and may
  98:../../cores/mapleMX/wiring_digital.c **** 		conflict.
  99:../../cores/mapleMX/wiring_digital.c **** 		
 100:../../cores/mapleMX/wiring_digital.c **** 		an option to overcome this would be to set a flag
 101:../../cores/mapleMX/wiring_digital.c **** 		in the startup code that ignores this if the port is
 102:../../cores/mapleMX/wiring_digital.c **** 		already in use.
 103:../../cores/mapleMX/wiring_digital.c **** 		
 104:../../cores/mapleMX/wiring_digital.c **** 		first we need to get the port from the pin2port array
 105:../../cores/mapleMX/wiring_digital.c **** 		
 106:../../cores/mapleMX/wiring_digital.c **** 	*/
 107:../../cores/mapleMX/wiring_digital.c **** 
 108:../../cores/mapleMX/wiring_digital.c **** 	GPIO_InitStruct.Pin = g_Pin2PortMapArray[ulPin].Pin_abstraction;
  37              		.loc 1 108 0
  38 0002 0F4B     		ldr	r3, .L8
  39 0004 03EBC002 		add	r2, r3, r0, lsl #3
 109:../../cores/mapleMX/wiring_digital.c **** 	
 110:../../cores/mapleMX/wiring_digital.c **** 	/* check the port to see if it is a pin we can modify */
 111:../../cores/mapleMX/wiring_digital.c **** // from sam code -- needs work ---
 112:../../cores/mapleMX/wiring_digital.c **** //	if ( g_Pin2PortMapArray[ulPin].ulPinType == PIO_NOT_A_PIN )
 113:../../cores/mapleMX/wiring_digital.c **** //    {
 114:../../cores/mapleMX/wiring_digital.c **** //        return ;
 115:../../cores/mapleMX/wiring_digital.c **** //    }
 116:../../cores/mapleMX/wiring_digital.c **** 	/* 
 117:../../cores/mapleMX/wiring_digital.c **** 		Taken from blink led example
 118:../../cores/mapleMX/wiring_digital.c **** 		
 119:../../cores/mapleMX/wiring_digital.c **** 		there may need to be some additional methods to
 120:../../cores/mapleMX/wiring_digital.c **** 		allow for some of the additional hardware modes
 121:../../cores/mapleMX/wiring_digital.c **** 		that the STM32 can provide. these can and are set by the HAL init
 122:../../cores/mapleMX/wiring_digital.c **** 		code for specific peripherals this is included here to provide
 123:../../cores/mapleMX/wiring_digital.c **** 		existing Arduino library setup code in simple bitbang
 124:../../cores/mapleMX/wiring_digital.c **** 		examples.
 125:../../cores/mapleMX/wiring_digital.c **** 		Using this to setup built in peripherals probably will
 126:../../cores/mapleMX/wiring_digital.c **** 		conflict and cause unpredictable behavior
 127:../../cores/mapleMX/wiring_digital.c **** 	*/
 128:../../cores/mapleMX/wiring_digital.c **** 
 129:../../cores/mapleMX/wiring_digital.c **** 	switch ( ulMode )
  40              		.loc 1 129 0
  41 0008 0129     		cmp	r1, #1
 108:../../cores/mapleMX/wiring_digital.c **** 	
  42              		.loc 1 108 0
ARM GAS  /var/folders/19/rz7506jh8xn7x1006s6s574h0000gn/T//ccSRetOg.s 			page 4


  43 000a 5268     		ldr	r2, [r2, #4]
  44 000c 0192     		str	r2, [sp, #4]
  45              		.loc 1 129 0
  46 000e 09D0     		beq	.L3
  47 0010 05D3     		bcc	.L4
  48 0012 0229     		cmp	r1, #2
  49 0014 09D1     		bne	.L2
 130:../../cores/mapleMX/wiring_digital.c ****     {
 131:../../cores/mapleMX/wiring_digital.c ****         case INPUT:
 132:../../cores/mapleMX/wiring_digital.c **** 
 133:../../cores/mapleMX/wiring_digital.c ****   			GPIO_InitStruct.Mode = GPIO_MODE_INPUT;
 134:../../cores/mapleMX/wiring_digital.c ****   			GPIO_InitStruct.Pull = GPIO_NOPULL;
 135:../../cores/mapleMX/wiring_digital.c **** 
 136:../../cores/mapleMX/wiring_digital.c **** 		break ;
 137:../../cores/mapleMX/wiring_digital.c **** 
 138:../../cores/mapleMX/wiring_digital.c ****         case INPUT_PULLUP:
 139:../../cores/mapleMX/wiring_digital.c **** 			GPIO_InitStruct.Mode = GPIO_MODE_INPUT;
  50              		.loc 1 139 0
  51 0016 0022     		movs	r2, #0
  52 0018 0292     		str	r2, [sp, #8]
 140:../../cores/mapleMX/wiring_digital.c **** 			GPIO_InitStruct.Pull = GPIO_PULLUP;
  53              		.loc 1 140 0
  54 001a 0122     		movs	r2, #1
  55 001c 04E0     		b	.L6
  56              	.L4:
 133:../../cores/mapleMX/wiring_digital.c ****   			GPIO_InitStruct.Pull = GPIO_NOPULL;
  57              		.loc 1 133 0
  58 001e 0022     		movs	r2, #0
  59 0020 0292     		str	r2, [sp, #8]
  60 0022 01E0     		b	.L6
  61              	.L3:
 141:../../cores/mapleMX/wiring_digital.c **** 		break ;
 142:../../cores/mapleMX/wiring_digital.c **** 
 143:../../cores/mapleMX/wiring_digital.c ****         case OUTPUT:
 144:../../cores/mapleMX/wiring_digital.c ****  			GPIO_InitStruct.Mode = GPIO_MODE_OUTPUT_PP;
  62              		.loc 1 144 0
  63 0024 0291     		str	r1, [sp, #8]
 145:../../cores/mapleMX/wiring_digital.c ****  			GPIO_InitStruct.Pull = GPIO_NOPULL;
  64              		.loc 1 145 0
  65 0026 0022     		movs	r2, #0
  66              	.L6:
  67 0028 0392     		str	r2, [sp, #12]
  68              	.L2:
 146:../../cores/mapleMX/wiring_digital.c **** 		break ;
 147:../../cores/mapleMX/wiring_digital.c **** 
 148:../../cores/mapleMX/wiring_digital.c ****         default:
 149:../../cores/mapleMX/wiring_digital.c ****         break ;
 150:../../cores/mapleMX/wiring_digital.c ****     }
 151:../../cores/mapleMX/wiring_digital.c **** 
 152:../../cores/mapleMX/wiring_digital.c **** 	/*
 153:../../cores/mapleMX/wiring_digital.c **** 		this speed mapping taken from blink example
 154:../../cores/mapleMX/wiring_digital.c **** 		
 155:../../cores/mapleMX/wiring_digital.c **** 		There may be some chip specific issues here
 156:../../cores/mapleMX/wiring_digital.c **** 		Roger Clark identified that the F1xx HAL does
 157:../../cores/mapleMX/wiring_digital.c **** 		not define FAST for speed.
 158:../../cores/mapleMX/wiring_digital.c **** 		
 159:../../cores/mapleMX/wiring_digital.c **** 		Online examples of Blink are all over the place on
ARM GAS  /var/folders/19/rz7506jh8xn7x1006s6s574h0000gn/T//ccSRetOg.s 			page 5


 160:../../cores/mapleMX/wiring_digital.c **** 		how this should be set.
 161:../../cores/mapleMX/wiring_digital.c **** 		
 162:../../cores/mapleMX/wiring_digital.c **** 	*/
 163:../../cores/mapleMX/wiring_digital.c ****   	GPIO_InitStruct.Speed = GPIO_SPEED_HIGH;
  69              		.loc 1 163 0
  70 002a 0322     		movs	r2, #3
 164:../../cores/mapleMX/wiring_digital.c ****   	
 165:../../cores/mapleMX/wiring_digital.c ****   	/*
 166:../../cores/mapleMX/wiring_digital.c ****   		now we can call the actual setup code note that the
 167:../../cores/mapleMX/wiring_digital.c ****   		port reference is an opaque data type which
 168:../../cores/mapleMX/wiring_digital.c ****   		is typically a pointer.  This makes it awkward
 169:../../cores/mapleMX/wiring_digital.c ****   		to start the port clocks locally through a switch statement
 170:../../cores/mapleMX/wiring_digital.c ****   		on the port reference. We could shadow the port reference
 171:../../cores/mapleMX/wiring_digital.c ****   		as an enum, but would require a separate port peripheral
 172:../../cores/mapleMX/wiring_digital.c ****   		definition casts to a switchable int. 
 173:../../cores/mapleMX/wiring_digital.c ****   		
 174:../../cores/mapleMX/wiring_digital.c ****   		Currently port clocks are set as part of the gpio_h includes
 175:../../cores/mapleMX/wiring_digital.c ****   		from CubeMX.  This or an equivalent should be called
 176:../../cores/mapleMX/wiring_digital.c ****   		as part of main() as part of the HAL startup
 177:../../cores/mapleMX/wiring_digital.c ****   		
 178:../../cores/mapleMX/wiring_digital.c ****   		If no gpio is configured in CubeMX the gpio startup
 179:../../cores/mapleMX/wiring_digital.c ****   		will not be called and cause conflict with the clock system
 180:../../cores/mapleMX/wiring_digital.c ****   		
 181:../../cores/mapleMX/wiring_digital.c ****   		It may be necessary to provide some assert or
 182:../../cores/mapleMX/wiring_digital.c ****   		compiler warning setup should this code be used for general use. 
 183:../../cores/mapleMX/wiring_digital.c ****   		
 184:../../cores/mapleMX/wiring_digital.c ****   	*/
 185:../../cores/mapleMX/wiring_digital.c ****   	HAL_GPIO_Init(g_Pin2PortMapArray[ulPin].GPIOx_Port, &GPIO_InitStruct); 
  71              		.loc 1 185 0
  72 002c 01A9     		add	r1, sp, #4
  73              	.LVL1:
  74 002e 53F83000 		ldr	r0, [r3, r0, lsl #3]
  75              	.LVL2:
 163:../../cores/mapleMX/wiring_digital.c ****   	
  76              		.loc 1 163 0
  77 0032 0492     		str	r2, [sp, #16]
  78              		.loc 1 185 0
  79 0034 FFF7FEFF 		bl	HAL_GPIO_Init
  80              	.LVL3:
 186:../../cores/mapleMX/wiring_digital.c **** 
 187:../../cores/mapleMX/wiring_digital.c **** 
 188:../../cores/mapleMX/wiring_digital.c **** }
  81              		.loc 1 188 0
  82 0038 07B0     		add	sp, sp, #28
  83              	.LCFI1:
  84              		.cfi_def_cfa_offset 4
  85              		@ sp needed
  86 003a 5DF804FB 		ldr	pc, [sp], #4
  87              	.L9:
  88 003e 00BF     		.align	2
  89              	.L8:
  90 0040 00000000 		.word	g_Pin2PortMapArray
  91              		.cfi_endproc
  92              	.LFE126:
  94              		.section	.text.digitalWrite,"ax",%progbits
  95              		.align	1
  96              		.global	digitalWrite
ARM GAS  /var/folders/19/rz7506jh8xn7x1006s6s574h0000gn/T//ccSRetOg.s 			page 6


  97              		.thumb
  98              		.thumb_func
 100              	digitalWrite:
 101              	.LFB127:
 189:../../cores/mapleMX/wiring_digital.c **** 
 190:../../cores/mapleMX/wiring_digital.c **** extern void digitalWrite( uint32_t ulPin, uint32_t ulVal )
 191:../../cores/mapleMX/wiring_digital.c **** {
 102              		.loc 1 191 0
 103              		.cfi_startproc
 104              		@ args = 0, pretend = 0, frame = 0
 105              		@ frame_needed = 0, uses_anonymous_args = 0
 106              		@ link register save eliminated.
 107              	.LVL4:
 192:../../cores/mapleMX/wiring_digital.c **** 
 193:../../cores/mapleMX/wiring_digital.c **** 		switch(ulVal) {
 108              		.loc 1 193 0
 109 0000 0A46     		mov	r2, r1
 110 0002 09B1     		cbz	r1, .L12
 111 0004 0129     		cmp	r1, #1
 112 0006 07D1     		bne	.L14
 113              	.L12:
 194:../../cores/mapleMX/wiring_digital.c **** 		
 195:../../cores/mapleMX/wiring_digital.c **** 			case HIGH:
 196:../../cores/mapleMX/wiring_digital.c **** 				/* 
 197:../../cores/mapleMX/wiring_digital.c **** 					AVR allows for the writing of inputs to set the pull up state 
 198:../../cores/mapleMX/wiring_digital.c **** 					we may want to do this here as well to maintain compatibility. 
 199:../../cores/mapleMX/wiring_digital.c **** 				*/
 200:../../cores/mapleMX/wiring_digital.c **** 				HAL_GPIO_WritePin(g_Pin2PortMapArray[ulPin].GPIOx_Port,g_Pin2PortMapArray[ulPin].Pin_abstractio
 201:../../cores/mapleMX/wiring_digital.c **** 			break;
 202:../../cores/mapleMX/wiring_digital.c **** 			
 203:../../cores/mapleMX/wiring_digital.c **** 			case LOW:
 204:../../cores/mapleMX/wiring_digital.c **** 				/* simply reset the pin */
 205:../../cores/mapleMX/wiring_digital.c **** 				HAL_GPIO_WritePin(g_Pin2PortMapArray[ulPin].GPIOx_Port,g_Pin2PortMapArray[ulPin].Pin_abstractio
 114              		.loc 1 205 0
 115 0008 044B     		ldr	r3, .L15
 116 000a 03EBC001 		add	r1, r3, r0, lsl #3
 117              	.LVL5:
 118 000e 53F83000 		ldr	r0, [r3, r0, lsl #3]
 119              	.LVL6:
 120 0012 8988     		ldrh	r1, [r1, #4]
 121 0014 FFF7FEBF 		b	HAL_GPIO_WritePin
 122              	.LVL7:
 123              	.L14:
 124 0018 7047     		bx	lr
 125              	.L16:
 126 001a 00BF     		.align	2
 127              	.L15:
 128 001c 00000000 		.word	g_Pin2PortMapArray
 129              		.cfi_endproc
 130              	.LFE127:
 132              		.section	.text.digitalRead,"ax",%progbits
 133              		.align	1
 134              		.global	digitalRead
 135              		.thumb
 136              		.thumb_func
 138              	digitalRead:
 139              	.LFB128:
ARM GAS  /var/folders/19/rz7506jh8xn7x1006s6s574h0000gn/T//ccSRetOg.s 			page 7


 206:../../cores/mapleMX/wiring_digital.c **** 			break;
 207:../../cores/mapleMX/wiring_digital.c **** 			
 208:../../cores/mapleMX/wiring_digital.c **** 			default:
 209:../../cores/mapleMX/wiring_digital.c **** 				/* should do an assert here to handle error conditions */
 210:../../cores/mapleMX/wiring_digital.c **** 			break;
 211:../../cores/mapleMX/wiring_digital.c **** 		}
 212:../../cores/mapleMX/wiring_digital.c **** }
 213:../../cores/mapleMX/wiring_digital.c **** 
 214:../../cores/mapleMX/wiring_digital.c **** extern int digitalRead( uint32_t ulPin )
 215:../../cores/mapleMX/wiring_digital.c **** {
 140              		.loc 1 215 0
 141              		.cfi_startproc
 142              		@ args = 0, pretend = 0, frame = 0
 143              		@ frame_needed = 0, uses_anonymous_args = 0
 144              	.LVL8:
 145 0000 08B5     		push	{r3, lr}
 146              	.LCFI2:
 147              		.cfi_def_cfa_offset 8
 148              		.cfi_offset 3, -8
 149              		.cfi_offset 14, -4
 216:../../cores/mapleMX/wiring_digital.c **** 
 217:../../cores/mapleMX/wiring_digital.c **** 	/* can add a section here to see if pin is readable */
 218:../../cores/mapleMX/wiring_digital.c **** 	
 219:../../cores/mapleMX/wiring_digital.c **** 	
 220:../../cores/mapleMX/wiring_digital.c **** 	if(HAL_GPIO_ReadPin(g_Pin2PortMapArray[ulPin].GPIOx_Port,g_Pin2PortMapArray[ulPin].Pin_abstraction
 150              		.loc 1 220 0
 151 0002 064B     		ldr	r3, .L18
 152 0004 03EBC002 		add	r2, r3, r0, lsl #3
 153 0008 53F83000 		ldr	r0, [r3, r0, lsl #3]
 154              	.LVL9:
 155 000c 9188     		ldrh	r1, [r2, #4]
 156 000e FFF7FEFF 		bl	HAL_GPIO_ReadPin
 157              	.LVL10:
 221:../../cores/mapleMX/wiring_digital.c **** 	{
 222:../../cores/mapleMX/wiring_digital.c **** 		return LOW; // Set from HIGH to LOW by Vassilis Serasidis
 223:../../cores/mapleMX/wiring_digital.c **** 	}
 224:../../cores/mapleMX/wiring_digital.c **** 
 225:../../cores/mapleMX/wiring_digital.c **** 	return HIGH ; // Set from LOW to HIGH by Vassilis Serasidis
 226:../../cores/mapleMX/wiring_digital.c **** }
 158              		.loc 1 226 0
 159 0012 0030     		adds	r0, r0, #0
 160 0014 18BF     		it	ne
 161 0016 0120     		movne	r0, #1
 162 0018 08BD     		pop	{r3, pc}
 163              	.L19:
 164 001a 00BF     		.align	2
 165              	.L18:
 166 001c 00000000 		.word	g_Pin2PortMapArray
 167              		.cfi_endproc
 168              	.LFE128:
 170              		.text
 171              	.Letext0:
 172              		.file 2 "/Applications/Ac6/SystemWorkbench.app/Contents/Eclipse/plugins/fr.ac6.mcu.externaltools.a
 173              		.file 3 "/Applications/Ac6/SystemWorkbench.app/Contents/Eclipse/plugins/fr.ac6.mcu.externaltools.a
 174              		.file 4 "Drivers/CMSIS/Device/ST/STM32F4xx/Include/stm32f401xe.h"
 175              		.file 5 "Drivers/STM32F4xx_HAL_Driver/Inc/stm32f4xx_hal_gpio.h"
 176              		.file 6 "./variant.h"
ARM GAS  /var/folders/19/rz7506jh8xn7x1006s6s574h0000gn/T//ccSRetOg.s 			page 8


 177              		.file 7 "Drivers/CMSIS/Include/core_cm4.h"
ARM GAS  /var/folders/19/rz7506jh8xn7x1006s6s574h0000gn/T//ccSRetOg.s 			page 9

