ARM GAS  /var/folders/19/rz7506jh8xn7x1006s6s574h0000gn/T//ccMxP5sa.s 			page 1


   1              		.syntax unified
   2              		.cpu cortex-m4
   3              		.fpu softvfp
   4              		.eabi_attribute 20, 1
   5              		.eabi_attribute 21, 1
   6              		.eabi_attribute 23, 3
   7              		.eabi_attribute 24, 1
   8              		.eabi_attribute 25, 1
   9              		.eabi_attribute 26, 1
  10              		.eabi_attribute 30, 4
  11              		.eabi_attribute 34, 1
  12              		.eabi_attribute 18, 4
  13              		.thumb
  14              		.syntax unified
  15              		.file	"WMath.cpp"
  16              		.text
  17              	.Ltext0:
  18              		.cfi_sections	.debug_frame
  19              		.section	.text._Z10randomSeedm,"ax",%progbits
  20              		.align	1
  21              		.global	_Z10randomSeedm
  22              		.thumb
  23              		.thumb_func
  25              	_Z10randomSeedm:
  26              	.LFB0:
  27              		.file 1 "../../cores/mapleMX/WMath.cpp"
   1:../../cores/mapleMX/WMath.cpp **** /*
   2:../../cores/mapleMX/WMath.cpp ****   Copyright (c) 2011 Arduino.  All right reserved.
   3:../../cores/mapleMX/WMath.cpp **** 
   4:../../cores/mapleMX/WMath.cpp ****   This library is free software; you can redistribute it and/or
   5:../../cores/mapleMX/WMath.cpp ****   modify it under the terms of the GNU Lesser General Public
   6:../../cores/mapleMX/WMath.cpp ****   License as published by the Free Software Foundation; either
   7:../../cores/mapleMX/WMath.cpp ****   version 2.1 of the License, or (at your option) any later version.
   8:../../cores/mapleMX/WMath.cpp **** 
   9:../../cores/mapleMX/WMath.cpp ****   This library is distributed in the hope that it will be useful,
  10:../../cores/mapleMX/WMath.cpp ****   but WITHOUT ANY WARRANTY; without even the implied warranty of
  11:../../cores/mapleMX/WMath.cpp ****   MERCHANTABILITY or FITNESS FOR A PARTICULAR PURPOSE. 
  12:../../cores/mapleMX/WMath.cpp ****   See the GNU Lesser General Public License for more details.
  13:../../cores/mapleMX/WMath.cpp **** 
  14:../../cores/mapleMX/WMath.cpp ****   You should have received a copy of the GNU Lesser General Public
  15:../../cores/mapleMX/WMath.cpp ****   License along with this library; if not, write to the Free Software
  16:../../cores/mapleMX/WMath.cpp ****   Foundation, Inc., 51 Franklin St, Fifth Floor, Boston, MA  02110-1301  USA
  17:../../cores/mapleMX/WMath.cpp **** */
  18:../../cores/mapleMX/WMath.cpp **** 
  19:../../cores/mapleMX/WMath.cpp **** extern "C" {
  20:../../cores/mapleMX/WMath.cpp ****   #include "stdlib.h"
  21:../../cores/mapleMX/WMath.cpp ****   #include "stdint.h"
  22:../../cores/mapleMX/WMath.cpp **** }
  23:../../cores/mapleMX/WMath.cpp **** #include "WMath.h"
  24:../../cores/mapleMX/WMath.cpp **** 
  25:../../cores/mapleMX/WMath.cpp **** extern void randomSeed( uint32_t dwSeed )
  26:../../cores/mapleMX/WMath.cpp **** {
  28              		.loc 1 26 0
  29              		.cfi_startproc
  30              		@ args = 0, pretend = 0, frame = 0
  31              		@ frame_needed = 0, uses_anonymous_args = 0
  32              		@ link register save eliminated.
ARM GAS  /var/folders/19/rz7506jh8xn7x1006s6s574h0000gn/T//ccMxP5sa.s 			page 2


  33              	.LVL0:
  27:../../cores/mapleMX/WMath.cpp ****   if ( dwSeed != 0 )
  34              		.loc 1 27 0
  35 0000 08B1     		cbz	r0, .L1
  28:../../cores/mapleMX/WMath.cpp ****   {
  29:../../cores/mapleMX/WMath.cpp ****     srand( dwSeed ) ;
  36              		.loc 1 29 0
  37 0002 FFF7FEBF 		b	srand
  38              	.LVL1:
  39              	.L1:
  40 0006 7047     		bx	lr
  41              		.cfi_endproc
  42              	.LFE0:
  44              		.section	.text._Z6randoml,"ax",%progbits
  45              		.align	1
  46              		.global	_Z6randoml
  47              		.thumb
  48              		.thumb_func
  50              	_Z6randoml:
  51              	.LFB1:
  30:../../cores/mapleMX/WMath.cpp ****   }
  31:../../cores/mapleMX/WMath.cpp **** }
  32:../../cores/mapleMX/WMath.cpp **** 
  33:../../cores/mapleMX/WMath.cpp **** extern long random( long howbig )
  34:../../cores/mapleMX/WMath.cpp **** {
  52              		.loc 1 34 0
  53              		.cfi_startproc
  54              		@ args = 0, pretend = 0, frame = 0
  55              		@ frame_needed = 0, uses_anonymous_args = 0
  56              	.LVL2:
  57 0000 10B5     		push	{r4, lr}
  58              		.cfi_def_cfa_offset 8
  59              		.cfi_offset 4, -8
  60              		.cfi_offset 14, -4
  35:../../cores/mapleMX/WMath.cpp ****   if ( howbig == 0 )
  61              		.loc 1 35 0
  62 0002 0446     		mov	r4, r0
  63 0004 30B1     		cbz	r0, .L6
  36:../../cores/mapleMX/WMath.cpp ****   {
  37:../../cores/mapleMX/WMath.cpp ****     return 0 ;
  38:../../cores/mapleMX/WMath.cpp ****   }
  39:../../cores/mapleMX/WMath.cpp **** 
  40:../../cores/mapleMX/WMath.cpp ****   return rand() % howbig;
  64              		.loc 1 40 0
  65 0006 FFF7FEFF 		bl	rand
  66              	.LVL3:
  67 000a 90FBF4F3 		sdiv	r3, r0, r4
  68 000e 03FB1400 		mls	r0, r3, r4, r0
  69 0012 10BD     		pop	{r4, pc}
  70              	.LVL4:
  71              	.L6:
  41:../../cores/mapleMX/WMath.cpp **** }
  72              		.loc 1 41 0
  73 0014 10BD     		pop	{r4, pc}
  74              		.cfi_endproc
  75              	.LFE1:
  77              		.section	.text._Z6randomll,"ax",%progbits
ARM GAS  /var/folders/19/rz7506jh8xn7x1006s6s574h0000gn/T//ccMxP5sa.s 			page 3


  78              		.align	1
  79              		.global	_Z6randomll
  80              		.thumb
  81              		.thumb_func
  83              	_Z6randomll:
  84              	.LFB2:
  42:../../cores/mapleMX/WMath.cpp **** 
  43:../../cores/mapleMX/WMath.cpp **** extern long random( long howsmall, long howbig )
  44:../../cores/mapleMX/WMath.cpp **** {
  85              		.loc 1 44 0
  86              		.cfi_startproc
  87              		@ args = 0, pretend = 0, frame = 0
  88              		@ frame_needed = 0, uses_anonymous_args = 0
  89              	.LVL5:
  45:../../cores/mapleMX/WMath.cpp ****   if (howsmall >= howbig)
  90              		.loc 1 45 0
  91 0000 8842     		cmp	r0, r1
  44:../../cores/mapleMX/WMath.cpp ****   if (howsmall >= howbig)
  92              		.loc 1 44 0
  93 0002 10B5     		push	{r4, lr}
  94              		.cfi_def_cfa_offset 8
  95              		.cfi_offset 4, -8
  96              		.cfi_offset 14, -4
  44:../../cores/mapleMX/WMath.cpp ****   if (howsmall >= howbig)
  97              		.loc 1 44 0
  98 0004 0446     		mov	r4, r0
  99              		.loc 1 45 0
 100 0006 04DA     		bge	.L9
 101              	.LVL6:
  46:../../cores/mapleMX/WMath.cpp ****   {
  47:../../cores/mapleMX/WMath.cpp ****     return howsmall;
  48:../../cores/mapleMX/WMath.cpp ****   }
  49:../../cores/mapleMX/WMath.cpp **** 
  50:../../cores/mapleMX/WMath.cpp ****   long diff = howbig - howsmall;
  51:../../cores/mapleMX/WMath.cpp **** 
  52:../../cores/mapleMX/WMath.cpp ****   return random(diff) + howsmall;
 102              		.loc 1 52 0
 103 0008 081A     		subs	r0, r1, r0
 104              	.LVL7:
 105 000a FFF7FEFF 		bl	_Z6randoml
 106              	.LVL8:
 107 000e 2044     		add	r0, r0, r4
 108 0010 10BD     		pop	{r4, pc}
 109              	.LVL9:
 110              	.L9:
  53:../../cores/mapleMX/WMath.cpp **** }
 111              		.loc 1 53 0
 112 0012 10BD     		pop	{r4, pc}
 113              		.cfi_endproc
 114              	.LFE2:
 116              		.section	.text._Z3maplllll,"ax",%progbits
 117              		.align	1
 118              		.global	_Z3maplllll
 119              		.thumb
 120              		.thumb_func
 122              	_Z3maplllll:
 123              	.LFB3:
ARM GAS  /var/folders/19/rz7506jh8xn7x1006s6s574h0000gn/T//ccMxP5sa.s 			page 4


  54:../../cores/mapleMX/WMath.cpp **** 
  55:../../cores/mapleMX/WMath.cpp **** extern long map(long x, long in_min, long in_max, long out_min, long out_max)
  56:../../cores/mapleMX/WMath.cpp **** {
 124              		.loc 1 56 0
 125              		.cfi_startproc
 126              		@ args = 4, pretend = 0, frame = 0
 127              		@ frame_needed = 0, uses_anonymous_args = 0
 128              	.LVL10:
 129 0000 10B5     		push	{r4, lr}
 130              		.cfi_def_cfa_offset 8
 131              		.cfi_offset 4, -8
 132              		.cfi_offset 14, -4
  57:../../cores/mapleMX/WMath.cpp ****   return (x - in_min) * (out_max - out_min) / (in_max - in_min) + out_min;
 133              		.loc 1 57 0
 134 0002 029C     		ldr	r4, [sp, #8]
 135 0004 401A     		subs	r0, r0, r1
 136              	.LVL11:
 137 0006 E41A     		subs	r4, r4, r3
 138 0008 6043     		muls	r0, r4, r0
 139 000a 521A     		subs	r2, r2, r1
 140              	.LVL12:
 141 000c 90FBF2F0 		sdiv	r0, r0, r2
  58:../../cores/mapleMX/WMath.cpp **** }
 142              		.loc 1 58 0
 143 0010 1844     		add	r0, r0, r3
 144 0012 10BD     		pop	{r4, pc}
 145              		.cfi_endproc
 146              	.LFE3:
 148              		.section	.text._Z8makeWordt,"ax",%progbits
 149              		.align	1
 150              		.global	_Z8makeWordt
 151              		.thumb
 152              		.thumb_func
 154              	_Z8makeWordt:
 155              	.LFB4:
  59:../../cores/mapleMX/WMath.cpp **** 
  60:../../cores/mapleMX/WMath.cpp **** extern uint16_t makeWord( uint16_t w )
  61:../../cores/mapleMX/WMath.cpp **** {
 156              		.loc 1 61 0
 157              		.cfi_startproc
 158              		@ args = 0, pretend = 0, frame = 0
 159              		@ frame_needed = 0, uses_anonymous_args = 0
 160              		@ link register save eliminated.
 161              	.LVL13:
  62:../../cores/mapleMX/WMath.cpp ****   return w ;
  63:../../cores/mapleMX/WMath.cpp **** }
 162              		.loc 1 63 0
 163 0000 7047     		bx	lr
 164              		.cfi_endproc
 165              	.LFE4:
 167              		.section	.text._Z8makeWordhh,"ax",%progbits
 168              		.align	1
 169              		.global	_Z8makeWordhh
 170              		.thumb
 171              		.thumb_func
 173              	_Z8makeWordhh:
 174              	.LFB5:
ARM GAS  /var/folders/19/rz7506jh8xn7x1006s6s574h0000gn/T//ccMxP5sa.s 			page 5


  64:../../cores/mapleMX/WMath.cpp **** 
  65:../../cores/mapleMX/WMath.cpp **** extern uint16_t makeWord( uint8_t h, uint8_t l )
  66:../../cores/mapleMX/WMath.cpp **** {
 175              		.loc 1 66 0
 176              		.cfi_startproc
 177              		@ args = 0, pretend = 0, frame = 0
 178              		@ frame_needed = 0, uses_anonymous_args = 0
 179              		@ link register save eliminated.
 180              	.LVL14:
  67:../../cores/mapleMX/WMath.cpp ****   return (h << 8) | l ;
  68:../../cores/mapleMX/WMath.cpp **** }
 181              		.loc 1 68 0
 182 0000 41EA0020 		orr	r0, r1, r0, lsl #8
 183              	.LVL15:
 184 0004 7047     		bx	lr
 185              		.cfi_endproc
 186              	.LFE5:
 188              		.text
 189              	.Letext0:
 190              		.file 2 "/Applications/Ac6/SystemWorkbench.app/Contents/Eclipse/plugins/fr.ac6.mcu.externaltools.a
 191              		.file 3 "/Applications/Ac6/SystemWorkbench.app/Contents/Eclipse/plugins/fr.ac6.mcu.externaltools.a
 192              		.file 4 "/Applications/Ac6/SystemWorkbench.app/Contents/Eclipse/plugins/fr.ac6.mcu.externaltools.a
ARM GAS  /var/folders/19/rz7506jh8xn7x1006s6s574h0000gn/T//ccMxP5sa.s 			page 6

