ARM GAS  /var/folders/19/rz7506jh8xn7x1006s6s574h0000gn/T//ccPIz347.s 			page 1


   1              		.syntax unified
   2              		.cpu cortex-m4
   3              		.fpu softvfp
   4              		.eabi_attribute 20, 1
   5              		.eabi_attribute 21, 1
   6              		.eabi_attribute 23, 3
   7              		.eabi_attribute 24, 1
   8              		.eabi_attribute 25, 1
   9              		.eabi_attribute 26, 1
  10              		.eabi_attribute 30, 4
  11              		.eabi_attribute 34, 1
  12              		.eabi_attribute 18, 4
  13              		.thumb
  14              		.syntax unified
  15              		.file	"WString.cpp"
  16              		.text
  17              	.Ltext0:
  18              		.cfi_sections	.debug_frame
  19              		.section	.text._ZN6StringD2Ev,"ax",%progbits
  20              		.align	1
  21              		.global	_ZN6StringD2Ev
  22              		.thumb
  23              		.thumb_func
  25              	_ZN6StringD2Ev:
  26              	.LFB85:
  27              		.file 1 "../../cores/mapleMX/WString.cpp"
   1:../../cores/mapleMX/WString.cpp **** /*
   2:../../cores/mapleMX/WString.cpp ****   WString.cpp - String library for Wiring & Arduino
   3:../../cores/mapleMX/WString.cpp ****   ...mostly rewritten by Paul Stoffregen...
   4:../../cores/mapleMX/WString.cpp ****   Copyright (c) 2009-10 Hernando Barragan.  All rights reserved.
   5:../../cores/mapleMX/WString.cpp ****   Copyright 2011, Paul Stoffregen, paul@pjrc.com
   6:../../cores/mapleMX/WString.cpp **** 
   7:../../cores/mapleMX/WString.cpp ****   This library is free software; you can redistribute it and/or
   8:../../cores/mapleMX/WString.cpp ****   modify it under the terms of the GNU Lesser General Public
   9:../../cores/mapleMX/WString.cpp ****   License as published by the Free Software Foundation; either
  10:../../cores/mapleMX/WString.cpp ****   version 2.1 of the License, or (at your option) any later version.
  11:../../cores/mapleMX/WString.cpp **** 
  12:../../cores/mapleMX/WString.cpp ****   This library is distributed in the hope that it will be useful,
  13:../../cores/mapleMX/WString.cpp ****   but WITHOUT ANY WARRANTY; without even the implied warranty of
  14:../../cores/mapleMX/WString.cpp ****   MERCHANTABILITY or FITNESS FOR A PARTICULAR PURPOSE.  See the GNU
  15:../../cores/mapleMX/WString.cpp ****   Lesser General Public License for more details.
  16:../../cores/mapleMX/WString.cpp **** 
  17:../../cores/mapleMX/WString.cpp ****   You should have received a copy of the GNU Lesser General Public
  18:../../cores/mapleMX/WString.cpp ****   License along with this library; if not, write to the Free Software
  19:../../cores/mapleMX/WString.cpp ****   Foundation, Inc., 51 Franklin St, Fifth Floor, Boston, MA  02110-1301  USA
  20:../../cores/mapleMX/WString.cpp **** */
  21:../../cores/mapleMX/WString.cpp **** 
  22:../../cores/mapleMX/WString.cpp **** #include "WString.h"
  23:../../cores/mapleMX/WString.cpp **** #include "itoa.h"
  24:../../cores/mapleMX/WString.cpp **** #include "avr/dtostrf.h"
  25:../../cores/mapleMX/WString.cpp **** 
  26:../../cores/mapleMX/WString.cpp **** /*********************************************/
  27:../../cores/mapleMX/WString.cpp **** /*  Constructors                             */
  28:../../cores/mapleMX/WString.cpp **** /*********************************************/
  29:../../cores/mapleMX/WString.cpp **** 
  30:../../cores/mapleMX/WString.cpp **** String::String(const char *cstr)
  31:../../cores/mapleMX/WString.cpp **** {
ARM GAS  /var/folders/19/rz7506jh8xn7x1006s6s574h0000gn/T//ccPIz347.s 			page 2


  32:../../cores/mapleMX/WString.cpp **** 	init();
  33:../../cores/mapleMX/WString.cpp **** 	if (cstr) copy(cstr, strlen(cstr));
  34:../../cores/mapleMX/WString.cpp **** }
  35:../../cores/mapleMX/WString.cpp **** 
  36:../../cores/mapleMX/WString.cpp **** String::String(const String &value)
  37:../../cores/mapleMX/WString.cpp **** {
  38:../../cores/mapleMX/WString.cpp **** 	init();
  39:../../cores/mapleMX/WString.cpp **** 	*this = value;
  40:../../cores/mapleMX/WString.cpp **** }
  41:../../cores/mapleMX/WString.cpp **** 
  42:../../cores/mapleMX/WString.cpp **** String::String(const __FlashStringHelper *pstr)
  43:../../cores/mapleMX/WString.cpp **** {
  44:../../cores/mapleMX/WString.cpp **** 	init();
  45:../../cores/mapleMX/WString.cpp **** 	*this = pstr;
  46:../../cores/mapleMX/WString.cpp **** }
  47:../../cores/mapleMX/WString.cpp **** 
  48:../../cores/mapleMX/WString.cpp **** #ifdef __GXX_EXPERIMENTAL_CXX0X__
  49:../../cores/mapleMX/WString.cpp **** String::String(String &&rval)
  50:../../cores/mapleMX/WString.cpp **** {
  51:../../cores/mapleMX/WString.cpp **** 	init();
  52:../../cores/mapleMX/WString.cpp **** 	move(rval);
  53:../../cores/mapleMX/WString.cpp **** }
  54:../../cores/mapleMX/WString.cpp **** String::String(StringSumHelper &&rval)
  55:../../cores/mapleMX/WString.cpp **** {
  56:../../cores/mapleMX/WString.cpp **** 	init();
  57:../../cores/mapleMX/WString.cpp **** 	move(rval);
  58:../../cores/mapleMX/WString.cpp **** }
  59:../../cores/mapleMX/WString.cpp **** #endif
  60:../../cores/mapleMX/WString.cpp **** 
  61:../../cores/mapleMX/WString.cpp **** String::String(char c)
  62:../../cores/mapleMX/WString.cpp **** {
  63:../../cores/mapleMX/WString.cpp **** 	init();
  64:../../cores/mapleMX/WString.cpp **** 	char buf[2];
  65:../../cores/mapleMX/WString.cpp **** 	buf[0] = c;
  66:../../cores/mapleMX/WString.cpp **** 	buf[1] = 0;
  67:../../cores/mapleMX/WString.cpp **** 	*this = buf;
  68:../../cores/mapleMX/WString.cpp **** }
  69:../../cores/mapleMX/WString.cpp **** 
  70:../../cores/mapleMX/WString.cpp **** String::String(unsigned char value, unsigned char base)
  71:../../cores/mapleMX/WString.cpp **** {
  72:../../cores/mapleMX/WString.cpp **** 	init();
  73:../../cores/mapleMX/WString.cpp **** 	char buf[1 + 8 * sizeof(unsigned char)];
  74:../../cores/mapleMX/WString.cpp **** 	utoa(value, buf, base);
  75:../../cores/mapleMX/WString.cpp **** 	*this = buf;
  76:../../cores/mapleMX/WString.cpp **** }
  77:../../cores/mapleMX/WString.cpp **** 
  78:../../cores/mapleMX/WString.cpp **** String::String(int value, unsigned char base)
  79:../../cores/mapleMX/WString.cpp **** {
  80:../../cores/mapleMX/WString.cpp **** 	init();
  81:../../cores/mapleMX/WString.cpp **** 	char buf[2 + 8 * sizeof(int)];
  82:../../cores/mapleMX/WString.cpp **** 	itoa(value, buf, base);
  83:../../cores/mapleMX/WString.cpp **** 	*this = buf;
  84:../../cores/mapleMX/WString.cpp **** }
  85:../../cores/mapleMX/WString.cpp **** 
  86:../../cores/mapleMX/WString.cpp **** String::String(unsigned int value, unsigned char base)
  87:../../cores/mapleMX/WString.cpp **** {
  88:../../cores/mapleMX/WString.cpp **** 	init();
ARM GAS  /var/folders/19/rz7506jh8xn7x1006s6s574h0000gn/T//ccPIz347.s 			page 3


  89:../../cores/mapleMX/WString.cpp **** 	char buf[1 + 8 * sizeof(unsigned int)];
  90:../../cores/mapleMX/WString.cpp **** 	utoa(value, buf, base);
  91:../../cores/mapleMX/WString.cpp **** 	*this = buf;
  92:../../cores/mapleMX/WString.cpp **** }
  93:../../cores/mapleMX/WString.cpp **** 
  94:../../cores/mapleMX/WString.cpp **** String::String(long value, unsigned char base)
  95:../../cores/mapleMX/WString.cpp **** {
  96:../../cores/mapleMX/WString.cpp **** 	init();
  97:../../cores/mapleMX/WString.cpp **** 	char buf[2 + 8 * sizeof(long)];
  98:../../cores/mapleMX/WString.cpp **** 	ltoa(value, buf, base);
  99:../../cores/mapleMX/WString.cpp **** 	*this = buf;
 100:../../cores/mapleMX/WString.cpp **** }
 101:../../cores/mapleMX/WString.cpp **** 
 102:../../cores/mapleMX/WString.cpp **** String::String(unsigned long value, unsigned char base)
 103:../../cores/mapleMX/WString.cpp **** {
 104:../../cores/mapleMX/WString.cpp **** 	init();
 105:../../cores/mapleMX/WString.cpp **** 	char buf[1 + 8 * sizeof(unsigned long)];
 106:../../cores/mapleMX/WString.cpp **** 	ultoa(value, buf, base);
 107:../../cores/mapleMX/WString.cpp **** 	*this = buf;
 108:../../cores/mapleMX/WString.cpp **** }
 109:../../cores/mapleMX/WString.cpp **** 
 110:../../cores/mapleMX/WString.cpp **** String::String(float value, unsigned char decimalPlaces)
 111:../../cores/mapleMX/WString.cpp **** {
 112:../../cores/mapleMX/WString.cpp **** 	init();
 113:../../cores/mapleMX/WString.cpp **** 	char buf[33];
 114:../../cores/mapleMX/WString.cpp **** 	*this = dtostrf(value, (decimalPlaces + 2), decimalPlaces, buf);
 115:../../cores/mapleMX/WString.cpp **** }
 116:../../cores/mapleMX/WString.cpp **** 
 117:../../cores/mapleMX/WString.cpp **** String::String(double value, unsigned char decimalPlaces)
 118:../../cores/mapleMX/WString.cpp **** {
 119:../../cores/mapleMX/WString.cpp **** 	init();
 120:../../cores/mapleMX/WString.cpp **** 	char buf[33];
 121:../../cores/mapleMX/WString.cpp **** 	*this = dtostrf(value, (decimalPlaces + 2), decimalPlaces, buf);
 122:../../cores/mapleMX/WString.cpp **** }
 123:../../cores/mapleMX/WString.cpp **** 
 124:../../cores/mapleMX/WString.cpp **** String::~String()
  28              		.loc 1 124 0
  29              		.cfi_startproc
  30              		@ args = 0, pretend = 0, frame = 0
  31              		@ frame_needed = 0, uses_anonymous_args = 0
  32              	.LVL0:
  33 0000 10B5     		push	{r4, lr}
  34              		.cfi_def_cfa_offset 8
  35              		.cfi_offset 4, -8
  36              		.cfi_offset 14, -4
  37              		.loc 1 124 0
  38 0002 0446     		mov	r4, r0
  39              	.LBB35:
 125:../../cores/mapleMX/WString.cpp **** {
 126:../../cores/mapleMX/WString.cpp **** 	free(buffer);
  40              		.loc 1 126 0
  41 0004 0068     		ldr	r0, [r0]
  42              	.LVL1:
  43 0006 FFF7FEFF 		bl	free
  44              	.LVL2:
  45              	.LBE35:
 127:../../cores/mapleMX/WString.cpp **** }
ARM GAS  /var/folders/19/rz7506jh8xn7x1006s6s574h0000gn/T//ccPIz347.s 			page 4


  46              		.loc 1 127 0
  47 000a 2046     		mov	r0, r4
  48 000c 10BD     		pop	{r4, pc}
  49              		.cfi_endproc
  50              	.LFE85:
  52              		.global	_ZN6StringD1Ev
  53              		.thumb_set _ZN6StringD1Ev,_ZN6StringD2Ev
  54              		.section	.text._ZN6String10invalidateEv,"ax",%progbits
  55              		.align	1
  56              		.global	_ZN6String10invalidateEv
  57              		.thumb
  58              		.thumb_func
  60              	_ZN6String10invalidateEv:
  61              	.LFB88:
 128:../../cores/mapleMX/WString.cpp **** 
 129:../../cores/mapleMX/WString.cpp **** /*********************************************/
 130:../../cores/mapleMX/WString.cpp **** /*  Memory Management                        */
 131:../../cores/mapleMX/WString.cpp **** /*********************************************/
 132:../../cores/mapleMX/WString.cpp **** 
 133:../../cores/mapleMX/WString.cpp **** inline void String::init(void)
 134:../../cores/mapleMX/WString.cpp **** {
 135:../../cores/mapleMX/WString.cpp **** 	buffer = NULL;
 136:../../cores/mapleMX/WString.cpp **** 	capacity = 0;
 137:../../cores/mapleMX/WString.cpp **** 	len = 0;
 138:../../cores/mapleMX/WString.cpp **** }
 139:../../cores/mapleMX/WString.cpp **** 
 140:../../cores/mapleMX/WString.cpp **** void String::invalidate(void)
 141:../../cores/mapleMX/WString.cpp **** {
  62              		.loc 1 141 0
  63              		.cfi_startproc
  64              		@ args = 0, pretend = 0, frame = 0
  65              		@ frame_needed = 0, uses_anonymous_args = 0
  66              	.LVL3:
  67 0000 10B5     		push	{r4, lr}
  68              		.cfi_def_cfa_offset 8
  69              		.cfi_offset 4, -8
  70              		.cfi_offset 14, -4
  71              		.loc 1 141 0
  72 0002 0446     		mov	r4, r0
 142:../../cores/mapleMX/WString.cpp **** 	if (buffer) free(buffer);
  73              		.loc 1 142 0
  74 0004 0068     		ldr	r0, [r0]
  75              	.LVL4:
  76 0006 08B1     		cbz	r0, .L3
  77              		.loc 1 142 0 is_stmt 0 discriminator 1
  78 0008 FFF7FEFF 		bl	free
  79              	.LVL5:
  80              	.L3:
 143:../../cores/mapleMX/WString.cpp **** 	buffer = NULL;
  81              		.loc 1 143 0 is_stmt 1
  82 000c 0023     		movs	r3, #0
  83 000e 2360     		str	r3, [r4]
 144:../../cores/mapleMX/WString.cpp **** 	capacity = len = 0;
  84              		.loc 1 144 0
  85 0010 A360     		str	r3, [r4, #8]
  86 0012 6360     		str	r3, [r4, #4]
  87 0014 10BD     		pop	{r4, pc}
ARM GAS  /var/folders/19/rz7506jh8xn7x1006s6s574h0000gn/T//ccPIz347.s 			page 5


  88              		.cfi_endproc
  89              	.LFE88:
  91              		.section	.text._ZN6String12changeBufferEj,"ax",%progbits
  92              		.align	1
  93              		.global	_ZN6String12changeBufferEj
  94              		.thumb
  95              		.thumb_func
  97              	_ZN6String12changeBufferEj:
  98              	.LFB90:
 145:../../cores/mapleMX/WString.cpp **** }
 146:../../cores/mapleMX/WString.cpp **** 
 147:../../cores/mapleMX/WString.cpp **** unsigned char String::reserve(unsigned int size)
 148:../../cores/mapleMX/WString.cpp **** {
 149:../../cores/mapleMX/WString.cpp **** 	if (buffer && capacity >= size) return 1;
 150:../../cores/mapleMX/WString.cpp **** 	if (changeBuffer(size)) {
 151:../../cores/mapleMX/WString.cpp **** 		if (len == 0) buffer[0] = 0;
 152:../../cores/mapleMX/WString.cpp **** 		return 1;
 153:../../cores/mapleMX/WString.cpp **** 	}
 154:../../cores/mapleMX/WString.cpp **** 	return 0;
 155:../../cores/mapleMX/WString.cpp **** }
 156:../../cores/mapleMX/WString.cpp **** 
 157:../../cores/mapleMX/WString.cpp **** unsigned char String::changeBuffer(unsigned int maxStrLen)
 158:../../cores/mapleMX/WString.cpp **** {
  99              		.loc 1 158 0
 100              		.cfi_startproc
 101              		@ args = 0, pretend = 0, frame = 0
 102              		@ frame_needed = 0, uses_anonymous_args = 0
 103              	.LVL6:
 104 0000 38B5     		push	{r3, r4, r5, lr}
 105              		.cfi_def_cfa_offset 16
 106              		.cfi_offset 3, -16
 107              		.cfi_offset 4, -12
 108              		.cfi_offset 5, -8
 109              		.cfi_offset 14, -4
 110              		.loc 1 158 0
 111 0002 0446     		mov	r4, r0
 112 0004 0D46     		mov	r5, r1
 159:../../cores/mapleMX/WString.cpp **** 	char *newbuffer = (char *)realloc(buffer, maxStrLen + 1);
 113              		.loc 1 159 0
 114 0006 0068     		ldr	r0, [r0]
 115              	.LVL7:
 116 0008 0131     		adds	r1, r1, #1
 117              	.LVL8:
 118 000a FFF7FEFF 		bl	realloc
 119              	.LVL9:
 160:../../cores/mapleMX/WString.cpp **** 	if (newbuffer) {
 120              		.loc 1 160 0
 121 000e 10B1     		cbz	r0, .L9
 161:../../cores/mapleMX/WString.cpp **** 		buffer = newbuffer;
 162:../../cores/mapleMX/WString.cpp **** 		capacity = maxStrLen;
 122              		.loc 1 162 0
 123 0010 84E82100 		stmia	r4, {r0, r5}
 163:../../cores/mapleMX/WString.cpp **** 		return 1;
 124              		.loc 1 163 0
 125 0014 0120     		movs	r0, #1
 126              	.LVL10:
 127              	.L9:
ARM GAS  /var/folders/19/rz7506jh8xn7x1006s6s574h0000gn/T//ccPIz347.s 			page 6


 164:../../cores/mapleMX/WString.cpp **** 	}
 165:../../cores/mapleMX/WString.cpp **** 	return 0;
 166:../../cores/mapleMX/WString.cpp **** }
 128              		.loc 1 166 0
 129 0016 38BD     		pop	{r3, r4, r5, pc}
 130              		.cfi_endproc
 131              	.LFE90:
 133              		.section	.text._ZN6String7reserveEj,"ax",%progbits
 134              		.align	1
 135              		.global	_ZN6String7reserveEj
 136              		.thumb
 137              		.thumb_func
 139              	_ZN6String7reserveEj:
 140              	.LFB89:
 148:../../cores/mapleMX/WString.cpp **** 	if (buffer && capacity >= size) return 1;
 141              		.loc 1 148 0
 142              		.cfi_startproc
 143              		@ args = 0, pretend = 0, frame = 0
 144              		@ frame_needed = 0, uses_anonymous_args = 0
 145              	.LVL11:
 149:../../cores/mapleMX/WString.cpp **** 	if (changeBuffer(size)) {
 146              		.loc 1 149 0
 147 0000 0368     		ldr	r3, [r0]
 148:../../cores/mapleMX/WString.cpp **** 	if (buffer && capacity >= size) return 1;
 148              		.loc 1 148 0
 149 0002 10B5     		push	{r4, lr}
 150              		.cfi_def_cfa_offset 8
 151              		.cfi_offset 4, -8
 152              		.cfi_offset 14, -4
 148:../../cores/mapleMX/WString.cpp **** 	if (buffer && capacity >= size) return 1;
 153              		.loc 1 148 0
 154 0004 0446     		mov	r4, r0
 149:../../cores/mapleMX/WString.cpp **** 	if (changeBuffer(size)) {
 155              		.loc 1 149 0
 156 0006 13B1     		cbz	r3, .L12
 149:../../cores/mapleMX/WString.cpp **** 	if (changeBuffer(size)) {
 157              		.loc 1 149 0 is_stmt 0 discriminator 1
 158 0008 4368     		ldr	r3, [r0, #4]
 159 000a 8B42     		cmp	r3, r1
 160 000c 07D2     		bcs	.L21
 161              	.L12:
 150:../../cores/mapleMX/WString.cpp **** 		if (len == 0) buffer[0] = 0;
 162              		.loc 1 150 0 is_stmt 1
 163 000e 2046     		mov	r0, r4
 164              	.LVL12:
 165 0010 FFF7FEFF 		bl	_ZN6String12changeBufferEj
 166              	.LVL13:
 167 0014 20B1     		cbz	r0, .L13
 168              	.LVL14:
 169              	.LBB38:
 170              	.LBB39:
 151:../../cores/mapleMX/WString.cpp **** 		return 1;
 171              		.loc 1 151 0
 172 0016 A368     		ldr	r3, [r4, #8]
 173 0018 0BB9     		cbnz	r3, .L21
 174 001a 2268     		ldr	r2, [r4]
 175 001c 1370     		strb	r3, [r2]
ARM GAS  /var/folders/19/rz7506jh8xn7x1006s6s574h0000gn/T//ccPIz347.s 			page 7


 176              	.LVL15:
 177              	.L21:
 178 001e 0120     		movs	r0, #1
 179              	.L13:
 180              	.LBE39:
 181              	.LBE38:
 155:../../cores/mapleMX/WString.cpp **** 
 182              		.loc 1 155 0
 183 0020 10BD     		pop	{r4, pc}
 184              		.cfi_endproc
 185              	.LFE89:
 187              		.section	.text._ZN6String4copyEPK19__FlashStringHelperj,"ax",%progbits
 188              		.align	1
 189              		.global	_ZN6String4copyEPK19__FlashStringHelperj
 190              		.thumb
 191              		.thumb_func
 193              	_ZN6String4copyEPK19__FlashStringHelperj:
 194              	.LFB92:
 167:../../cores/mapleMX/WString.cpp **** 
 168:../../cores/mapleMX/WString.cpp **** /*********************************************/
 169:../../cores/mapleMX/WString.cpp **** /*  Copy and Move                            */
 170:../../cores/mapleMX/WString.cpp **** /*********************************************/
 171:../../cores/mapleMX/WString.cpp **** 
 172:../../cores/mapleMX/WString.cpp **** String & String::copy(const char *cstr, unsigned int length)
 173:../../cores/mapleMX/WString.cpp **** {
 174:../../cores/mapleMX/WString.cpp **** 	if (!reserve(length)) {
 175:../../cores/mapleMX/WString.cpp **** 		invalidate();
 176:../../cores/mapleMX/WString.cpp **** 		return *this;
 177:../../cores/mapleMX/WString.cpp **** 	}
 178:../../cores/mapleMX/WString.cpp **** 	len = length;
 179:../../cores/mapleMX/WString.cpp **** 	strcpy(buffer, cstr);
 180:../../cores/mapleMX/WString.cpp **** 	return *this;
 181:../../cores/mapleMX/WString.cpp **** }
 182:../../cores/mapleMX/WString.cpp **** 
 183:../../cores/mapleMX/WString.cpp **** String & String::copy(const __FlashStringHelper *pstr, unsigned int length)
 184:../../cores/mapleMX/WString.cpp **** {
 195              		.loc 1 184 0
 196              		.cfi_startproc
 197              		@ args = 0, pretend = 0, frame = 0
 198              		@ frame_needed = 0, uses_anonymous_args = 0
 199              	.LVL16:
 200 0000 70B5     		push	{r4, r5, r6, lr}
 201              		.cfi_def_cfa_offset 16
 202              		.cfi_offset 4, -16
 203              		.cfi_offset 5, -12
 204              		.cfi_offset 6, -8
 205              		.cfi_offset 14, -4
 206              		.loc 1 184 0
 207 0002 0E46     		mov	r6, r1
 185:../../cores/mapleMX/WString.cpp **** 	if (!reserve(length)) {
 208              		.loc 1 185 0
 209 0004 1146     		mov	r1, r2
 210              	.LVL17:
 184:../../cores/mapleMX/WString.cpp **** 	if (!reserve(length)) {
 211              		.loc 1 184 0
 212 0006 0446     		mov	r4, r0
 213 0008 1546     		mov	r5, r2
ARM GAS  /var/folders/19/rz7506jh8xn7x1006s6s574h0000gn/T//ccPIz347.s 			page 8


 214              		.loc 1 185 0
 215 000a FFF7FEFF 		bl	_ZN6String7reserveEj
 216              	.LVL18:
 217 000e 18B9     		cbnz	r0, .L23
 186:../../cores/mapleMX/WString.cpp **** 		invalidate();
 218              		.loc 1 186 0
 219 0010 2046     		mov	r0, r4
 220 0012 FFF7FEFF 		bl	_ZN6String10invalidateEv
 221              	.LVL19:
 187:../../cores/mapleMX/WString.cpp **** 		return *this;
 222              		.loc 1 187 0
 223 0016 04E0     		b	.L24
 224              	.L23:
 188:../../cores/mapleMX/WString.cpp **** 	}
 189:../../cores/mapleMX/WString.cpp **** 	len = length;
 225              		.loc 1 189 0
 226 0018 A560     		str	r5, [r4, #8]
 190:../../cores/mapleMX/WString.cpp **** 	strcpy_P(buffer, (PGM_P)pstr);
 227              		.loc 1 190 0
 228 001a 3146     		mov	r1, r6
 229 001c 2068     		ldr	r0, [r4]
 230 001e FFF7FEFF 		bl	strcpy
 231              	.LVL20:
 232              	.L24:
 191:../../cores/mapleMX/WString.cpp **** 	return *this;
 192:../../cores/mapleMX/WString.cpp **** }
 233              		.loc 1 192 0
 234 0022 2046     		mov	r0, r4
 235 0024 70BD     		pop	{r4, r5, r6, pc}
 236              		.cfi_endproc
 237              	.LFE92:
 239              		.section	.text._ZN6StringC2EPKc,"ax",%progbits
 240              		.align	1
 241              		.global	_ZN6StringC2EPKc
 242              		.thumb
 243              		.thumb_func
 245              	_ZN6StringC2EPKc:
 246              	.LFB52:
  30:../../cores/mapleMX/WString.cpp **** {
 247              		.loc 1 30 0
 248              		.cfi_startproc
 249              		@ args = 0, pretend = 0, frame = 0
 250              		@ frame_needed = 0, uses_anonymous_args = 0
 251              	.LVL21:
 252 0000 38B5     		push	{r3, r4, r5, lr}
 253              		.cfi_def_cfa_offset 16
 254              		.cfi_offset 3, -16
 255              		.cfi_offset 4, -12
 256              		.cfi_offset 5, -8
 257              		.cfi_offset 14, -4
 258              	.LBB40:
 259              	.LBB41:
 260              	.LBB42:
 135:../../cores/mapleMX/WString.cpp **** 	capacity = 0;
 261              		.loc 1 135 0
 262 0002 0023     		movs	r3, #0
 263              	.LBE42:
ARM GAS  /var/folders/19/rz7506jh8xn7x1006s6s574h0000gn/T//ccPIz347.s 			page 9


 264              	.LBE41:
 265              	.LBE40:
  30:../../cores/mapleMX/WString.cpp **** {
 266              		.loc 1 30 0
 267 0004 0446     		mov	r4, r0
 268              	.LBB45:
 269              	.LBB44:
 270              	.LBB43:
 135:../../cores/mapleMX/WString.cpp **** 	capacity = 0;
 271              		.loc 1 135 0
 272 0006 0360     		str	r3, [r0]
 136:../../cores/mapleMX/WString.cpp **** 	len = 0;
 273              		.loc 1 136 0
 274 0008 4360     		str	r3, [r0, #4]
 137:../../cores/mapleMX/WString.cpp **** }
 275              		.loc 1 137 0
 276 000a 8360     		str	r3, [r0, #8]
 277              	.LVL22:
 278              	.LBE43:
 279              	.LBE44:
  33:../../cores/mapleMX/WString.cpp **** }
 280              		.loc 1 33 0
 281 000c 0D46     		mov	r5, r1
 282 000e 39B1     		cbz	r1, .L26
  33:../../cores/mapleMX/WString.cpp **** }
 283              		.loc 1 33 0 is_stmt 0 discriminator 1
 284 0010 0846     		mov	r0, r1
 285              	.LVL23:
 286 0012 FFF7FEFF 		bl	strlen
 287              	.LVL24:
 288 0016 2946     		mov	r1, r5
 289 0018 0246     		mov	r2, r0
 290 001a 2046     		mov	r0, r4
 291 001c FFF7FEFF 		bl	_ZN6String4copyEPK19__FlashStringHelperj
 292              	.LVL25:
 293              	.L26:
 294              	.LBE45:
  34:../../cores/mapleMX/WString.cpp **** 
 295              		.loc 1 34 0 is_stmt 1
 296 0020 2046     		mov	r0, r4
 297 0022 38BD     		pop	{r3, r4, r5, pc}
 298              		.cfi_endproc
 299              	.LFE52:
 301              		.global	_ZN6StringC1EPKc
 302              		.thumb_set _ZN6StringC1EPKc,_ZN6StringC2EPKc
 303              		.section	.text._ZN6String4copyEPKcj,"ax",%progbits
 304              		.align	1
 305              		.global	_ZN6String4copyEPKcj
 306              		.thumb
 307              		.thumb_func
 309              	_ZN6String4copyEPKcj:
 310              	.LFB136:
 311              		.cfi_startproc
 312              		@ args = 0, pretend = 0, frame = 0
 313              		@ frame_needed = 0, uses_anonymous_args = 0
 314              		@ link register save eliminated.
 315 0000 FFF7FEBF 		b	_ZN6String4copyEPK19__FlashStringHelperj
ARM GAS  /var/folders/19/rz7506jh8xn7x1006s6s574h0000gn/T//ccPIz347.s 			page 10


 316              		.cfi_endproc
 317              	.LFE136:
 319              		.section	.text._ZN6StringaSERKS_,"ax",%progbits
 320              		.align	1
 321              		.global	_ZN6StringaSERKS_
 322              		.thumb
 323              		.thumb_func
 325              	_ZN6StringaSERKS_:
 326              	.LFB93:
 193:../../cores/mapleMX/WString.cpp **** 
 194:../../cores/mapleMX/WString.cpp **** #ifdef __GXX_EXPERIMENTAL_CXX0X__
 195:../../cores/mapleMX/WString.cpp **** void String::move(String &rhs)
 196:../../cores/mapleMX/WString.cpp **** {
 197:../../cores/mapleMX/WString.cpp **** 	if (buffer) {
 198:../../cores/mapleMX/WString.cpp **** 		if (capacity >= rhs.len) {
 199:../../cores/mapleMX/WString.cpp **** 			strcpy(buffer, rhs.buffer);
 200:../../cores/mapleMX/WString.cpp **** 			len = rhs.len;
 201:../../cores/mapleMX/WString.cpp **** 			rhs.len = 0;
 202:../../cores/mapleMX/WString.cpp **** 			return;
 203:../../cores/mapleMX/WString.cpp **** 		} else {
 204:../../cores/mapleMX/WString.cpp **** 			free(buffer);
 205:../../cores/mapleMX/WString.cpp **** 		}
 206:../../cores/mapleMX/WString.cpp **** 	}
 207:../../cores/mapleMX/WString.cpp **** 	buffer = rhs.buffer;
 208:../../cores/mapleMX/WString.cpp **** 	capacity = rhs.capacity;
 209:../../cores/mapleMX/WString.cpp **** 	len = rhs.len;
 210:../../cores/mapleMX/WString.cpp **** 	rhs.buffer = NULL;
 211:../../cores/mapleMX/WString.cpp **** 	rhs.capacity = 0;
 212:../../cores/mapleMX/WString.cpp **** 	rhs.len = 0;
 213:../../cores/mapleMX/WString.cpp **** }
 214:../../cores/mapleMX/WString.cpp **** #endif
 215:../../cores/mapleMX/WString.cpp **** 
 216:../../cores/mapleMX/WString.cpp **** String & String::operator = (const String &rhs)
 217:../../cores/mapleMX/WString.cpp **** {
 327              		.loc 1 217 0
 328              		.cfi_startproc
 329              		@ args = 0, pretend = 0, frame = 0
 330              		@ frame_needed = 0, uses_anonymous_args = 0
 331              	.LVL26:
 218:../../cores/mapleMX/WString.cpp **** 	if (this == &rhs) return *this;
 332              		.loc 1 218 0
 333 0000 8842     		cmp	r0, r1
 217:../../cores/mapleMX/WString.cpp **** 	if (this == &rhs) return *this;
 334              		.loc 1 217 0
 335 0002 10B5     		push	{r4, lr}
 336              		.cfi_def_cfa_offset 8
 337              		.cfi_offset 4, -8
 338              		.cfi_offset 14, -4
 217:../../cores/mapleMX/WString.cpp **** 	if (this == &rhs) return *this;
 339              		.loc 1 217 0
 340 0004 0B46     		mov	r3, r1
 341 0006 0446     		mov	r4, r0
 342              		.loc 1 218 0
 343 0008 07D0     		beq	.L32
 219:../../cores/mapleMX/WString.cpp **** 	
 220:../../cores/mapleMX/WString.cpp **** 	if (rhs.buffer) copy(rhs.buffer, rhs.len);
 344              		.loc 1 220 0
ARM GAS  /var/folders/19/rz7506jh8xn7x1006s6s574h0000gn/T//ccPIz347.s 			page 11


 345 000a 0968     		ldr	r1, [r1]
 346              	.LVL27:
 347 000c 19B1     		cbz	r1, .L33
 348              		.loc 1 220 0 is_stmt 0 discriminator 1
 349 000e 9A68     		ldr	r2, [r3, #8]
 350 0010 FFF7FEFF 		bl	_ZN6String4copyEPK19__FlashStringHelperj
 351              	.LVL28:
 352 0014 01E0     		b	.L32
 353              	.LVL29:
 354              	.L33:
 221:../../cores/mapleMX/WString.cpp **** 	else invalidate();
 355              		.loc 1 221 0 is_stmt 1
 356 0016 FFF7FEFF 		bl	_ZN6String10invalidateEv
 357              	.LVL30:
 358              	.L32:
 222:../../cores/mapleMX/WString.cpp **** 	
 223:../../cores/mapleMX/WString.cpp **** 	return *this;
 224:../../cores/mapleMX/WString.cpp **** }
 359              		.loc 1 224 0
 360 001a 2046     		mov	r0, r4
 361 001c 10BD     		pop	{r4, pc}
 362              		.cfi_endproc
 363              	.LFE93:
 365              		.section	.text._ZN6StringC2ERKS_,"ax",%progbits
 366              		.align	1
 367              		.global	_ZN6StringC2ERKS_
 368              		.thumb
 369              		.thumb_func
 371              	_ZN6StringC2ERKS_:
 372              	.LFB55:
  36:../../cores/mapleMX/WString.cpp **** {
 373              		.loc 1 36 0
 374              		.cfi_startproc
 375              		@ args = 0, pretend = 0, frame = 0
 376              		@ frame_needed = 0, uses_anonymous_args = 0
 377              	.LVL31:
 378 0000 10B5     		push	{r4, lr}
 379              		.cfi_def_cfa_offset 8
 380              		.cfi_offset 4, -8
 381              		.cfi_offset 14, -4
 382              	.LBB46:
 383              	.LBB47:
 384              	.LBB48:
 135:../../cores/mapleMX/WString.cpp **** 	capacity = 0;
 385              		.loc 1 135 0
 386 0002 0023     		movs	r3, #0
 387              	.LBE48:
 388              	.LBE47:
 389              	.LBE46:
  36:../../cores/mapleMX/WString.cpp **** {
 390              		.loc 1 36 0
 391 0004 0446     		mov	r4, r0
 392              	.LBB51:
 393              	.LBB50:
 394              	.LBB49:
 135:../../cores/mapleMX/WString.cpp **** 	capacity = 0;
 395              		.loc 1 135 0
ARM GAS  /var/folders/19/rz7506jh8xn7x1006s6s574h0000gn/T//ccPIz347.s 			page 12


 396 0006 0360     		str	r3, [r0]
 136:../../cores/mapleMX/WString.cpp **** 	len = 0;
 397              		.loc 1 136 0
 398 0008 4360     		str	r3, [r0, #4]
 137:../../cores/mapleMX/WString.cpp **** }
 399              		.loc 1 137 0
 400 000a 8360     		str	r3, [r0, #8]
 401              	.LVL32:
 402              	.LBE49:
 403              	.LBE50:
  39:../../cores/mapleMX/WString.cpp **** }
 404              		.loc 1 39 0
 405 000c FFF7FEFF 		bl	_ZN6StringaSERKS_
 406              	.LVL33:
 407              	.LBE51:
  40:../../cores/mapleMX/WString.cpp **** 
 408              		.loc 1 40 0
 409 0010 2046     		mov	r0, r4
 410 0012 10BD     		pop	{r4, pc}
 411              		.cfi_endproc
 412              	.LFE55:
 414              		.global	_ZN6StringC1ERKS_
 415              		.thumb_set _ZN6StringC1ERKS_,_ZN6StringC2ERKS_
 416              		.section	.text._ZN6StringaSEPK19__FlashStringHelper,"ax",%progbits
 417              		.align	1
 418              		.global	_ZN6StringaSEPK19__FlashStringHelper
 419              		.thumb
 420              		.thumb_func
 422              	_ZN6StringaSEPK19__FlashStringHelper:
 423              	.LFB95:
 225:../../cores/mapleMX/WString.cpp **** 
 226:../../cores/mapleMX/WString.cpp **** #ifdef __GXX_EXPERIMENTAL_CXX0X__
 227:../../cores/mapleMX/WString.cpp **** String & String::operator = (String &&rval)
 228:../../cores/mapleMX/WString.cpp **** {
 229:../../cores/mapleMX/WString.cpp **** 	if (this != &rval) move(rval);
 230:../../cores/mapleMX/WString.cpp **** 	return *this;
 231:../../cores/mapleMX/WString.cpp **** }
 232:../../cores/mapleMX/WString.cpp **** 
 233:../../cores/mapleMX/WString.cpp **** String & String::operator = (StringSumHelper &&rval)
 234:../../cores/mapleMX/WString.cpp **** {
 235:../../cores/mapleMX/WString.cpp **** 	if (this != &rval) move(rval);
 236:../../cores/mapleMX/WString.cpp **** 	return *this;
 237:../../cores/mapleMX/WString.cpp **** }
 238:../../cores/mapleMX/WString.cpp **** #endif
 239:../../cores/mapleMX/WString.cpp **** 
 240:../../cores/mapleMX/WString.cpp **** String & String::operator = (const char *cstr)
 241:../../cores/mapleMX/WString.cpp **** {
 242:../../cores/mapleMX/WString.cpp **** 	if (cstr) copy(cstr, strlen(cstr));
 243:../../cores/mapleMX/WString.cpp **** 	else invalidate();
 244:../../cores/mapleMX/WString.cpp **** 	
 245:../../cores/mapleMX/WString.cpp **** 	return *this;
 246:../../cores/mapleMX/WString.cpp **** }
 247:../../cores/mapleMX/WString.cpp **** 
 248:../../cores/mapleMX/WString.cpp **** String & String::operator = (const __FlashStringHelper *pstr)
 249:../../cores/mapleMX/WString.cpp **** {
 424              		.loc 1 249 0
 425              		.cfi_startproc
ARM GAS  /var/folders/19/rz7506jh8xn7x1006s6s574h0000gn/T//ccPIz347.s 			page 13


 426              		@ args = 0, pretend = 0, frame = 0
 427              		@ frame_needed = 0, uses_anonymous_args = 0
 428              	.LVL34:
 429 0000 38B5     		push	{r3, r4, r5, lr}
 430              		.cfi_def_cfa_offset 16
 431              		.cfi_offset 3, -16
 432              		.cfi_offset 4, -12
 433              		.cfi_offset 5, -8
 434              		.cfi_offset 14, -4
 435              		.loc 1 249 0
 436 0002 0546     		mov	r5, r0
 250:../../cores/mapleMX/WString.cpp **** 	if (pstr) copy(pstr, strlen_P((PGM_P)pstr));
 437              		.loc 1 250 0
 438 0004 0C46     		mov	r4, r1
 439 0006 41B1     		cbz	r1, .L36
 440              		.loc 1 250 0 is_stmt 0 discriminator 1
 441 0008 0846     		mov	r0, r1
 442              	.LVL35:
 443 000a FFF7FEFF 		bl	strlen
 444              	.LVL36:
 445 000e 2146     		mov	r1, r4
 446 0010 0246     		mov	r2, r0
 447 0012 2846     		mov	r0, r5
 448 0014 FFF7FEFF 		bl	_ZN6String4copyEPK19__FlashStringHelperj
 449              	.LVL37:
 450 0018 01E0     		b	.L37
 451              	.LVL38:
 452              	.L36:
 251:../../cores/mapleMX/WString.cpp **** 	else invalidate();
 453              		.loc 1 251 0 is_stmt 1
 454 001a FFF7FEFF 		bl	_ZN6String10invalidateEv
 455              	.LVL39:
 456              	.L37:
 252:../../cores/mapleMX/WString.cpp **** 
 253:../../cores/mapleMX/WString.cpp **** 	return *this;
 254:../../cores/mapleMX/WString.cpp **** }
 457              		.loc 1 254 0
 458 001e 2846     		mov	r0, r5
 459 0020 38BD     		pop	{r3, r4, r5, pc}
 460              		.cfi_endproc
 461              	.LFE95:
 463              		.section	.text._ZN6StringC2EPK19__FlashStringHelper,"ax",%progbits
 464              		.align	1
 465              		.global	_ZN6StringC2EPK19__FlashStringHelper
 466              		.thumb
 467              		.thumb_func
 469              	_ZN6StringC2EPK19__FlashStringHelper:
 470              	.LFB58:
  42:../../cores/mapleMX/WString.cpp **** {
 471              		.loc 1 42 0
 472              		.cfi_startproc
 473              		@ args = 0, pretend = 0, frame = 0
 474              		@ frame_needed = 0, uses_anonymous_args = 0
 475              	.LVL40:
 476 0000 10B5     		push	{r4, lr}
 477              		.cfi_def_cfa_offset 8
 478              		.cfi_offset 4, -8
ARM GAS  /var/folders/19/rz7506jh8xn7x1006s6s574h0000gn/T//ccPIz347.s 			page 14


 479              		.cfi_offset 14, -4
 480              	.LBB52:
 481              	.LBB53:
 482              	.LBB54:
 135:../../cores/mapleMX/WString.cpp **** 	capacity = 0;
 483              		.loc 1 135 0
 484 0002 0023     		movs	r3, #0
 485              	.LBE54:
 486              	.LBE53:
 487              	.LBE52:
  42:../../cores/mapleMX/WString.cpp **** {
 488              		.loc 1 42 0
 489 0004 0446     		mov	r4, r0
 490              	.LBB57:
 491              	.LBB56:
 492              	.LBB55:
 135:../../cores/mapleMX/WString.cpp **** 	capacity = 0;
 493              		.loc 1 135 0
 494 0006 0360     		str	r3, [r0]
 136:../../cores/mapleMX/WString.cpp **** 	len = 0;
 495              		.loc 1 136 0
 496 0008 4360     		str	r3, [r0, #4]
 137:../../cores/mapleMX/WString.cpp **** }
 497              		.loc 1 137 0
 498 000a 8360     		str	r3, [r0, #8]
 499              	.LVL41:
 500              	.LBE55:
 501              	.LBE56:
  45:../../cores/mapleMX/WString.cpp **** }
 502              		.loc 1 45 0
 503 000c FFF7FEFF 		bl	_ZN6StringaSEPK19__FlashStringHelper
 504              	.LVL42:
 505              	.LBE57:
  46:../../cores/mapleMX/WString.cpp **** 
 506              		.loc 1 46 0
 507 0010 2046     		mov	r0, r4
 508 0012 10BD     		pop	{r4, pc}
 509              		.cfi_endproc
 510              	.LFE58:
 512              		.global	_ZN6StringC1EPK19__FlashStringHelper
 513              		.thumb_set _ZN6StringC1EPK19__FlashStringHelper,_ZN6StringC2EPK19__FlashStringHelper
 514              		.section	.text._ZN6StringC2Edh,"ax",%progbits
 515              		.align	1
 516              		.global	_ZN6StringC2Edh
 517              		.thumb
 518              		.thumb_func
 520              	_ZN6StringC2Edh:
 521              	.LFB82:
 117:../../cores/mapleMX/WString.cpp **** {
 522              		.loc 1 117 0
 523              		.cfi_startproc
 524              		@ args = 4, pretend = 0, frame = 40
 525              		@ frame_needed = 0, uses_anonymous_args = 0
 526              	.LVL43:
 527 0000 30B5     		push	{r4, r5, lr}
 528              		.cfi_def_cfa_offset 12
 529              		.cfi_offset 4, -12
ARM GAS  /var/folders/19/rz7506jh8xn7x1006s6s574h0000gn/T//ccPIz347.s 			page 15


 530              		.cfi_offset 5, -8
 531              		.cfi_offset 14, -4
 532 0002 8DB0     		sub	sp, sp, #52
 533              		.cfi_def_cfa_offset 64
 117:../../cores/mapleMX/WString.cpp **** {
 534              		.loc 1 117 0
 535 0004 0446     		mov	r4, r0
 536              	.LVL44:
 537 0006 1946     		mov	r1, r3
 538 0008 9DF84030 		ldrb	r3, [sp, #64]	@ zero_extendqisi2
 539 000c 1046     		mov	r0, r2
 540              	.LVL45:
 541              	.LBB58:
 542              	.LBB59:
 543              	.LBB60:
 135:../../cores/mapleMX/WString.cpp **** 	capacity = 0;
 544              		.loc 1 135 0
 545 000e 0022     		movs	r2, #0
 546              	.LVL46:
 547 0010 2260     		str	r2, [r4]
 136:../../cores/mapleMX/WString.cpp **** 	len = 0;
 548              		.loc 1 136 0
 549 0012 6260     		str	r2, [r4, #4]
 137:../../cores/mapleMX/WString.cpp **** }
 550              		.loc 1 137 0
 551 0014 A260     		str	r2, [r4, #8]
 552              	.LVL47:
 553              	.LBE60:
 554              	.LBE59:
 121:../../cores/mapleMX/WString.cpp **** }
 555              		.loc 1 121 0
 556 0016 03AD     		add	r5, sp, #12
 557 0018 9A1C     		adds	r2, r3, #2
 558 001a 52B2     		sxtb	r2, r2
 559 001c 0095     		str	r5, [sp]
 560 001e FFF7FEFF 		bl	dtostrf
 561              	.LVL48:
 562 0022 0146     		mov	r1, r0
 563 0024 2046     		mov	r0, r4
 564 0026 FFF7FEFF 		bl	_ZN6StringaSEPK19__FlashStringHelper
 565              	.LVL49:
 566              	.LBE58:
 122:../../cores/mapleMX/WString.cpp **** 
 567              		.loc 1 122 0
 568 002a 2046     		mov	r0, r4
 569 002c 0DB0     		add	sp, sp, #52
 570              		.cfi_def_cfa_offset 12
 571              		@ sp needed
 572 002e 30BD     		pop	{r4, r5, pc}
 573              		.cfi_endproc
 574              	.LFE82:
 576              		.global	_ZN6StringC1Edh
 577              		.thumb_set _ZN6StringC1Edh,_ZN6StringC2Edh
 578              		.global	__aeabi_f2d
 579              		.section	.text._ZN6StringC2Efh,"ax",%progbits
 580              		.align	1
 581              		.global	_ZN6StringC2Efh
ARM GAS  /var/folders/19/rz7506jh8xn7x1006s6s574h0000gn/T//ccPIz347.s 			page 16


 582              		.thumb
 583              		.thumb_func
 585              	_ZN6StringC2Efh:
 586              	.LFB79:
 110:../../cores/mapleMX/WString.cpp **** {
 587              		.loc 1 110 0
 588              		.cfi_startproc
 589              		@ args = 0, pretend = 0, frame = 40
 590              		@ frame_needed = 0, uses_anonymous_args = 0
 591              	.LVL50:
 592 0000 70B5     		push	{r4, r5, r6, lr}
 593              		.cfi_def_cfa_offset 16
 594              		.cfi_offset 4, -16
 595              		.cfi_offset 5, -12
 596              		.cfi_offset 6, -8
 597              		.cfi_offset 14, -4
 598 0002 0446     		mov	r4, r0
 599              	.LVL51:
 600              	.LBB61:
 601              	.LBB62:
 602              	.LBB63:
 135:../../cores/mapleMX/WString.cpp **** 	capacity = 0;
 603              		.loc 1 135 0
 604 0004 0020     		movs	r0, #0
 605              	.LVL52:
 606              	.LBE63:
 607              	.LBE62:
 608              	.LBE61:
 110:../../cores/mapleMX/WString.cpp **** {
 609              		.loc 1 110 0
 610 0006 8CB0     		sub	sp, sp, #48
 611              		.cfi_def_cfa_offset 64
 612              	.LBB66:
 613              	.LBB65:
 614              	.LBB64:
 135:../../cores/mapleMX/WString.cpp **** 	capacity = 0;
 615              		.loc 1 135 0
 616 0008 2060     		str	r0, [r4]
 136:../../cores/mapleMX/WString.cpp **** 	len = 0;
 617              		.loc 1 136 0
 618 000a 6060     		str	r0, [r4, #4]
 137:../../cores/mapleMX/WString.cpp **** }
 619              		.loc 1 137 0
 620 000c A060     		str	r0, [r4, #8]
 621              	.LVL53:
 622              	.LBE64:
 623              	.LBE65:
 114:../../cores/mapleMX/WString.cpp **** }
 624              		.loc 1 114 0
 625 000e 951C     		adds	r5, r2, #2
 626 0010 0846     		mov	r0, r1
 627              	.LBE66:
 110:../../cores/mapleMX/WString.cpp **** {
 628              		.loc 1 110 0
 629 0012 1646     		mov	r6, r2
 630              	.LBB67:
 114:../../cores/mapleMX/WString.cpp **** }
ARM GAS  /var/folders/19/rz7506jh8xn7x1006s6s574h0000gn/T//ccPIz347.s 			page 17


 631              		.loc 1 114 0
 632 0014 6DB2     		sxtb	r5, r5
 633 0016 FFF7FEFF 		bl	__aeabi_f2d
 634              	.LVL54:
 635 001a 03AB     		add	r3, sp, #12
 636 001c 0093     		str	r3, [sp]
 637 001e 2A46     		mov	r2, r5
 638 0020 3346     		mov	r3, r6
 639 0022 FFF7FEFF 		bl	dtostrf
 640              	.LVL55:
 641 0026 0146     		mov	r1, r0
 642 0028 2046     		mov	r0, r4
 643 002a FFF7FEFF 		bl	_ZN6StringaSEPK19__FlashStringHelper
 644              	.LVL56:
 645              	.LBE67:
 115:../../cores/mapleMX/WString.cpp **** 
 646              		.loc 1 115 0
 647 002e 2046     		mov	r0, r4
 648 0030 0CB0     		add	sp, sp, #48
 649              		.cfi_def_cfa_offset 16
 650              		@ sp needed
 651 0032 70BD     		pop	{r4, r5, r6, pc}
 652              		.cfi_endproc
 653              	.LFE79:
 655              		.global	_ZN6StringC1Efh
 656              		.thumb_set _ZN6StringC1Efh,_ZN6StringC2Efh
 657              		.section	.text._ZN6StringC2Emh,"ax",%progbits
 658              		.align	1
 659              		.global	_ZN6StringC2Emh
 660              		.thumb
 661              		.thumb_func
 663              	_ZN6StringC2Emh:
 664              	.LFB76:
 102:../../cores/mapleMX/WString.cpp **** {
 665              		.loc 1 102 0
 666              		.cfi_startproc
 667              		@ args = 0, pretend = 0, frame = 40
 668              		@ frame_needed = 0, uses_anonymous_args = 0
 669              	.LVL57:
 670 0000 10B5     		push	{r4, lr}
 671              		.cfi_def_cfa_offset 8
 672              		.cfi_offset 4, -8
 673              		.cfi_offset 14, -4
 674 0002 0446     		mov	r4, r0
 675              	.LVL58:
 676              	.LBB68:
 677              	.LBB69:
 678              	.LBB70:
 135:../../cores/mapleMX/WString.cpp **** 	capacity = 0;
 679              		.loc 1 135 0
 680 0004 0023     		movs	r3, #0
 681              	.LBE70:
 682              	.LBE69:
 683              	.LBE68:
 102:../../cores/mapleMX/WString.cpp **** {
 684              		.loc 1 102 0
 685 0006 8AB0     		sub	sp, sp, #40
ARM GAS  /var/folders/19/rz7506jh8xn7x1006s6s574h0000gn/T//ccPIz347.s 			page 18


 686              		.cfi_def_cfa_offset 48
 687              	.LBB73:
 688              	.LBB72:
 689              	.LBB71:
 135:../../cores/mapleMX/WString.cpp **** 	capacity = 0;
 690              		.loc 1 135 0
 691 0008 2360     		str	r3, [r4]
 136:../../cores/mapleMX/WString.cpp **** 	len = 0;
 692              		.loc 1 136 0
 693 000a 6360     		str	r3, [r4, #4]
 137:../../cores/mapleMX/WString.cpp **** }
 694              		.loc 1 137 0
 695 000c A360     		str	r3, [r4, #8]
 696              	.LVL59:
 697              	.LBE71:
 698              	.LBE72:
 699              	.LBE73:
 102:../../cores/mapleMX/WString.cpp **** {
 700              		.loc 1 102 0
 701 000e 0846     		mov	r0, r1
 702              	.LVL60:
 703              	.LBB74:
 106:../../cores/mapleMX/WString.cpp **** 	*this = buf;
 704              		.loc 1 106 0
 705 0010 01A9     		add	r1, sp, #4
 706              	.LVL61:
 707 0012 FFF7FEFF 		bl	ultoa
 708              	.LVL62:
 107:../../cores/mapleMX/WString.cpp **** }
 709              		.loc 1 107 0
 710 0016 01A9     		add	r1, sp, #4
 711 0018 2046     		mov	r0, r4
 712 001a FFF7FEFF 		bl	_ZN6StringaSEPK19__FlashStringHelper
 713              	.LVL63:
 714              	.LBE74:
 108:../../cores/mapleMX/WString.cpp **** 
 715              		.loc 1 108 0
 716 001e 2046     		mov	r0, r4
 717 0020 0AB0     		add	sp, sp, #40
 718              		.cfi_def_cfa_offset 8
 719              		@ sp needed
 720 0022 10BD     		pop	{r4, pc}
 721              		.cfi_endproc
 722              	.LFE76:
 724              		.global	_ZN6StringC1Emh
 725              		.thumb_set _ZN6StringC1Emh,_ZN6StringC2Emh
 726              		.section	.text._ZN6StringC2Elh,"ax",%progbits
 727              		.align	1
 728              		.global	_ZN6StringC2Elh
 729              		.thumb
 730              		.thumb_func
 732              	_ZN6StringC2Elh:
 733              	.LFB73:
  94:../../cores/mapleMX/WString.cpp **** {
 734              		.loc 1 94 0
 735              		.cfi_startproc
 736              		@ args = 0, pretend = 0, frame = 40
ARM GAS  /var/folders/19/rz7506jh8xn7x1006s6s574h0000gn/T//ccPIz347.s 			page 19


 737              		@ frame_needed = 0, uses_anonymous_args = 0
 738              	.LVL64:
 739 0000 10B5     		push	{r4, lr}
 740              		.cfi_def_cfa_offset 8
 741              		.cfi_offset 4, -8
 742              		.cfi_offset 14, -4
 743 0002 0446     		mov	r4, r0
 744              	.LVL65:
 745              	.LBB75:
 746              	.LBB76:
 747              	.LBB77:
 135:../../cores/mapleMX/WString.cpp **** 	capacity = 0;
 748              		.loc 1 135 0
 749 0004 0023     		movs	r3, #0
 750              	.LBE77:
 751              	.LBE76:
 752              	.LBE75:
  94:../../cores/mapleMX/WString.cpp **** {
 753              		.loc 1 94 0
 754 0006 8AB0     		sub	sp, sp, #40
 755              		.cfi_def_cfa_offset 48
 756              	.LBB80:
 757              	.LBB79:
 758              	.LBB78:
 135:../../cores/mapleMX/WString.cpp **** 	capacity = 0;
 759              		.loc 1 135 0
 760 0008 2360     		str	r3, [r4]
 136:../../cores/mapleMX/WString.cpp **** 	len = 0;
 761              		.loc 1 136 0
 762 000a 6360     		str	r3, [r4, #4]
 137:../../cores/mapleMX/WString.cpp **** }
 763              		.loc 1 137 0
 764 000c A360     		str	r3, [r4, #8]
 765              	.LVL66:
 766              	.LBE78:
 767              	.LBE79:
 768              	.LBE80:
  94:../../cores/mapleMX/WString.cpp **** {
 769              		.loc 1 94 0
 770 000e 0846     		mov	r0, r1
 771              	.LVL67:
 772              	.LBB81:
  98:../../cores/mapleMX/WString.cpp **** 	*this = buf;
 773              		.loc 1 98 0
 774 0010 01A9     		add	r1, sp, #4
 775              	.LVL68:
 776 0012 FFF7FEFF 		bl	ltoa
 777              	.LVL69:
  99:../../cores/mapleMX/WString.cpp **** }
 778              		.loc 1 99 0
 779 0016 01A9     		add	r1, sp, #4
 780 0018 2046     		mov	r0, r4
 781 001a FFF7FEFF 		bl	_ZN6StringaSEPK19__FlashStringHelper
 782              	.LVL70:
 783              	.LBE81:
 100:../../cores/mapleMX/WString.cpp **** 
 784              		.loc 1 100 0
ARM GAS  /var/folders/19/rz7506jh8xn7x1006s6s574h0000gn/T//ccPIz347.s 			page 20


 785 001e 2046     		mov	r0, r4
 786 0020 0AB0     		add	sp, sp, #40
 787              		.cfi_def_cfa_offset 8
 788              		@ sp needed
 789 0022 10BD     		pop	{r4, pc}
 790              		.cfi_endproc
 791              	.LFE73:
 793              		.global	_ZN6StringC1Elh
 794              		.thumb_set _ZN6StringC1Elh,_ZN6StringC2Elh
 795              		.section	.text._ZN6StringC2Ejh,"ax",%progbits
 796              		.align	1
 797              		.global	_ZN6StringC2Ejh
 798              		.thumb
 799              		.thumb_func
 801              	_ZN6StringC2Ejh:
 802              	.LFB70:
  86:../../cores/mapleMX/WString.cpp **** {
 803              		.loc 1 86 0
 804              		.cfi_startproc
 805              		@ args = 0, pretend = 0, frame = 40
 806              		@ frame_needed = 0, uses_anonymous_args = 0
 807              	.LVL71:
 808 0000 10B5     		push	{r4, lr}
 809              		.cfi_def_cfa_offset 8
 810              		.cfi_offset 4, -8
 811              		.cfi_offset 14, -4
 812 0002 0446     		mov	r4, r0
 813              	.LVL72:
 814              	.LBB82:
 815              	.LBB83:
 816              	.LBB84:
 135:../../cores/mapleMX/WString.cpp **** 	capacity = 0;
 817              		.loc 1 135 0
 818 0004 0023     		movs	r3, #0
 819              	.LBE84:
 820              	.LBE83:
 821              	.LBE82:
  86:../../cores/mapleMX/WString.cpp **** {
 822              		.loc 1 86 0
 823 0006 8AB0     		sub	sp, sp, #40
 824              		.cfi_def_cfa_offset 48
 825              	.LBB87:
 826              	.LBB86:
 827              	.LBB85:
 135:../../cores/mapleMX/WString.cpp **** 	capacity = 0;
 828              		.loc 1 135 0
 829 0008 2360     		str	r3, [r4]
 136:../../cores/mapleMX/WString.cpp **** 	len = 0;
 830              		.loc 1 136 0
 831 000a 6360     		str	r3, [r4, #4]
 137:../../cores/mapleMX/WString.cpp **** }
 832              		.loc 1 137 0
 833 000c A360     		str	r3, [r4, #8]
 834              	.LVL73:
 835              	.LBE85:
 836              	.LBE86:
 837              	.LBE87:
ARM GAS  /var/folders/19/rz7506jh8xn7x1006s6s574h0000gn/T//ccPIz347.s 			page 21


  86:../../cores/mapleMX/WString.cpp **** {
 838              		.loc 1 86 0
 839 000e 0846     		mov	r0, r1
 840              	.LVL74:
 841              	.LBB88:
  90:../../cores/mapleMX/WString.cpp **** 	*this = buf;
 842              		.loc 1 90 0
 843 0010 01A9     		add	r1, sp, #4
 844              	.LVL75:
 845 0012 FFF7FEFF 		bl	utoa
 846              	.LVL76:
  91:../../cores/mapleMX/WString.cpp **** }
 847              		.loc 1 91 0
 848 0016 01A9     		add	r1, sp, #4
 849 0018 2046     		mov	r0, r4
 850 001a FFF7FEFF 		bl	_ZN6StringaSEPK19__FlashStringHelper
 851              	.LVL77:
 852              	.LBE88:
  92:../../cores/mapleMX/WString.cpp **** 
 853              		.loc 1 92 0
 854 001e 2046     		mov	r0, r4
 855 0020 0AB0     		add	sp, sp, #40
 856              		.cfi_def_cfa_offset 8
 857              		@ sp needed
 858 0022 10BD     		pop	{r4, pc}
 859              		.cfi_endproc
 860              	.LFE70:
 862              		.global	_ZN6StringC1Ejh
 863              		.thumb_set _ZN6StringC1Ejh,_ZN6StringC2Ejh
 864              		.section	.text._ZN6StringC2Eih,"ax",%progbits
 865              		.align	1
 866              		.global	_ZN6StringC2Eih
 867              		.thumb
 868              		.thumb_func
 870              	_ZN6StringC2Eih:
 871              	.LFB67:
  78:../../cores/mapleMX/WString.cpp **** {
 872              		.loc 1 78 0
 873              		.cfi_startproc
 874              		@ args = 0, pretend = 0, frame = 40
 875              		@ frame_needed = 0, uses_anonymous_args = 0
 876              	.LVL78:
 877 0000 10B5     		push	{r4, lr}
 878              		.cfi_def_cfa_offset 8
 879              		.cfi_offset 4, -8
 880              		.cfi_offset 14, -4
 881 0002 0446     		mov	r4, r0
 882              	.LVL79:
 883              	.LBB89:
 884              	.LBB90:
 885              	.LBB91:
 135:../../cores/mapleMX/WString.cpp **** 	capacity = 0;
 886              		.loc 1 135 0
 887 0004 0023     		movs	r3, #0
 888              	.LBE91:
 889              	.LBE90:
 890              	.LBE89:
ARM GAS  /var/folders/19/rz7506jh8xn7x1006s6s574h0000gn/T//ccPIz347.s 			page 22


  78:../../cores/mapleMX/WString.cpp **** {
 891              		.loc 1 78 0
 892 0006 8AB0     		sub	sp, sp, #40
 893              		.cfi_def_cfa_offset 48
 894              	.LBB94:
 895              	.LBB93:
 896              	.LBB92:
 135:../../cores/mapleMX/WString.cpp **** 	capacity = 0;
 897              		.loc 1 135 0
 898 0008 2360     		str	r3, [r4]
 136:../../cores/mapleMX/WString.cpp **** 	len = 0;
 899              		.loc 1 136 0
 900 000a 6360     		str	r3, [r4, #4]
 137:../../cores/mapleMX/WString.cpp **** }
 901              		.loc 1 137 0
 902 000c A360     		str	r3, [r4, #8]
 903              	.LVL80:
 904              	.LBE92:
 905              	.LBE93:
 906              	.LBE94:
  78:../../cores/mapleMX/WString.cpp **** {
 907              		.loc 1 78 0
 908 000e 0846     		mov	r0, r1
 909              	.LVL81:
 910              	.LBB95:
  82:../../cores/mapleMX/WString.cpp **** 	*this = buf;
 911              		.loc 1 82 0
 912 0010 01A9     		add	r1, sp, #4
 913              	.LVL82:
 914 0012 FFF7FEFF 		bl	itoa
 915              	.LVL83:
  83:../../cores/mapleMX/WString.cpp **** }
 916              		.loc 1 83 0
 917 0016 01A9     		add	r1, sp, #4
 918 0018 2046     		mov	r0, r4
 919 001a FFF7FEFF 		bl	_ZN6StringaSEPK19__FlashStringHelper
 920              	.LVL84:
 921              	.LBE95:
  84:../../cores/mapleMX/WString.cpp **** 
 922              		.loc 1 84 0
 923 001e 2046     		mov	r0, r4
 924 0020 0AB0     		add	sp, sp, #40
 925              		.cfi_def_cfa_offset 8
 926              		@ sp needed
 927 0022 10BD     		pop	{r4, pc}
 928              		.cfi_endproc
 929              	.LFE67:
 931              		.global	_ZN6StringC1Eih
 932              		.thumb_set _ZN6StringC1Eih,_ZN6StringC2Eih
 933              		.section	.text._ZN6StringC2Ehh,"ax",%progbits
 934              		.align	1
 935              		.global	_ZN6StringC2Ehh
 936              		.thumb
 937              		.thumb_func
 939              	_ZN6StringC2Ehh:
 940              	.LFB64:
  70:../../cores/mapleMX/WString.cpp **** {
ARM GAS  /var/folders/19/rz7506jh8xn7x1006s6s574h0000gn/T//ccPIz347.s 			page 23


 941              		.loc 1 70 0
 942              		.cfi_startproc
 943              		@ args = 0, pretend = 0, frame = 16
 944              		@ frame_needed = 0, uses_anonymous_args = 0
 945              	.LVL85:
 946 0000 1FB5     		push	{r0, r1, r2, r3, r4, lr}
 947              		.cfi_def_cfa_offset 24
 948              		.cfi_offset 4, -8
 949              		.cfi_offset 14, -4
  70:../../cores/mapleMX/WString.cpp **** {
 950              		.loc 1 70 0
 951 0002 0446     		mov	r4, r0
 952              	.LVL86:
 953              	.LBB96:
 954              	.LBB97:
 955              	.LBB98:
 135:../../cores/mapleMX/WString.cpp **** 	capacity = 0;
 956              		.loc 1 135 0
 957 0004 0023     		movs	r3, #0
 958 0006 2360     		str	r3, [r4]
 136:../../cores/mapleMX/WString.cpp **** 	len = 0;
 959              		.loc 1 136 0
 960 0008 6360     		str	r3, [r4, #4]
 137:../../cores/mapleMX/WString.cpp **** }
 961              		.loc 1 137 0
 962 000a A360     		str	r3, [r4, #8]
 963              	.LVL87:
 964              	.LBE98:
 965              	.LBE97:
 966              	.LBE96:
  70:../../cores/mapleMX/WString.cpp **** {
 967              		.loc 1 70 0
 968 000c 0846     		mov	r0, r1
 969              	.LVL88:
 970              	.LBB99:
  74:../../cores/mapleMX/WString.cpp **** 	*this = buf;
 971              		.loc 1 74 0
 972 000e 01A9     		add	r1, sp, #4
 973              	.LVL89:
 974 0010 FFF7FEFF 		bl	utoa
 975              	.LVL90:
  75:../../cores/mapleMX/WString.cpp **** }
 976              		.loc 1 75 0
 977 0014 01A9     		add	r1, sp, #4
 978 0016 2046     		mov	r0, r4
 979 0018 FFF7FEFF 		bl	_ZN6StringaSEPK19__FlashStringHelper
 980              	.LVL91:
 981              	.LBE99:
  76:../../cores/mapleMX/WString.cpp **** 
 982              		.loc 1 76 0
 983 001c 2046     		mov	r0, r4
 984 001e 04B0     		add	sp, sp, #16
 985              		.cfi_def_cfa_offset 8
 986              		@ sp needed
 987 0020 10BD     		pop	{r4, pc}
 988              		.cfi_endproc
 989              	.LFE64:
ARM GAS  /var/folders/19/rz7506jh8xn7x1006s6s574h0000gn/T//ccPIz347.s 			page 24


 991              		.global	_ZN6StringC1Ehh
 992              		.thumb_set _ZN6StringC1Ehh,_ZN6StringC2Ehh
 993              		.section	.text._ZN6StringC2Ec,"ax",%progbits
 994              		.align	1
 995              		.global	_ZN6StringC2Ec
 996              		.thumb
 997              		.thumb_func
 999              	_ZN6StringC2Ec:
 1000              	.LFB61:
  61:../../cores/mapleMX/WString.cpp **** {
 1001              		.loc 1 61 0
 1002              		.cfi_startproc
 1003              		@ args = 0, pretend = 0, frame = 8
 1004              		@ frame_needed = 0, uses_anonymous_args = 0
 1005              	.LVL92:
 1006 0000 13B5     		push	{r0, r1, r4, lr}
 1007              		.cfi_def_cfa_offset 16
 1008              		.cfi_offset 4, -8
 1009              		.cfi_offset 14, -4
 1010              	.LBB100:
 1011              	.LBB101:
 1012              	.LBB102:
 135:../../cores/mapleMX/WString.cpp **** 	capacity = 0;
 1013              		.loc 1 135 0
 1014 0002 0023     		movs	r3, #0
 1015              	.LBE102:
 1016              	.LBE101:
  65:../../cores/mapleMX/WString.cpp **** 	buf[1] = 0;
 1017              		.loc 1 65 0
 1018 0004 8DF80410 		strb	r1, [sp, #4]
 1019              	.LBB104:
 1020              	.LBB103:
 135:../../cores/mapleMX/WString.cpp **** 	capacity = 0;
 1021              		.loc 1 135 0
 1022 0008 0360     		str	r3, [r0]
 136:../../cores/mapleMX/WString.cpp **** 	len = 0;
 1023              		.loc 1 136 0
 1024 000a 4360     		str	r3, [r0, #4]
 137:../../cores/mapleMX/WString.cpp **** }
 1025              		.loc 1 137 0
 1026 000c 8360     		str	r3, [r0, #8]
 1027              	.LVL93:
 1028              	.LBE103:
 1029              	.LBE104:
  67:../../cores/mapleMX/WString.cpp **** }
 1030              		.loc 1 67 0
 1031 000e 01A9     		add	r1, sp, #4
 1032              	.LVL94:
 1033              	.LBE100:
  61:../../cores/mapleMX/WString.cpp **** {
 1034              		.loc 1 61 0
 1035 0010 0446     		mov	r4, r0
 1036              	.LBB105:
  66:../../cores/mapleMX/WString.cpp **** 	*this = buf;
 1037              		.loc 1 66 0
 1038 0012 8DF80530 		strb	r3, [sp, #5]
  67:../../cores/mapleMX/WString.cpp **** }
ARM GAS  /var/folders/19/rz7506jh8xn7x1006s6s574h0000gn/T//ccPIz347.s 			page 25


 1039              		.loc 1 67 0
 1040 0016 FFF7FEFF 		bl	_ZN6StringaSEPK19__FlashStringHelper
 1041              	.LVL95:
 1042              	.LBE105:
  68:../../cores/mapleMX/WString.cpp **** 
 1043              		.loc 1 68 0
 1044 001a 2046     		mov	r0, r4
 1045 001c 02B0     		add	sp, sp, #8
 1046              		.cfi_def_cfa_offset 8
 1047              		@ sp needed
 1048 001e 10BD     		pop	{r4, pc}
 1049              		.cfi_endproc
 1050              	.LFE61:
 1052              		.global	_ZN6StringC1Ec
 1053              		.thumb_set _ZN6StringC1Ec,_ZN6StringC2Ec
 1054              		.section	.text._ZN6StringaSEPKc,"ax",%progbits
 1055              		.align	1
 1056              		.global	_ZN6StringaSEPKc
 1057              		.thumb
 1058              		.thumb_func
 1060              	_ZN6StringaSEPKc:
 1061              	.LFB134:
 1062              		.cfi_startproc
 1063              		@ args = 0, pretend = 0, frame = 0
 1064              		@ frame_needed = 0, uses_anonymous_args = 0
 1065              		@ link register save eliminated.
 1066 0000 FFF7FEBF 		b	_ZN6StringaSEPK19__FlashStringHelper
 1067              		.cfi_endproc
 1068              	.LFE134:
 1070              		.section	.text._ZN6String6concatERKS_,"ax",%progbits
 1071              		.align	1
 1072              		.global	_ZN6String6concatERKS_
 1073              		.thumb
 1074              		.thumb_func
 1076              	_ZN6String6concatERKS_:
 1077              	.LFB96:
 255:../../cores/mapleMX/WString.cpp **** 
 256:../../cores/mapleMX/WString.cpp **** /*********************************************/
 257:../../cores/mapleMX/WString.cpp **** /*  concat                                   */
 258:../../cores/mapleMX/WString.cpp **** /*********************************************/
 259:../../cores/mapleMX/WString.cpp **** 
 260:../../cores/mapleMX/WString.cpp **** unsigned char String::concat(const String &s)
 261:../../cores/mapleMX/WString.cpp **** {
 1078              		.loc 1 261 0
 1079              		.cfi_startproc
 1080              		@ args = 0, pretend = 0, frame = 0
 1081              		@ frame_needed = 0, uses_anonymous_args = 0
 1082              		@ link register save eliminated.
 1083              	.LVL96:
 262:../../cores/mapleMX/WString.cpp **** 	return concat(s.buffer, s.len);
 1084              		.loc 1 262 0
 1085 0000 8A68     		ldr	r2, [r1, #8]
 1086 0002 0968     		ldr	r1, [r1]
 1087              	.LVL97:
 1088 0004 FFF7FEBF 		b	_ZN6String6concatEPKcj
 1089              	.LVL98:
 1090              		.cfi_endproc
ARM GAS  /var/folders/19/rz7506jh8xn7x1006s6s574h0000gn/T//ccPIz347.s 			page 26


 1091              	.LFE96:
 1093              		.section	.text._ZNK6String9compareToERKS_,"ax",%progbits
 1094              		.align	1
 1095              		.global	_ZNK6String9compareToERKS_
 1096              		.thumb
 1097              		.thumb_func
 1099              	_ZNK6String9compareToERKS_:
 1100              	.LFB97:
 263:../../cores/mapleMX/WString.cpp **** }
 264:../../cores/mapleMX/WString.cpp **** #if 0
 265:../../cores/mapleMX/WString.cpp **** unsigned char String::concat(const char *cstr, unsigned int length)
 266:../../cores/mapleMX/WString.cpp **** {
 267:../../cores/mapleMX/WString.cpp **** 	unsigned int newlen = len + length;
 268:../../cores/mapleMX/WString.cpp **** 	if (!cstr) return 0;
 269:../../cores/mapleMX/WString.cpp **** 	if (length == 0) return 1;
 270:../../cores/mapleMX/WString.cpp **** 	if (!reserve(newlen)) return 0;
 271:../../cores/mapleMX/WString.cpp **** 	strcpy(buffer + len, cstr);
 272:../../cores/mapleMX/WString.cpp **** 	len = newlen;
 273:../../cores/mapleMX/WString.cpp **** 	return 1;
 274:../../cores/mapleMX/WString.cpp **** }
 275:../../cores/mapleMX/WString.cpp **** 
 276:../../cores/mapleMX/WString.cpp **** unsigned char String::concat(const char *cstr)
 277:../../cores/mapleMX/WString.cpp **** {
 278:../../cores/mapleMX/WString.cpp **** 	if (!cstr) return 0;
 279:../../cores/mapleMX/WString.cpp **** 	return concat(cstr, strlen(cstr));
 280:../../cores/mapleMX/WString.cpp **** }
 281:../../cores/mapleMX/WString.cpp **** 
 282:../../cores/mapleMX/WString.cpp **** unsigned char String::concat(char c)
 283:../../cores/mapleMX/WString.cpp **** {
 284:../../cores/mapleMX/WString.cpp **** 	char buf[2];
 285:../../cores/mapleMX/WString.cpp **** 	buf[0] = c;
 286:../../cores/mapleMX/WString.cpp **** 	buf[1] = 0;
 287:../../cores/mapleMX/WString.cpp **** 	return concat(buf, 1);
 288:../../cores/mapleMX/WString.cpp **** }
 289:../../cores/mapleMX/WString.cpp **** 
 290:../../cores/mapleMX/WString.cpp **** unsigned char String::concat(unsigned char num)
 291:../../cores/mapleMX/WString.cpp **** {
 292:../../cores/mapleMX/WString.cpp **** 	char buf[1 + 3 * sizeof(unsigned char)];
 293:../../cores/mapleMX/WString.cpp **** 	itoa(num, buf, 10);
 294:../../cores/mapleMX/WString.cpp **** 	return concat(buf, strlen(buf));
 295:../../cores/mapleMX/WString.cpp **** }
 296:../../cores/mapleMX/WString.cpp **** 
 297:../../cores/mapleMX/WString.cpp **** unsigned char String::concat(int num)
 298:../../cores/mapleMX/WString.cpp **** {
 299:../../cores/mapleMX/WString.cpp **** 	char buf[2 + 3 * sizeof(int)];
 300:../../cores/mapleMX/WString.cpp **** 	itoa(num, buf, 10);
 301:../../cores/mapleMX/WString.cpp **** 	return concat(buf, strlen(buf));
 302:../../cores/mapleMX/WString.cpp **** }
 303:../../cores/mapleMX/WString.cpp **** 
 304:../../cores/mapleMX/WString.cpp **** unsigned char String::concat(unsigned int num)
 305:../../cores/mapleMX/WString.cpp **** {
 306:../../cores/mapleMX/WString.cpp **** 	char buf[1 + 3 * sizeof(unsigned int)];
 307:../../cores/mapleMX/WString.cpp **** 	utoa(num, buf, 10);
 308:../../cores/mapleMX/WString.cpp **** 	return concat(buf, strlen(buf));
 309:../../cores/mapleMX/WString.cpp **** }
 310:../../cores/mapleMX/WString.cpp **** 
 311:../../cores/mapleMX/WString.cpp **** unsigned char String::concat(long num)
ARM GAS  /var/folders/19/rz7506jh8xn7x1006s6s574h0000gn/T//ccPIz347.s 			page 27


 312:../../cores/mapleMX/WString.cpp **** {
 313:../../cores/mapleMX/WString.cpp **** 	char buf[2 + 3 * sizeof(long)];
 314:../../cores/mapleMX/WString.cpp **** 	ltoa(num, buf, 10);
 315:../../cores/mapleMX/WString.cpp **** 	return concat(buf, strlen(buf));
 316:../../cores/mapleMX/WString.cpp **** }
 317:../../cores/mapleMX/WString.cpp **** 
 318:../../cores/mapleMX/WString.cpp **** unsigned char String::concat(unsigned long num)
 319:../../cores/mapleMX/WString.cpp **** {
 320:../../cores/mapleMX/WString.cpp **** 	char buf[1 + 3 * sizeof(unsigned long)];
 321:../../cores/mapleMX/WString.cpp **** 	ultoa(num, buf, 10);
 322:../../cores/mapleMX/WString.cpp **** 	return concat(buf, strlen(buf));
 323:../../cores/mapleMX/WString.cpp **** }
 324:../../cores/mapleMX/WString.cpp **** 
 325:../../cores/mapleMX/WString.cpp **** unsigned char String::concat(float num)
 326:../../cores/mapleMX/WString.cpp **** {
 327:../../cores/mapleMX/WString.cpp **** 	char buf[20];
 328:../../cores/mapleMX/WString.cpp **** 	char* string = dtostrf(num, 4, 2, buf);
 329:../../cores/mapleMX/WString.cpp **** 	return concat(string, strlen(string));
 330:../../cores/mapleMX/WString.cpp **** }
 331:../../cores/mapleMX/WString.cpp **** 
 332:../../cores/mapleMX/WString.cpp **** unsigned char String::concat(double num)
 333:../../cores/mapleMX/WString.cpp **** {
 334:../../cores/mapleMX/WString.cpp **** 	char buf[20];
 335:../../cores/mapleMX/WString.cpp **** 	char* string = dtostrf(num, 4, 2, buf);
 336:../../cores/mapleMX/WString.cpp **** 	return concat(string, strlen(string));
 337:../../cores/mapleMX/WString.cpp **** }
 338:../../cores/mapleMX/WString.cpp **** 
 339:../../cores/mapleMX/WString.cpp **** unsigned char String::concat(const __FlashStringHelper * str)
 340:../../cores/mapleMX/WString.cpp **** {
 341:../../cores/mapleMX/WString.cpp **** 	if (!str) return 0;
 342:../../cores/mapleMX/WString.cpp **** 	int length = strlen_P((const char *) str);
 343:../../cores/mapleMX/WString.cpp **** 	if (length == 0) return 1;
 344:../../cores/mapleMX/WString.cpp **** 	unsigned int newlen = len + length;
 345:../../cores/mapleMX/WString.cpp **** 	if (!reserve(newlen)) return 0;
 346:../../cores/mapleMX/WString.cpp **** 	strcpy_P(buffer + len, (const char *) str);
 347:../../cores/mapleMX/WString.cpp **** 	len = newlen;
 348:../../cores/mapleMX/WString.cpp **** 	return 1;
 349:../../cores/mapleMX/WString.cpp **** }
 350:../../cores/mapleMX/WString.cpp **** 
 351:../../cores/mapleMX/WString.cpp **** /*********************************************/
 352:../../cores/mapleMX/WString.cpp **** /*  Concatenate                              */
 353:../../cores/mapleMX/WString.cpp **** /*********************************************/
 354:../../cores/mapleMX/WString.cpp **** 
 355:../../cores/mapleMX/WString.cpp **** StringSumHelper & operator + (const StringSumHelper &lhs, const String &rhs)
 356:../../cores/mapleMX/WString.cpp **** {
 357:../../cores/mapleMX/WString.cpp **** 	StringSumHelper &a = const_cast<StringSumHelper&>(lhs);
 358:../../cores/mapleMX/WString.cpp **** 	if (!a.concat(rhs.buffer, rhs.len)) a.invalidate();
 359:../../cores/mapleMX/WString.cpp **** 	return a;
 360:../../cores/mapleMX/WString.cpp **** }
 361:../../cores/mapleMX/WString.cpp **** 
 362:../../cores/mapleMX/WString.cpp **** StringSumHelper & operator + (const StringSumHelper &lhs, const char *cstr)
 363:../../cores/mapleMX/WString.cpp **** {
 364:../../cores/mapleMX/WString.cpp **** 	StringSumHelper &a = const_cast<StringSumHelper&>(lhs);
 365:../../cores/mapleMX/WString.cpp **** 	if (!cstr || !a.concat(cstr, strlen(cstr))) a.invalidate();
 366:../../cores/mapleMX/WString.cpp **** 	return a;
 367:../../cores/mapleMX/WString.cpp **** }
 368:../../cores/mapleMX/WString.cpp **** 
ARM GAS  /var/folders/19/rz7506jh8xn7x1006s6s574h0000gn/T//ccPIz347.s 			page 28


 369:../../cores/mapleMX/WString.cpp **** StringSumHelper & operator + (const StringSumHelper &lhs, char c)
 370:../../cores/mapleMX/WString.cpp **** {
 371:../../cores/mapleMX/WString.cpp **** 	StringSumHelper &a = const_cast<StringSumHelper&>(lhs);
 372:../../cores/mapleMX/WString.cpp **** 	if (!a.concat(c)) a.invalidate();
 373:../../cores/mapleMX/WString.cpp **** 	return a;
 374:../../cores/mapleMX/WString.cpp **** }
 375:../../cores/mapleMX/WString.cpp **** 
 376:../../cores/mapleMX/WString.cpp **** StringSumHelper & operator + (const StringSumHelper &lhs, unsigned char num)
 377:../../cores/mapleMX/WString.cpp **** {
 378:../../cores/mapleMX/WString.cpp **** 	StringSumHelper &a = const_cast<StringSumHelper&>(lhs);
 379:../../cores/mapleMX/WString.cpp **** 	if (!a.concat(num)) a.invalidate();
 380:../../cores/mapleMX/WString.cpp **** 	return a;
 381:../../cores/mapleMX/WString.cpp **** }
 382:../../cores/mapleMX/WString.cpp **** 
 383:../../cores/mapleMX/WString.cpp **** StringSumHelper & operator + (const StringSumHelper &lhs, int num)
 384:../../cores/mapleMX/WString.cpp **** {
 385:../../cores/mapleMX/WString.cpp **** 	StringSumHelper &a = const_cast<StringSumHelper&>(lhs);
 386:../../cores/mapleMX/WString.cpp **** 	if (!a.concat(num)) a.invalidate();
 387:../../cores/mapleMX/WString.cpp **** 	return a;
 388:../../cores/mapleMX/WString.cpp **** }
 389:../../cores/mapleMX/WString.cpp **** 
 390:../../cores/mapleMX/WString.cpp **** StringSumHelper & operator + (const StringSumHelper &lhs, unsigned int num)
 391:../../cores/mapleMX/WString.cpp **** {
 392:../../cores/mapleMX/WString.cpp **** 	StringSumHelper &a = const_cast<StringSumHelper&>(lhs);
 393:../../cores/mapleMX/WString.cpp **** 	if (!a.concat(num)) a.invalidate();
 394:../../cores/mapleMX/WString.cpp **** 	return a;
 395:../../cores/mapleMX/WString.cpp **** }
 396:../../cores/mapleMX/WString.cpp **** 
 397:../../cores/mapleMX/WString.cpp **** StringSumHelper & operator + (const StringSumHelper &lhs, long num)
 398:../../cores/mapleMX/WString.cpp **** {
 399:../../cores/mapleMX/WString.cpp **** 	StringSumHelper &a = const_cast<StringSumHelper&>(lhs);
 400:../../cores/mapleMX/WString.cpp **** 	if (!a.concat(num)) a.invalidate();
 401:../../cores/mapleMX/WString.cpp **** 	return a;
 402:../../cores/mapleMX/WString.cpp **** }
 403:../../cores/mapleMX/WString.cpp **** 
 404:../../cores/mapleMX/WString.cpp **** StringSumHelper & operator + (const StringSumHelper &lhs, unsigned long num)
 405:../../cores/mapleMX/WString.cpp **** {
 406:../../cores/mapleMX/WString.cpp **** 	StringSumHelper &a = const_cast<StringSumHelper&>(lhs);
 407:../../cores/mapleMX/WString.cpp **** 	if (!a.concat(num)) a.invalidate();
 408:../../cores/mapleMX/WString.cpp **** 	return a;
 409:../../cores/mapleMX/WString.cpp **** }
 410:../../cores/mapleMX/WString.cpp **** 
 411:../../cores/mapleMX/WString.cpp **** StringSumHelper & operator + (const StringSumHelper &lhs, float num)
 412:../../cores/mapleMX/WString.cpp **** {
 413:../../cores/mapleMX/WString.cpp **** 	StringSumHelper &a = const_cast<StringSumHelper&>(lhs);
 414:../../cores/mapleMX/WString.cpp **** 	if (!a.concat(num)) a.invalidate();
 415:../../cores/mapleMX/WString.cpp **** 	return a;
 416:../../cores/mapleMX/WString.cpp **** }
 417:../../cores/mapleMX/WString.cpp **** 
 418:../../cores/mapleMX/WString.cpp **** StringSumHelper & operator + (const StringSumHelper &lhs, double num)
 419:../../cores/mapleMX/WString.cpp **** {
 420:../../cores/mapleMX/WString.cpp **** 	StringSumHelper &a = const_cast<StringSumHelper&>(lhs);
 421:../../cores/mapleMX/WString.cpp **** 	if (!a.concat(num)) a.invalidate();
 422:../../cores/mapleMX/WString.cpp **** 	return a;
 423:../../cores/mapleMX/WString.cpp **** }
 424:../../cores/mapleMX/WString.cpp **** 
 425:../../cores/mapleMX/WString.cpp **** StringSumHelper & operator + (const StringSumHelper &lhs, const __FlashStringHelper *rhs)
ARM GAS  /var/folders/19/rz7506jh8xn7x1006s6s574h0000gn/T//ccPIz347.s 			page 29


 426:../../cores/mapleMX/WString.cpp **** {
 427:../../cores/mapleMX/WString.cpp **** 	StringSumHelper &a = const_cast<StringSumHelper&>(lhs);
 428:../../cores/mapleMX/WString.cpp **** 	if (!a.concat(rhs))	a.invalidate();
 429:../../cores/mapleMX/WString.cpp **** 	return a;
 430:../../cores/mapleMX/WString.cpp **** }
 431:../../cores/mapleMX/WString.cpp **** #endif
 432:../../cores/mapleMX/WString.cpp **** 
 433:../../cores/mapleMX/WString.cpp **** /*********************************************/
 434:../../cores/mapleMX/WString.cpp **** /*  Comparison                               */
 435:../../cores/mapleMX/WString.cpp **** /*********************************************/
 436:../../cores/mapleMX/WString.cpp **** 
 437:../../cores/mapleMX/WString.cpp **** int String::compareTo(const String &s) const
 438:../../cores/mapleMX/WString.cpp **** {
 1101              		.loc 1 438 0
 1102              		.cfi_startproc
 1103              		@ args = 0, pretend = 0, frame = 0
 1104              		@ frame_needed = 0, uses_anonymous_args = 0
 1105              		@ link register save eliminated.
 1106              	.LVL99:
 1107              		.loc 1 438 0
 1108 0000 0246     		mov	r2, r0
 439:../../cores/mapleMX/WString.cpp **** 	if (!buffer || !s.buffer) {
 1109              		.loc 1 439 0
 1110 0002 0068     		ldr	r0, [r0]
 1111              	.LVL100:
 1112 0004 0B68     		ldr	r3, [r1]
 1113 0006 08B1     		cbz	r0, .L50
 1114              		.loc 1 439 0 is_stmt 0 discriminator 1
 1115 0008 5BB9     		cbnz	r3, .L51
 1116 000a 05E0     		b	.L52
 1117              	.L50:
 440:../../cores/mapleMX/WString.cpp **** 		if (s.buffer && s.len > 0) return 0 - *(unsigned char *)s.buffer;
 1118              		.loc 1 440 0 is_stmt 1
 1119 000c 23B1     		cbz	r3, .L52
 1120              		.loc 1 440 0 is_stmt 0 discriminator 1
 1121 000e 8968     		ldr	r1, [r1, #8]
 1122              	.LVL101:
 1123 0010 11B1     		cbz	r1, .L52
 1124              		.loc 1 440 0 discriminator 2
 1125 0012 1878     		ldrb	r0, [r3]	@ zero_extendqisi2
 1126 0014 4042     		negs	r0, r0
 1127 0016 7047     		bx	lr
 1128              	.L52:
 441:../../cores/mapleMX/WString.cpp **** 		if (buffer && len > 0) return *(unsigned char *)buffer;
 1129              		.loc 1 441 0 is_stmt 1
 1130 0018 38B1     		cbz	r0, .L53
 1131              		.loc 1 441 0 is_stmt 0 discriminator 1
 1132 001a 9368     		ldr	r3, [r2, #8]
 1133 001c 23B1     		cbz	r3, .L55
 1134              		.loc 1 441 0 discriminator 2
 1135 001e 0078     		ldrb	r0, [r0]	@ zero_extendqisi2
 1136 0020 7047     		bx	lr
 1137              	.LVL102:
 1138              	.L51:
 442:../../cores/mapleMX/WString.cpp **** 		return 0;
 443:../../cores/mapleMX/WString.cpp **** 	}
 444:../../cores/mapleMX/WString.cpp **** 	return strcmp(buffer, s.buffer);
ARM GAS  /var/folders/19/rz7506jh8xn7x1006s6s574h0000gn/T//ccPIz347.s 			page 30


 1139              		.loc 1 444 0 is_stmt 1
 1140 0022 1946     		mov	r1, r3
 1141              	.LVL103:
 1142 0024 FFF7FEBF 		b	strcmp
 1143              	.LVL104:
 1144              	.L55:
 442:../../cores/mapleMX/WString.cpp **** 		return 0;
 1145              		.loc 1 442 0
 1146 0028 1846     		mov	r0, r3
 1147              	.L53:
 445:../../cores/mapleMX/WString.cpp **** }
 1148              		.loc 1 445 0
 1149 002a 7047     		bx	lr
 1150              		.cfi_endproc
 1151              	.LFE97:
 1153              		.section	.text._ZNK6String6equalsERKS_,"ax",%progbits
 1154              		.align	1
 1155              		.global	_ZNK6String6equalsERKS_
 1156              		.thumb
 1157              		.thumb_func
 1159              	_ZNK6String6equalsERKS_:
 1160              	.LFB98:
 446:../../cores/mapleMX/WString.cpp **** 
 447:../../cores/mapleMX/WString.cpp **** unsigned char String::equals(const String &s2) const
 448:../../cores/mapleMX/WString.cpp **** {
 1161              		.loc 1 448 0
 1162              		.cfi_startproc
 1163              		@ args = 0, pretend = 0, frame = 0
 1164              		@ frame_needed = 0, uses_anonymous_args = 0
 1165              	.LVL105:
 1166 0000 08B5     		push	{r3, lr}
 1167              		.cfi_def_cfa_offset 8
 1168              		.cfi_offset 3, -8
 1169              		.cfi_offset 14, -4
 449:../../cores/mapleMX/WString.cpp **** 	return (len == s2.len && compareTo(s2) == 0);
 1170              		.loc 1 449 0
 1171 0002 8268     		ldr	r2, [r0, #8]
 1172 0004 8B68     		ldr	r3, [r1, #8]
 1173 0006 9A42     		cmp	r2, r3
 1174 0008 05D1     		bne	.L67
 1175              		.loc 1 449 0 is_stmt 0 discriminator 1
 1176 000a FFF7FEFF 		bl	_ZNK6String9compareToERKS_
 1177              	.LVL106:
 1178 000e B0FA80F0 		clz	r0, r0
 1179 0012 4009     		lsrs	r0, r0, #5
 1180 0014 08BD     		pop	{r3, pc}
 1181              	.LVL107:
 1182              	.L67:
 1183              		.loc 1 449 0
 1184 0016 0020     		movs	r0, #0
 1185              	.LVL108:
 450:../../cores/mapleMX/WString.cpp **** }
 1186              		.loc 1 450 0 is_stmt 1
 1187 0018 08BD     		pop	{r3, pc}
 1188              		.cfi_endproc
 1189              	.LFE98:
 1191              		.section	.text._ZNK6String6equalsEPKc,"ax",%progbits
ARM GAS  /var/folders/19/rz7506jh8xn7x1006s6s574h0000gn/T//ccPIz347.s 			page 31


 1192              		.align	1
 1193              		.global	_ZNK6String6equalsEPKc
 1194              		.thumb
 1195              		.thumb_func
 1197              	_ZNK6String6equalsEPKc:
 1198              	.LFB99:
 451:../../cores/mapleMX/WString.cpp **** 
 452:../../cores/mapleMX/WString.cpp **** unsigned char String::equals(const char *cstr) const
 453:../../cores/mapleMX/WString.cpp **** {
 1199              		.loc 1 453 0
 1200              		.cfi_startproc
 1201              		@ args = 0, pretend = 0, frame = 0
 1202              		@ frame_needed = 0, uses_anonymous_args = 0
 1203              	.LVL109:
 454:../../cores/mapleMX/WString.cpp **** 	if (len == 0) return (cstr == NULL || *cstr == 0);
 1204              		.loc 1 454 0
 1205 0000 8268     		ldr	r2, [r0, #8]
 453:../../cores/mapleMX/WString.cpp **** 	if (len == 0) return (cstr == NULL || *cstr == 0);
 1206              		.loc 1 453 0
 1207 0002 08B5     		push	{r3, lr}
 1208              		.cfi_def_cfa_offset 8
 1209              		.cfi_offset 3, -8
 1210              		.cfi_offset 14, -4
 453:../../cores/mapleMX/WString.cpp **** 	if (len == 0) return (cstr == NULL || *cstr == 0);
 1211              		.loc 1 453 0
 1212 0004 0B46     		mov	r3, r1
 1213              		.loc 1 454 0
 1214 0006 12B9     		cbnz	r2, .L69
 1215              		.loc 1 454 0 is_stmt 0 discriminator 1
 1216 0008 19B9     		cbnz	r1, .L75
 1217              		.loc 1 454 0
 1218 000a 0120     		movs	r0, #1
 1219              	.LVL110:
 1220 000c 08BD     		pop	{r3, pc}
 1221              	.LVL111:
 1222              	.L69:
 455:../../cores/mapleMX/WString.cpp **** 	if (cstr == NULL) return buffer[0] == 0;
 1223              		.loc 1 455 0 is_stmt 1
 1224 000e 11B9     		cbnz	r1, .L72
 1225              		.loc 1 455 0 is_stmt 0 discriminator 1
 1226 0010 0368     		ldr	r3, [r0]
 1227              	.L75:
 1228 0012 1878     		ldrb	r0, [r3]	@ zero_extendqisi2
 1229              	.LVL112:
 1230 0014 02E0     		b	.L74
 1231              	.LVL113:
 1232              	.L72:
 456:../../cores/mapleMX/WString.cpp **** 	return strcmp(buffer, cstr) == 0;
 1233              		.loc 1 456 0 is_stmt 1
 1234 0016 0068     		ldr	r0, [r0]
 1235              	.LVL114:
 1236 0018 FFF7FEFF 		bl	strcmp
 1237              	.LVL115:
 1238              	.L74:
 1239 001c B0FA80F0 		clz	r0, r0
 1240 0020 4009     		lsrs	r0, r0, #5
 457:../../cores/mapleMX/WString.cpp **** }
ARM GAS  /var/folders/19/rz7506jh8xn7x1006s6s574h0000gn/T//ccPIz347.s 			page 32


 1241              		.loc 1 457 0
 1242 0022 08BD     		pop	{r3, pc}
 1243              		.cfi_endproc
 1244              	.LFE99:
 1246              		.section	.text._ZNK6StringltERKS_,"ax",%progbits
 1247              		.align	1
 1248              		.global	_ZNK6StringltERKS_
 1249              		.thumb
 1250              		.thumb_func
 1252              	_ZNK6StringltERKS_:
 1253              	.LFB100:
 458:../../cores/mapleMX/WString.cpp **** 
 459:../../cores/mapleMX/WString.cpp **** unsigned char String::operator<(const String &rhs) const
 460:../../cores/mapleMX/WString.cpp **** {
 1254              		.loc 1 460 0
 1255              		.cfi_startproc
 1256              		@ args = 0, pretend = 0, frame = 0
 1257              		@ frame_needed = 0, uses_anonymous_args = 0
 1258              	.LVL116:
 1259 0000 08B5     		push	{r3, lr}
 1260              		.cfi_def_cfa_offset 8
 1261              		.cfi_offset 3, -8
 1262              		.cfi_offset 14, -4
 461:../../cores/mapleMX/WString.cpp **** 	return compareTo(rhs) < 0;
 1263              		.loc 1 461 0
 1264 0002 FFF7FEFF 		bl	_ZNK6String9compareToERKS_
 1265              	.LVL117:
 462:../../cores/mapleMX/WString.cpp **** }
 1266              		.loc 1 462 0
 1267 0006 C00F     		lsrs	r0, r0, #31
 1268 0008 08BD     		pop	{r3, pc}
 1269              		.cfi_endproc
 1270              	.LFE100:
 1272              		.section	.text._ZNK6StringgtERKS_,"ax",%progbits
 1273              		.align	1
 1274              		.global	_ZNK6StringgtERKS_
 1275              		.thumb
 1276              		.thumb_func
 1278              	_ZNK6StringgtERKS_:
 1279              	.LFB101:
 463:../../cores/mapleMX/WString.cpp **** 
 464:../../cores/mapleMX/WString.cpp **** unsigned char String::operator>(const String &rhs) const
 465:../../cores/mapleMX/WString.cpp **** {
 1280              		.loc 1 465 0
 1281              		.cfi_startproc
 1282              		@ args = 0, pretend = 0, frame = 0
 1283              		@ frame_needed = 0, uses_anonymous_args = 0
 1284              	.LVL118:
 1285 0000 08B5     		push	{r3, lr}
 1286              		.cfi_def_cfa_offset 8
 1287              		.cfi_offset 3, -8
 1288              		.cfi_offset 14, -4
 466:../../cores/mapleMX/WString.cpp **** 	return compareTo(rhs) > 0;
 1289              		.loc 1 466 0
 1290 0002 FFF7FEFF 		bl	_ZNK6String9compareToERKS_
 1291              	.LVL119:
 467:../../cores/mapleMX/WString.cpp **** }
ARM GAS  /var/folders/19/rz7506jh8xn7x1006s6s574h0000gn/T//ccPIz347.s 			page 33


 1292              		.loc 1 467 0
 1293 0006 0028     		cmp	r0, #0
 1294 0008 D4BF     		ite	le
 1295 000a 0020     		movle	r0, #0
 1296 000c 0120     		movgt	r0, #1
 1297 000e 08BD     		pop	{r3, pc}
 1298              		.cfi_endproc
 1299              	.LFE101:
 1301              		.section	.text._ZNK6StringleERKS_,"ax",%progbits
 1302              		.align	1
 1303              		.global	_ZNK6StringleERKS_
 1304              		.thumb
 1305              		.thumb_func
 1307              	_ZNK6StringleERKS_:
 1308              	.LFB102:
 468:../../cores/mapleMX/WString.cpp **** 
 469:../../cores/mapleMX/WString.cpp **** unsigned char String::operator<=(const String &rhs) const
 470:../../cores/mapleMX/WString.cpp **** {
 1309              		.loc 1 470 0
 1310              		.cfi_startproc
 1311              		@ args = 0, pretend = 0, frame = 0
 1312              		@ frame_needed = 0, uses_anonymous_args = 0
 1313              	.LVL120:
 1314 0000 08B5     		push	{r3, lr}
 1315              		.cfi_def_cfa_offset 8
 1316              		.cfi_offset 3, -8
 1317              		.cfi_offset 14, -4
 471:../../cores/mapleMX/WString.cpp **** 	return compareTo(rhs) <= 0;
 1318              		.loc 1 471 0
 1319 0002 FFF7FEFF 		bl	_ZNK6String9compareToERKS_
 1320              	.LVL121:
 472:../../cores/mapleMX/WString.cpp **** }
 1321              		.loc 1 472 0
 1322 0006 0028     		cmp	r0, #0
 1323 0008 CCBF     		ite	gt
 1324 000a 0020     		movgt	r0, #0
 1325 000c 0120     		movle	r0, #1
 1326 000e 08BD     		pop	{r3, pc}
 1327              		.cfi_endproc
 1328              	.LFE102:
 1330              		.section	.text._ZNK6StringgeERKS_,"ax",%progbits
 1331              		.align	1
 1332              		.global	_ZNK6StringgeERKS_
 1333              		.thumb
 1334              		.thumb_func
 1336              	_ZNK6StringgeERKS_:
 1337              	.LFB103:
 473:../../cores/mapleMX/WString.cpp **** 
 474:../../cores/mapleMX/WString.cpp **** unsigned char String::operator>=(const String &rhs) const
 475:../../cores/mapleMX/WString.cpp **** {
 1338              		.loc 1 475 0
 1339              		.cfi_startproc
 1340              		@ args = 0, pretend = 0, frame = 0
 1341              		@ frame_needed = 0, uses_anonymous_args = 0
 1342              	.LVL122:
 1343 0000 08B5     		push	{r3, lr}
 1344              		.cfi_def_cfa_offset 8
ARM GAS  /var/folders/19/rz7506jh8xn7x1006s6s574h0000gn/T//ccPIz347.s 			page 34


 1345              		.cfi_offset 3, -8
 1346              		.cfi_offset 14, -4
 476:../../cores/mapleMX/WString.cpp **** 	return compareTo(rhs) >= 0;
 1347              		.loc 1 476 0
 1348 0002 FFF7FEFF 		bl	_ZNK6String9compareToERKS_
 1349              	.LVL123:
 477:../../cores/mapleMX/WString.cpp **** }
 1350              		.loc 1 477 0
 1351 0006 C043     		mvns	r0, r0
 1352 0008 C00F     		lsrs	r0, r0, #31
 1353 000a 08BD     		pop	{r3, pc}
 1354              		.cfi_endproc
 1355              	.LFE103:
 1357              		.section	.text._ZNK6String16equalsIgnoreCaseERKS_,"ax",%progbits
 1358              		.align	1
 1359              		.global	_ZNK6String16equalsIgnoreCaseERKS_
 1360              		.thumb
 1361              		.thumb_func
 1363              	_ZNK6String16equalsIgnoreCaseERKS_:
 1364              	.LFB104:
 478:../../cores/mapleMX/WString.cpp **** 
 479:../../cores/mapleMX/WString.cpp **** unsigned char String::equalsIgnoreCase( const String &s2 ) const
 480:../../cores/mapleMX/WString.cpp **** {
 1365              		.loc 1 480 0
 1366              		.cfi_startproc
 1367              		@ args = 0, pretend = 0, frame = 0
 1368              		@ frame_needed = 0, uses_anonymous_args = 0
 1369              	.LVL124:
 481:../../cores/mapleMX/WString.cpp **** 	if (this == &s2) return 1;
 1370              		.loc 1 481 0
 1371 0000 8842     		cmp	r0, r1
 480:../../cores/mapleMX/WString.cpp **** 	if (this == &s2) return 1;
 1372              		.loc 1 480 0
 1373 0002 70B5     		push	{r4, r5, r6, lr}
 1374              		.cfi_def_cfa_offset 16
 1375              		.cfi_offset 4, -16
 1376              		.cfi_offset 5, -12
 1377              		.cfi_offset 6, -8
 1378              		.cfi_offset 14, -4
 1379              		.loc 1 481 0
 1380 0004 15D0     		beq	.L86
 482:../../cores/mapleMX/WString.cpp **** 	if (len != s2.len) return 0;
 1381              		.loc 1 482 0
 1382 0006 8368     		ldr	r3, [r0, #8]
 1383 0008 8A68     		ldr	r2, [r1, #8]
 1384 000a 9342     		cmp	r3, r2
 1385 000c 0FD1     		bne	.L84
 483:../../cores/mapleMX/WString.cpp **** 	if (len == 0) return 1;
 1386              		.loc 1 483 0
 1387 000e 83B1     		cbz	r3, .L86
 1388              	.LVL125:
 1389 0010 0468     		ldr	r4, [r0]
 484:../../cores/mapleMX/WString.cpp **** 	const char *p1 = buffer;
 485:../../cores/mapleMX/WString.cpp **** 	const char *p2 = s2.buffer;
 1390              		.loc 1 485 0
 1391 0012 0D68     		ldr	r5, [r1]
 1392              	.LVL126:
ARM GAS  /var/folders/19/rz7506jh8xn7x1006s6s574h0000gn/T//ccPIz347.s 			page 35


 1393 0014 013C     		subs	r4, r4, #1
 1394              	.LVL127:
 1395              	.L82:
 486:../../cores/mapleMX/WString.cpp **** 	while (*p1) {
 1396              		.loc 1 486 0
 1397 0016 14F8010F 		ldrb	r0, [r4, #1]!	@ zero_extendqisi2
 1398              	.LVL128:
 1399 001a 50B1     		cbz	r0, .L86
 1400              	.LVL129:
 487:../../cores/mapleMX/WString.cpp **** 		if (tolower(*p1++) != tolower(*p2++)) return 0;
 1401              		.loc 1 487 0
 1402 001c FFF7FEFF 		bl	tolower
 1403              	.LVL130:
 1404 0020 0646     		mov	r6, r0
 1405 0022 15F8010B 		ldrb	r0, [r5], #1	@ zero_extendqisi2
 1406              	.LVL131:
 1407 0026 FFF7FEFF 		bl	tolower
 1408              	.LVL132:
 1409 002a 8642     		cmp	r6, r0
 1410 002c F3D0     		beq	.L82
 1411              	.LVL133:
 1412              	.L84:
 482:../../cores/mapleMX/WString.cpp **** 	if (len == 0) return 1;
 1413              		.loc 1 482 0
 1414 002e 0020     		movs	r0, #0
 1415 0030 70BD     		pop	{r4, r5, r6, pc}
 1416              	.L86:
 481:../../cores/mapleMX/WString.cpp **** 	if (len != s2.len) return 0;
 1417              		.loc 1 481 0
 1418 0032 0120     		movs	r0, #1
 488:../../cores/mapleMX/WString.cpp **** 	} 
 489:../../cores/mapleMX/WString.cpp **** 	return 1;
 490:../../cores/mapleMX/WString.cpp **** }
 1419              		.loc 1 490 0
 1420 0034 70BD     		pop	{r4, r5, r6, pc}
 1421              		.cfi_endproc
 1422              	.LFE104:
 1424              		.section	.text._ZNK6String10startsWithERKS_j,"ax",%progbits
 1425              		.align	1
 1426              		.global	_ZNK6String10startsWithERKS_j
 1427              		.thumb
 1428              		.thumb_func
 1430              	_ZNK6String10startsWithERKS_j:
 1431              	.LFB106:
 491:../../cores/mapleMX/WString.cpp **** 
 492:../../cores/mapleMX/WString.cpp **** unsigned char String::startsWith( const String &s2 ) const
 493:../../cores/mapleMX/WString.cpp **** {
 494:../../cores/mapleMX/WString.cpp **** 	if (len < s2.len) return 0;
 495:../../cores/mapleMX/WString.cpp **** 	return startsWith(s2, 0);
 496:../../cores/mapleMX/WString.cpp **** }
 497:../../cores/mapleMX/WString.cpp **** 
 498:../../cores/mapleMX/WString.cpp **** unsigned char String::startsWith( const String &s2, unsigned int offset ) const
 499:../../cores/mapleMX/WString.cpp **** {
 1432              		.loc 1 499 0
 1433              		.cfi_startproc
 1434              		@ args = 0, pretend = 0, frame = 0
 1435              		@ frame_needed = 0, uses_anonymous_args = 0
ARM GAS  /var/folders/19/rz7506jh8xn7x1006s6s574h0000gn/T//ccPIz347.s 			page 36


 1436              	.LVL134:
 1437 0000 10B5     		push	{r4, lr}
 1438              		.cfi_def_cfa_offset 8
 1439              		.cfi_offset 4, -8
 1440              		.cfi_offset 14, -4
 500:../../cores/mapleMX/WString.cpp **** 	if (offset > len - s2.len || !buffer || !s2.buffer) return 0;
 1441              		.loc 1 500 0
 1442 0002 8368     		ldr	r3, [r0, #8]
 499:../../cores/mapleMX/WString.cpp **** 	if (offset > len - s2.len || !buffer || !s2.buffer) return 0;
 1443              		.loc 1 499 0
 1444 0004 1446     		mov	r4, r2
 1445              		.loc 1 500 0
 1446 0006 8A68     		ldr	r2, [r1, #8]
 1447              	.LVL135:
 1448 0008 9B1A     		subs	r3, r3, r2
 1449 000a A342     		cmp	r3, r4
 1450 000c 0AD3     		bcc	.L90
 1451              		.loc 1 500 0 is_stmt 0 discriminator 2
 1452 000e 0068     		ldr	r0, [r0]
 1453              	.LVL136:
 1454 0010 58B1     		cbz	r0, .L89
 1455              		.loc 1 500 0 discriminator 4
 1456 0012 0968     		ldr	r1, [r1]
 1457              	.LVL137:
 1458 0014 41B1     		cbz	r1, .L92
 501:../../cores/mapleMX/WString.cpp **** 	return strncmp( &buffer[offset], s2.buffer, s2.len ) == 0;
 1459              		.loc 1 501 0 is_stmt 1
 1460 0016 2044     		add	r0, r0, r4
 1461 0018 FFF7FEFF 		bl	strncmp
 1462              	.LVL138:
 1463 001c B0FA80F0 		clz	r0, r0
 1464 0020 4009     		lsrs	r0, r0, #5
 1465 0022 10BD     		pop	{r4, pc}
 1466              	.LVL139:
 1467              	.L90:
 500:../../cores/mapleMX/WString.cpp **** 	if (offset > len - s2.len || !buffer || !s2.buffer) return 0;
 1468              		.loc 1 500 0
 1469 0024 0020     		movs	r0, #0
 1470              	.LVL140:
 1471 0026 10BD     		pop	{r4, pc}
 1472              	.LVL141:
 1473              	.L92:
 1474 0028 0846     		mov	r0, r1
 1475              	.L89:
 502:../../cores/mapleMX/WString.cpp **** }
 1476              		.loc 1 502 0
 1477 002a 10BD     		pop	{r4, pc}
 1478              		.cfi_endproc
 1479              	.LFE106:
 1481              		.section	.text._ZNK6String10startsWithERKS_,"ax",%progbits
 1482              		.align	1
 1483              		.global	_ZNK6String10startsWithERKS_
 1484              		.thumb
 1485              		.thumb_func
 1487              	_ZNK6String10startsWithERKS_:
 1488              	.LFB105:
 493:../../cores/mapleMX/WString.cpp **** 	if (len < s2.len) return 0;
ARM GAS  /var/folders/19/rz7506jh8xn7x1006s6s574h0000gn/T//ccPIz347.s 			page 37


 1489              		.loc 1 493 0
 1490              		.cfi_startproc
 1491              		@ args = 0, pretend = 0, frame = 0
 1492              		@ frame_needed = 0, uses_anonymous_args = 0
 1493              		@ link register save eliminated.
 1494              	.LVL142:
 494:../../cores/mapleMX/WString.cpp **** 	return startsWith(s2, 0);
 1495              		.loc 1 494 0
 1496 0000 8268     		ldr	r2, [r0, #8]
 1497 0002 8B68     		ldr	r3, [r1, #8]
 1498 0004 9A42     		cmp	r2, r3
 1499 0006 02D3     		bcc	.L94
 495:../../cores/mapleMX/WString.cpp **** }
 1500              		.loc 1 495 0
 1501 0008 0022     		movs	r2, #0
 1502 000a FFF7FEBF 		b	_ZNK6String10startsWithERKS_j
 1503              	.LVL143:
 1504              	.L94:
 496:../../cores/mapleMX/WString.cpp **** 
 1505              		.loc 1 496 0
 1506 000e 0020     		movs	r0, #0
 1507              	.LVL144:
 1508 0010 7047     		bx	lr
 1509              		.cfi_endproc
 1510              	.LFE105:
 1512              		.section	.text._ZNK6String8endsWithERKS_,"ax",%progbits
 1513              		.align	1
 1514              		.global	_ZNK6String8endsWithERKS_
 1515              		.thumb
 1516              		.thumb_func
 1518              	_ZNK6String8endsWithERKS_:
 1519              	.LFB107:
 503:../../cores/mapleMX/WString.cpp **** 
 504:../../cores/mapleMX/WString.cpp **** unsigned char String::endsWith( const String &s2 ) const
 505:../../cores/mapleMX/WString.cpp **** {
 1520              		.loc 1 505 0
 1521              		.cfi_startproc
 1522              		@ args = 0, pretend = 0, frame = 0
 1523              		@ frame_needed = 0, uses_anonymous_args = 0
 1524              	.LVL145:
 1525 0000 08B5     		push	{r3, lr}
 1526              		.cfi_def_cfa_offset 8
 1527              		.cfi_offset 3, -8
 1528              		.cfi_offset 14, -4
 506:../../cores/mapleMX/WString.cpp **** 	if ( len < s2.len || !buffer || !s2.buffer) return 0;
 1529              		.loc 1 506 0
 1530 0002 8A68     		ldr	r2, [r1, #8]
 1531 0004 8368     		ldr	r3, [r0, #8]
 1532 0006 9342     		cmp	r3, r2
 1533 0008 0BD3     		bcc	.L97
 1534              		.loc 1 506 0 is_stmt 0 discriminator 2
 1535 000a 0068     		ldr	r0, [r0]
 1536              	.LVL146:
 1537 000c 60B1     		cbz	r0, .L96
 1538              		.loc 1 506 0 discriminator 4
 1539 000e 0968     		ldr	r1, [r1]
 1540              	.LVL147:
ARM GAS  /var/folders/19/rz7506jh8xn7x1006s6s574h0000gn/T//ccPIz347.s 			page 38


 1541 0010 49B1     		cbz	r1, .L99
 507:../../cores/mapleMX/WString.cpp **** 	return strcmp(&buffer[len - s2.len], s2.buffer) == 0;
 1542              		.loc 1 507 0 is_stmt 1
 1543 0012 9B1A     		subs	r3, r3, r2
 1544 0014 1844     		add	r0, r0, r3
 1545 0016 FFF7FEFF 		bl	strcmp
 1546              	.LVL148:
 1547 001a B0FA80F0 		clz	r0, r0
 1548 001e 4009     		lsrs	r0, r0, #5
 1549 0020 08BD     		pop	{r3, pc}
 1550              	.LVL149:
 1551              	.L97:
 506:../../cores/mapleMX/WString.cpp **** 	if ( len < s2.len || !buffer || !s2.buffer) return 0;
 1552              		.loc 1 506 0
 1553 0022 0020     		movs	r0, #0
 1554              	.LVL150:
 1555 0024 08BD     		pop	{r3, pc}
 1556              	.LVL151:
 1557              	.L99:
 1558 0026 0846     		mov	r0, r1
 1559              	.L96:
 508:../../cores/mapleMX/WString.cpp **** }
 1560              		.loc 1 508 0
 1561 0028 08BD     		pop	{r3, pc}
 1562              		.cfi_endproc
 1563              	.LFE107:
 1565              		.section	.text._ZN6String9setCharAtEjc,"ax",%progbits
 1566              		.align	1
 1567              		.global	_ZN6String9setCharAtEjc
 1568              		.thumb
 1569              		.thumb_func
 1571              	_ZN6String9setCharAtEjc:
 1572              	.LFB109:
 509:../../cores/mapleMX/WString.cpp **** 
 510:../../cores/mapleMX/WString.cpp **** /*********************************************/
 511:../../cores/mapleMX/WString.cpp **** /*  Character Access                         */
 512:../../cores/mapleMX/WString.cpp **** /*********************************************/
 513:../../cores/mapleMX/WString.cpp **** 
 514:../../cores/mapleMX/WString.cpp **** char String::charAt(unsigned int loc) const
 515:../../cores/mapleMX/WString.cpp **** {
 516:../../cores/mapleMX/WString.cpp **** 	return operator[](loc);
 517:../../cores/mapleMX/WString.cpp **** }
 518:../../cores/mapleMX/WString.cpp **** 
 519:../../cores/mapleMX/WString.cpp **** void String::setCharAt(unsigned int loc, char c) 
 520:../../cores/mapleMX/WString.cpp **** {
 1573              		.loc 1 520 0
 1574              		.cfi_startproc
 1575              		@ args = 0, pretend = 0, frame = 0
 1576              		@ frame_needed = 0, uses_anonymous_args = 0
 1577              		@ link register save eliminated.
 1578              	.LVL152:
 521:../../cores/mapleMX/WString.cpp **** 	if (loc < len) buffer[loc] = c;
 1579              		.loc 1 521 0
 1580 0000 8368     		ldr	r3, [r0, #8]
 1581 0002 8B42     		cmp	r3, r1
 1582 0004 84BF     		itt	hi
 1583 0006 0368     		ldrhi	r3, [r0]
ARM GAS  /var/folders/19/rz7506jh8xn7x1006s6s574h0000gn/T//ccPIz347.s 			page 39


 1584 0008 5A54     		strbhi	r2, [r3, r1]
 1585 000a 7047     		bx	lr
 1586              		.cfi_endproc
 1587              	.LFE109:
 1589              		.section	.text._ZN6StringixEj,"ax",%progbits
 1590              		.align	1
 1591              		.global	_ZN6StringixEj
 1592              		.thumb
 1593              		.thumb_func
 1595              	_ZN6StringixEj:
 1596              	.LFB110:
 522:../../cores/mapleMX/WString.cpp **** }
 523:../../cores/mapleMX/WString.cpp **** 
 524:../../cores/mapleMX/WString.cpp **** char & String::operator[](unsigned int index)
 525:../../cores/mapleMX/WString.cpp **** {
 1597              		.loc 1 525 0
 1598              		.cfi_startproc
 1599              		@ args = 0, pretend = 0, frame = 0
 1600              		@ frame_needed = 0, uses_anonymous_args = 0
 1601              		@ link register save eliminated.
 1602              	.LVL153:
 526:../../cores/mapleMX/WString.cpp **** 	static char dummy_writable_char;
 527:../../cores/mapleMX/WString.cpp **** 	if (index >= len || !buffer) {
 1603              		.loc 1 527 0
 1604 0000 8368     		ldr	r3, [r0, #8]
 1605 0002 8B42     		cmp	r3, r1
 1606 0004 01D9     		bls	.L103
 1607              		.loc 1 527 0 is_stmt 0 discriminator 1
 1608 0006 0068     		ldr	r0, [r0]
 1609              	.LVL154:
 1610 0008 18B9     		cbnz	r0, .L104
 1611              	.L103:
 528:../../cores/mapleMX/WString.cpp **** 		dummy_writable_char = 0;
 1612              		.loc 1 528 0 is_stmt 1
 1613 000a 0348     		ldr	r0, .L106
 1614 000c 0023     		movs	r3, #0
 1615 000e 0370     		strb	r3, [r0]
 529:../../cores/mapleMX/WString.cpp **** 		return dummy_writable_char;
 1616              		.loc 1 529 0
 1617 0010 7047     		bx	lr
 1618              	.L104:
 530:../../cores/mapleMX/WString.cpp **** 	}
 531:../../cores/mapleMX/WString.cpp **** 	return buffer[index];
 1619              		.loc 1 531 0
 1620 0012 0844     		add	r0, r0, r1
 532:../../cores/mapleMX/WString.cpp **** }
 1621              		.loc 1 532 0
 1622 0014 7047     		bx	lr
 1623              	.L107:
 1624 0016 00BF     		.align	2
 1625              	.L106:
 1626 0018 00000000 		.word	.LANCHOR0
 1627              		.cfi_endproc
 1628              	.LFE110:
 1630              		.section	.text._ZNK6StringixEj,"ax",%progbits
 1631              		.align	1
 1632              		.global	_ZNK6StringixEj
ARM GAS  /var/folders/19/rz7506jh8xn7x1006s6s574h0000gn/T//ccPIz347.s 			page 40


 1633              		.thumb
 1634              		.thumb_func
 1636              	_ZNK6StringixEj:
 1637              	.LFB111:
 533:../../cores/mapleMX/WString.cpp **** 
 534:../../cores/mapleMX/WString.cpp **** char String::operator[]( unsigned int index ) const
 535:../../cores/mapleMX/WString.cpp **** {
 1638              		.loc 1 535 0
 1639              		.cfi_startproc
 1640              		@ args = 0, pretend = 0, frame = 0
 1641              		@ frame_needed = 0, uses_anonymous_args = 0
 1642              		@ link register save eliminated.
 1643              	.LVL155:
 536:../../cores/mapleMX/WString.cpp **** 	if (index >= len || !buffer) return 0;
 1644              		.loc 1 536 0
 1645 0000 8368     		ldr	r3, [r0, #8]
 1646 0002 8B42     		cmp	r3, r1
 1647 0004 03D9     		bls	.L110
 1648              	.LVL156:
 1649              	.LBB108:
 1650              	.LBB109:
 1651 0006 0068     		ldr	r0, [r0]
 1652              	.LVL157:
 1653 0008 10B1     		cbz	r0, .L109
 537:../../cores/mapleMX/WString.cpp **** 	return buffer[index];
 1654              		.loc 1 537 0
 1655 000a 405C     		ldrb	r0, [r0, r1]	@ zero_extendqisi2
 1656 000c 7047     		bx	lr
 1657              	.LVL158:
 1658              	.L110:
 1659              	.LBE109:
 1660              	.LBE108:
 536:../../cores/mapleMX/WString.cpp **** 	if (index >= len || !buffer) return 0;
 1661              		.loc 1 536 0
 1662 000e 0020     		movs	r0, #0
 1663              	.LVL159:
 1664              	.L109:
 538:../../cores/mapleMX/WString.cpp **** }
 1665              		.loc 1 538 0
 1666 0010 7047     		bx	lr
 1667              		.cfi_endproc
 1668              	.LFE111:
 1670              		.section	.text._ZNK6String6charAtEj,"ax",%progbits
 1671              		.align	1
 1672              		.global	_ZNK6String6charAtEj
 1673              		.thumb
 1674              		.thumb_func
 1676              	_ZNK6String6charAtEj:
 1677              	.LFB108:
 515:../../cores/mapleMX/WString.cpp **** 	return operator[](loc);
 1678              		.loc 1 515 0
 1679              		.cfi_startproc
 1680              		@ args = 0, pretend = 0, frame = 0
 1681              		@ frame_needed = 0, uses_anonymous_args = 0
 1682              		@ link register save eliminated.
 1683              	.LVL160:
 516:../../cores/mapleMX/WString.cpp **** }
ARM GAS  /var/folders/19/rz7506jh8xn7x1006s6s574h0000gn/T//ccPIz347.s 			page 41


 1684              		.loc 1 516 0
 1685 0000 FFF7FEBF 		b	_ZNK6StringixEj
 1686              	.LVL161:
 1687              		.cfi_endproc
 1688              	.LFE108:
 1690              		.section	.text._ZNK6String8getBytesEPhjj,"ax",%progbits
 1691              		.align	1
 1692              		.global	_ZNK6String8getBytesEPhjj
 1693              		.thumb
 1694              		.thumb_func
 1696              	_ZNK6String8getBytesEPhjj:
 1697              	.LFB112:
 539:../../cores/mapleMX/WString.cpp **** 
 540:../../cores/mapleMX/WString.cpp **** void String::getBytes(unsigned char *buf, unsigned int bufsize, unsigned int index) const
 541:../../cores/mapleMX/WString.cpp **** {
 1698              		.loc 1 541 0
 1699              		.cfi_startproc
 1700              		@ args = 0, pretend = 0, frame = 0
 1701              		@ frame_needed = 0, uses_anonymous_args = 0
 1702              	.LVL162:
 1703 0000 70B5     		push	{r4, r5, r6, lr}
 1704              		.cfi_def_cfa_offset 16
 1705              		.cfi_offset 4, -16
 1706              		.cfi_offset 5, -12
 1707              		.cfi_offset 6, -8
 1708              		.cfi_offset 14, -4
 1709              		.loc 1 541 0
 1710 0002 0E46     		mov	r6, r1
 542:../../cores/mapleMX/WString.cpp **** 	if (!bufsize || !buf) return;
 1711              		.loc 1 542 0
 1712 0004 9AB1     		cbz	r2, .L113
 1713              		.loc 1 542 0 is_stmt 0 discriminator 1
 1714 0006 91B1     		cbz	r1, .L113
 543:../../cores/mapleMX/WString.cpp **** 	if (index >= len) {
 1715              		.loc 1 543 0 is_stmt 1
 1716 0008 8568     		ldr	r5, [r0, #8]
 1717 000a 9D42     		cmp	r5, r3
 1718 000c 02D8     		bhi	.L115
 544:../../cores/mapleMX/WString.cpp **** 		buf[0] = 0;
 1719              		.loc 1 544 0
 1720 000e 0023     		movs	r3, #0
 1721              	.LVL163:
 1722 0010 0B70     		strb	r3, [r1]
 545:../../cores/mapleMX/WString.cpp **** 		return;
 1723              		.loc 1 545 0
 1724 0012 70BD     		pop	{r4, r5, r6, pc}
 1725              	.LVL164:
 1726              	.L115:
 546:../../cores/mapleMX/WString.cpp **** 	}
 547:../../cores/mapleMX/WString.cpp **** 	unsigned int n = bufsize - 1;
 1727              		.loc 1 547 0
 1728 0014 541E     		subs	r4, r2, #1
 1729              	.LVL165:
 548:../../cores/mapleMX/WString.cpp **** 	if (n > len - index) n = len - index;
 1730              		.loc 1 548 0
 1731 0016 ED1A     		subs	r5, r5, r3
 549:../../cores/mapleMX/WString.cpp **** 	strncpy((char *)buf, buffer + index, n);
ARM GAS  /var/folders/19/rz7506jh8xn7x1006s6s574h0000gn/T//ccPIz347.s 			page 42


 1732              		.loc 1 549 0
 1733 0018 0168     		ldr	r1, [r0]
 1734              	.LVL166:
 1735 001a AC42     		cmp	r4, r5
 1736 001c 28BF     		it	cs
 1737 001e 2C46     		movcs	r4, r5
 1738              	.LVL167:
 1739 0020 1944     		add	r1, r1, r3
 1740 0022 2246     		mov	r2, r4
 1741              	.LVL168:
 1742 0024 3046     		mov	r0, r6
 1743              	.LVL169:
 1744 0026 FFF7FEFF 		bl	strncpy
 1745              	.LVL170:
 550:../../cores/mapleMX/WString.cpp **** 	buf[n] = 0;
 1746              		.loc 1 550 0
 1747 002a 0023     		movs	r3, #0
 1748 002c 3355     		strb	r3, [r6, r4]
 1749              	.LVL171:
 1750              	.L113:
 1751 002e 70BD     		pop	{r4, r5, r6, pc}
 1752              		.cfi_endproc
 1753              	.LFE112:
 1755              		.section	.text._ZNK6String7indexOfEcj,"ax",%progbits
 1756              		.align	1
 1757              		.global	_ZNK6String7indexOfEcj
 1758              		.thumb
 1759              		.thumb_func
 1761              	_ZNK6String7indexOfEcj:
 1762              	.LFB114:
 551:../../cores/mapleMX/WString.cpp **** }
 552:../../cores/mapleMX/WString.cpp **** 
 553:../../cores/mapleMX/WString.cpp **** /*********************************************/
 554:../../cores/mapleMX/WString.cpp **** /*  Search                                   */
 555:../../cores/mapleMX/WString.cpp **** /*********************************************/
 556:../../cores/mapleMX/WString.cpp **** 
 557:../../cores/mapleMX/WString.cpp **** int String::indexOf(char c) const
 558:../../cores/mapleMX/WString.cpp **** {
 559:../../cores/mapleMX/WString.cpp **** 	return indexOf(c, 0);
 560:../../cores/mapleMX/WString.cpp **** }
 561:../../cores/mapleMX/WString.cpp **** 
 562:../../cores/mapleMX/WString.cpp **** int String::indexOf( char ch, unsigned int fromIndex ) const
 563:../../cores/mapleMX/WString.cpp **** {
 1763              		.loc 1 563 0
 1764              		.cfi_startproc
 1765              		@ args = 0, pretend = 0, frame = 0
 1766              		@ frame_needed = 0, uses_anonymous_args = 0
 1767              	.LVL172:
 564:../../cores/mapleMX/WString.cpp **** 	if (fromIndex >= len) return -1;
 1768              		.loc 1 564 0
 1769 0000 8368     		ldr	r3, [r0, #8]
 1770 0002 9342     		cmp	r3, r2
 563:../../cores/mapleMX/WString.cpp **** 	if (fromIndex >= len) return -1;
 1771              		.loc 1 563 0
 1772 0004 10B5     		push	{r4, lr}
 1773              		.cfi_def_cfa_offset 8
 1774              		.cfi_offset 4, -8
ARM GAS  /var/folders/19/rz7506jh8xn7x1006s6s574h0000gn/T//ccPIz347.s 			page 43


 1775              		.cfi_offset 14, -4
 1776              		.loc 1 564 0
 1777 0006 06D9     		bls	.L125
 565:../../cores/mapleMX/WString.cpp **** 	const char* temp = strchr(buffer + fromIndex, ch);
 1778              		.loc 1 565 0
 1779 0008 0468     		ldr	r4, [r0]
 1780 000a A018     		adds	r0, r4, r2
 1781              	.LVL173:
 1782 000c FFF7FEFF 		bl	strchr
 1783              	.LVL174:
 566:../../cores/mapleMX/WString.cpp **** 	if (temp == NULL) return -1;
 1784              		.loc 1 566 0
 1785 0010 08B1     		cbz	r0, .L125
 567:../../cores/mapleMX/WString.cpp **** 	return temp - buffer;
 1786              		.loc 1 567 0
 1787 0012 001B     		subs	r0, r0, r4
 1788              	.LVL175:
 1789 0014 10BD     		pop	{r4, pc}
 1790              	.L125:
 564:../../cores/mapleMX/WString.cpp **** 	const char* temp = strchr(buffer + fromIndex, ch);
 1791              		.loc 1 564 0
 1792 0016 4FF0FF30 		mov	r0, #-1
 568:../../cores/mapleMX/WString.cpp **** }
 1793              		.loc 1 568 0
 1794 001a 10BD     		pop	{r4, pc}
 1795              		.cfi_endproc
 1796              	.LFE114:
 1798              		.section	.text._ZNK6String7indexOfEc,"ax",%progbits
 1799              		.align	1
 1800              		.global	_ZNK6String7indexOfEc
 1801              		.thumb
 1802              		.thumb_func
 1804              	_ZNK6String7indexOfEc:
 1805              	.LFB113:
 558:../../cores/mapleMX/WString.cpp **** 	return indexOf(c, 0);
 1806              		.loc 1 558 0
 1807              		.cfi_startproc
 1808              		@ args = 0, pretend = 0, frame = 0
 1809              		@ frame_needed = 0, uses_anonymous_args = 0
 1810              		@ link register save eliminated.
 1811              	.LVL176:
 559:../../cores/mapleMX/WString.cpp **** }
 1812              		.loc 1 559 0
 1813 0000 0022     		movs	r2, #0
 1814 0002 FFF7FEBF 		b	_ZNK6String7indexOfEcj
 1815              	.LVL177:
 1816              		.cfi_endproc
 1817              	.LFE113:
 1819              		.section	.text._ZNK6String7indexOfERKS_j,"ax",%progbits
 1820              		.align	1
 1821              		.global	_ZNK6String7indexOfERKS_j
 1822              		.thumb
 1823              		.thumb_func
 1825              	_ZNK6String7indexOfERKS_j:
 1826              	.LFB116:
 569:../../cores/mapleMX/WString.cpp **** 
 570:../../cores/mapleMX/WString.cpp **** int String::indexOf(const String &s2) const
ARM GAS  /var/folders/19/rz7506jh8xn7x1006s6s574h0000gn/T//ccPIz347.s 			page 44


 571:../../cores/mapleMX/WString.cpp **** {
 572:../../cores/mapleMX/WString.cpp **** 	return indexOf(s2, 0);
 573:../../cores/mapleMX/WString.cpp **** }
 574:../../cores/mapleMX/WString.cpp **** 
 575:../../cores/mapleMX/WString.cpp **** int String::indexOf(const String &s2, unsigned int fromIndex) const
 576:../../cores/mapleMX/WString.cpp **** {
 1827              		.loc 1 576 0
 1828              		.cfi_startproc
 1829              		@ args = 0, pretend = 0, frame = 0
 1830              		@ frame_needed = 0, uses_anonymous_args = 0
 1831              	.LVL178:
 577:../../cores/mapleMX/WString.cpp **** 	if (fromIndex >= len) return -1;
 1832              		.loc 1 577 0
 1833 0000 8368     		ldr	r3, [r0, #8]
 1834 0002 9342     		cmp	r3, r2
 576:../../cores/mapleMX/WString.cpp **** 	if (fromIndex >= len) return -1;
 1835              		.loc 1 576 0
 1836 0004 10B5     		push	{r4, lr}
 1837              		.cfi_def_cfa_offset 8
 1838              		.cfi_offset 4, -8
 1839              		.cfi_offset 14, -4
 1840              		.loc 1 577 0
 1841 0006 07D9     		bls	.L130
 578:../../cores/mapleMX/WString.cpp **** 	const char *found = strstr(buffer + fromIndex, s2.buffer);
 1842              		.loc 1 578 0
 1843 0008 0468     		ldr	r4, [r0]
 1844 000a 0968     		ldr	r1, [r1]
 1845              	.LVL179:
 1846 000c A018     		adds	r0, r4, r2
 1847              	.LVL180:
 1848 000e FFF7FEFF 		bl	strstr
 1849              	.LVL181:
 579:../../cores/mapleMX/WString.cpp **** 	if (found == NULL) return -1;
 1850              		.loc 1 579 0
 1851 0012 08B1     		cbz	r0, .L130
 580:../../cores/mapleMX/WString.cpp **** 	return found - buffer;
 1852              		.loc 1 580 0
 1853 0014 001B     		subs	r0, r0, r4
 1854              	.LVL182:
 1855 0016 10BD     		pop	{r4, pc}
 1856              	.L130:
 577:../../cores/mapleMX/WString.cpp **** 	const char *found = strstr(buffer + fromIndex, s2.buffer);
 1857              		.loc 1 577 0
 1858 0018 4FF0FF30 		mov	r0, #-1
 581:../../cores/mapleMX/WString.cpp **** }
 1859              		.loc 1 581 0
 1860 001c 10BD     		pop	{r4, pc}
 1861              		.cfi_endproc
 1862              	.LFE116:
 1864              		.section	.text._ZNK6String7indexOfERKS_,"ax",%progbits
 1865              		.align	1
 1866              		.global	_ZNK6String7indexOfERKS_
 1867              		.thumb
 1868              		.thumb_func
 1870              	_ZNK6String7indexOfERKS_:
 1871              	.LFB115:
 571:../../cores/mapleMX/WString.cpp **** 	return indexOf(s2, 0);
ARM GAS  /var/folders/19/rz7506jh8xn7x1006s6s574h0000gn/T//ccPIz347.s 			page 45


 1872              		.loc 1 571 0
 1873              		.cfi_startproc
 1874              		@ args = 0, pretend = 0, frame = 0
 1875              		@ frame_needed = 0, uses_anonymous_args = 0
 1876              		@ link register save eliminated.
 1877              	.LVL183:
 572:../../cores/mapleMX/WString.cpp **** }
 1878              		.loc 1 572 0
 1879 0000 0022     		movs	r2, #0
 1880 0002 FFF7FEBF 		b	_ZNK6String7indexOfERKS_j
 1881              	.LVL184:
 1882              		.cfi_endproc
 1883              	.LFE115:
 1885              		.section	.text._ZNK6String11lastIndexOfEcj,"ax",%progbits
 1886              		.align	1
 1887              		.global	_ZNK6String11lastIndexOfEcj
 1888              		.thumb
 1889              		.thumb_func
 1891              	_ZNK6String11lastIndexOfEcj:
 1892              	.LFB118:
 582:../../cores/mapleMX/WString.cpp **** 
 583:../../cores/mapleMX/WString.cpp **** int String::lastIndexOf( char theChar ) const
 584:../../cores/mapleMX/WString.cpp **** {
 585:../../cores/mapleMX/WString.cpp **** 	return lastIndexOf(theChar, len - 1);
 586:../../cores/mapleMX/WString.cpp **** }
 587:../../cores/mapleMX/WString.cpp **** 
 588:../../cores/mapleMX/WString.cpp **** int String::lastIndexOf(char ch, unsigned int fromIndex) const
 589:../../cores/mapleMX/WString.cpp **** {
 1893              		.loc 1 589 0
 1894              		.cfi_startproc
 1895              		@ args = 0, pretend = 0, frame = 0
 1896              		@ frame_needed = 0, uses_anonymous_args = 0
 1897              	.LVL185:
 1898 0000 F8B5     		push	{r3, r4, r5, r6, r7, lr}
 1899              		.cfi_def_cfa_offset 24
 1900              		.cfi_offset 3, -24
 1901              		.cfi_offset 4, -20
 1902              		.cfi_offset 5, -16
 1903              		.cfi_offset 6, -12
 1904              		.cfi_offset 7, -8
 1905              		.cfi_offset 14, -4
 590:../../cores/mapleMX/WString.cpp **** 	if (fromIndex >= len) return -1;
 1906              		.loc 1 590 0
 1907 0002 8368     		ldr	r3, [r0, #8]
 1908 0004 9342     		cmp	r3, r2
 589:../../cores/mapleMX/WString.cpp **** 	if (fromIndex >= len) return -1;
 1909              		.loc 1 589 0
 1910 0006 0546     		mov	r5, r0
 1911              		.loc 1 590 0
 1912 0008 02D8     		bhi	.L133
 1913              	.LVL186:
 1914              	.L135:
 1915 000a 4FF0FF30 		mov	r0, #-1
 1916 000e F8BD     		pop	{r3, r4, r5, r6, r7, pc}
 1917              	.LVL187:
 1918              	.L133:
 591:../../cores/mapleMX/WString.cpp **** 	char tempchar = buffer[fromIndex + 1];
ARM GAS  /var/folders/19/rz7506jh8xn7x1006s6s574h0000gn/T//ccPIz347.s 			page 46


 1919              		.loc 1 591 0
 1920 0010 0368     		ldr	r3, [r0]
 1921 0012 541C     		adds	r4, r2, #1
 592:../../cores/mapleMX/WString.cpp **** 	buffer[fromIndex + 1] = '\0';
 1922              		.loc 1 592 0
 1923 0014 0022     		movs	r2, #0
 1924              	.LVL188:
 591:../../cores/mapleMX/WString.cpp **** 	char tempchar = buffer[fromIndex + 1];
 1925              		.loc 1 591 0
 1926 0016 1F5D     		ldrb	r7, [r3, r4]	@ zero_extendqisi2
 1927              	.LVL189:
 1928              		.loc 1 592 0
 1929 0018 1A55     		strb	r2, [r3, r4]
 593:../../cores/mapleMX/WString.cpp **** 	char* temp = strrchr( buffer, ch );
 1930              		.loc 1 593 0
 1931 001a 0668     		ldr	r6, [r0]
 1932 001c 3046     		mov	r0, r6
 1933              	.LVL190:
 1934 001e FFF7FEFF 		bl	strrchr
 1935              	.LVL191:
 594:../../cores/mapleMX/WString.cpp **** 	buffer[fromIndex + 1] = tempchar;
 1936              		.loc 1 594 0
 1937 0022 3755     		strb	r7, [r6, r4]
 595:../../cores/mapleMX/WString.cpp **** 	if (temp == NULL) return -1;
 1938              		.loc 1 595 0
 1939 0024 0028     		cmp	r0, #0
 1940 0026 F0D0     		beq	.L135
 596:../../cores/mapleMX/WString.cpp **** 	return temp - buffer;
 1941              		.loc 1 596 0
 1942 0028 2B68     		ldr	r3, [r5]
 1943 002a C01A     		subs	r0, r0, r3
 1944              	.LVL192:
 597:../../cores/mapleMX/WString.cpp **** }
 1945              		.loc 1 597 0
 1946 002c F8BD     		pop	{r3, r4, r5, r6, r7, pc}
 1947              		.cfi_endproc
 1948              	.LFE118:
 1950              		.section	.text._ZNK6String11lastIndexOfEc,"ax",%progbits
 1951              		.align	1
 1952              		.global	_ZNK6String11lastIndexOfEc
 1953              		.thumb
 1954              		.thumb_func
 1956              	_ZNK6String11lastIndexOfEc:
 1957              	.LFB117:
 584:../../cores/mapleMX/WString.cpp **** 	return lastIndexOf(theChar, len - 1);
 1958              		.loc 1 584 0
 1959              		.cfi_startproc
 1960              		@ args = 0, pretend = 0, frame = 0
 1961              		@ frame_needed = 0, uses_anonymous_args = 0
 1962              		@ link register save eliminated.
 1963              	.LVL193:
 585:../../cores/mapleMX/WString.cpp **** }
 1964              		.loc 1 585 0
 1965 0000 8268     		ldr	r2, [r0, #8]
 1966 0002 013A     		subs	r2, r2, #1
 1967 0004 FFF7FEBF 		b	_ZNK6String11lastIndexOfEcj
 1968              	.LVL194:
ARM GAS  /var/folders/19/rz7506jh8xn7x1006s6s574h0000gn/T//ccPIz347.s 			page 47


 1969              		.cfi_endproc
 1970              	.LFE117:
 1972              		.section	.text._ZNK6String11lastIndexOfERKS_j,"ax",%progbits
 1973              		.align	1
 1974              		.global	_ZNK6String11lastIndexOfERKS_j
 1975              		.thumb
 1976              		.thumb_func
 1978              	_ZNK6String11lastIndexOfERKS_j:
 1979              	.LFB120:
 598:../../cores/mapleMX/WString.cpp **** 
 599:../../cores/mapleMX/WString.cpp **** int String::lastIndexOf(const String &s2) const
 600:../../cores/mapleMX/WString.cpp **** {
 601:../../cores/mapleMX/WString.cpp **** 	return lastIndexOf(s2, len - s2.len);
 602:../../cores/mapleMX/WString.cpp **** }
 603:../../cores/mapleMX/WString.cpp **** 
 604:../../cores/mapleMX/WString.cpp **** int String::lastIndexOf(const String &s2, unsigned int fromIndex) const
 605:../../cores/mapleMX/WString.cpp **** {
 1980              		.loc 1 605 0
 1981              		.cfi_startproc
 1982              		@ args = 0, pretend = 0, frame = 0
 1983              		@ frame_needed = 0, uses_anonymous_args = 0
 1984              	.LVL195:
 1985 0000 2DE9F041 		push	{r4, r5, r6, r7, r8, lr}
 1986              		.cfi_def_cfa_offset 24
 1987              		.cfi_offset 4, -24
 1988              		.cfi_offset 5, -20
 1989              		.cfi_offset 6, -16
 1990              		.cfi_offset 7, -12
 1991              		.cfi_offset 8, -8
 1992              		.cfi_offset 14, -4
 1993              		.loc 1 605 0
 1994 0004 1546     		mov	r5, r2
 606:../../cores/mapleMX/WString.cpp ****   	if (s2.len == 0 || len == 0 || s2.len > len) return -1;
 1995              		.loc 1 606 0
 1996 0006 8A68     		ldr	r2, [r1, #8]
 1997              	.LVL196:
 605:../../cores/mapleMX/WString.cpp ****   	if (s2.len == 0 || len == 0 || s2.len > len) return -1;
 1998              		.loc 1 605 0
 1999 0008 0F46     		mov	r7, r1
 2000              		.loc 1 606 0
 2001 000a CAB1     		cbz	r2, .L147
 2002              		.loc 1 606 0 is_stmt 0 discriminator 2
 2003 000c 8368     		ldr	r3, [r0, #8]
 2004 000e BBB1     		cbz	r3, .L147
 2005              		.loc 1 606 0 discriminator 4
 2006 0010 9A42     		cmp	r2, r3
 2007 0012 15D8     		bhi	.L147
 2008              	.LBB110:
 607:../../cores/mapleMX/WString.cpp **** 	if (fromIndex >= len) fromIndex = len - 1;
 608:../../cores/mapleMX/WString.cpp **** 	int found = -1;
 609:../../cores/mapleMX/WString.cpp **** 	for (char *p = buffer; p <= buffer + fromIndex; p++) {
 2009              		.loc 1 609 0 is_stmt 1
 2010 0014 0668     		ldr	r6, [r0]
 2011              	.LBE110:
 607:../../cores/mapleMX/WString.cpp **** 	if (fromIndex >= len) fromIndex = len - 1;
 2012              		.loc 1 607 0
 2013 0016 AB42     		cmp	r3, r5
ARM GAS  /var/folders/19/rz7506jh8xn7x1006s6s574h0000gn/T//ccPIz347.s 			page 48


 2014 0018 98BF     		it	ls
 2015 001a 03F1FF35 		addls	r5, r3, #-1
 2016              	.LVL197:
 2017              	.LBB111:
 2018              		.loc 1 609 0
 2019 001e 3046     		mov	r0, r6
 2020              	.LVL198:
 2021              	.LBE111:
 608:../../cores/mapleMX/WString.cpp **** 	for (char *p = buffer; p <= buffer + fromIndex; p++) {
 2022              		.loc 1 608 0
 2023 0020 4FF0FF34 		mov	r4, #-1
 2024              	.LBB112:
 2025              		.loc 1 609 0
 2026 0024 06EB0508 		add	r8, r6, r5
 2027              	.LVL199:
 2028              	.L144:
 2029              		.loc 1 609 0 is_stmt 0 discriminator 1
 2030 0028 4045     		cmp	r0, r8
 2031 002a 0DD8     		bhi	.L149
 610:../../cores/mapleMX/WString.cpp **** 		p = strstr(p, s2.buffer);
 2032              		.loc 1 610 0 is_stmt 1
 2033 002c 3968     		ldr	r1, [r7]
 2034 002e FFF7FEFF 		bl	strstr
 2035              	.LVL200:
 611:../../cores/mapleMX/WString.cpp **** 		if (!p) break;
 2036              		.loc 1 611 0
 2037 0032 48B1     		cbz	r0, .L149
 612:../../cores/mapleMX/WString.cpp **** 		if ((unsigned int)(p - buffer) <= fromIndex) found = p - buffer;
 2038              		.loc 1 612 0
 2039 0034 831B     		subs	r3, r0, r6
 2040 0036 9D42     		cmp	r5, r3
 2041 0038 28BF     		it	cs
 2042 003a 1C46     		movcs	r4, r3
 2043              	.LVL201:
 609:../../cores/mapleMX/WString.cpp **** 		p = strstr(p, s2.buffer);
 2044              		.loc 1 609 0
 2045 003c 0130     		adds	r0, r0, #1
 2046              	.LVL202:
 2047 003e F3E7     		b	.L144
 2048              	.LVL203:
 2049              	.L147:
 2050              	.LBE112:
 606:../../cores/mapleMX/WString.cpp **** 	if (fromIndex >= len) fromIndex = len - 1;
 2051              		.loc 1 606 0
 2052 0040 4FF0FF30 		mov	r0, #-1
 2053              	.LVL204:
 2054 0044 BDE8F081 		pop	{r4, r5, r6, r7, r8, pc}
 2055              	.LVL205:
 2056              	.L149:
 2057              	.LBB113:
 2058 0048 2046     		mov	r0, r4
 2059              	.LVL206:
 2060              	.LBE113:
 613:../../cores/mapleMX/WString.cpp **** 	}
 614:../../cores/mapleMX/WString.cpp **** 	return found;
 615:../../cores/mapleMX/WString.cpp **** }
 2061              		.loc 1 615 0
ARM GAS  /var/folders/19/rz7506jh8xn7x1006s6s574h0000gn/T//ccPIz347.s 			page 49


 2062 004a BDE8F081 		pop	{r4, r5, r6, r7, r8, pc}
 2063              		.cfi_endproc
 2064              	.LFE120:
 2066              		.section	.text._ZNK6String11lastIndexOfERKS_,"ax",%progbits
 2067              		.align	1
 2068              		.global	_ZNK6String11lastIndexOfERKS_
 2069              		.thumb
 2070              		.thumb_func
 2072              	_ZNK6String11lastIndexOfERKS_:
 2073              	.LFB119:
 600:../../cores/mapleMX/WString.cpp **** 	return lastIndexOf(s2, len - s2.len);
 2074              		.loc 1 600 0
 2075              		.cfi_startproc
 2076              		@ args = 0, pretend = 0, frame = 0
 2077              		@ frame_needed = 0, uses_anonymous_args = 0
 2078              		@ link register save eliminated.
 2079              	.LVL207:
 601:../../cores/mapleMX/WString.cpp **** }
 2080              		.loc 1 601 0
 2081 0000 8268     		ldr	r2, [r0, #8]
 2082 0002 8B68     		ldr	r3, [r1, #8]
 2083 0004 D21A     		subs	r2, r2, r3
 2084 0006 FFF7FEBF 		b	_ZNK6String11lastIndexOfERKS_j
 2085              	.LVL208:
 2086              		.cfi_endproc
 2087              	.LFE119:
 2089              		.section	.text._ZNK6String9substringEjj,"ax",%progbits
 2090              		.align	1
 2091              		.global	_ZNK6String9substringEjj
 2092              		.thumb
 2093              		.thumb_func
 2095              	_ZNK6String9substringEjj:
 2096              	.LFB121:
 616:../../cores/mapleMX/WString.cpp **** 
 617:../../cores/mapleMX/WString.cpp **** String String::substring(unsigned int left, unsigned int right) const
 618:../../cores/mapleMX/WString.cpp **** {
 2097              		.loc 1 618 0
 2098              		.cfi_startproc
 2099              		@ args = 0, pretend = 0, frame = 0
 2100              		@ frame_needed = 0, uses_anonymous_args = 0
 2101              	.LVL209:
 2102 0000 2DE9F041 		push	{r4, r5, r6, r7, r8, lr}
 2103              		.cfi_def_cfa_offset 24
 2104              		.cfi_offset 4, -24
 2105              		.cfi_offset 5, -20
 2106              		.cfi_offset 6, -16
 2107              		.cfi_offset 7, -12
 2108              		.cfi_offset 8, -8
 2109              		.cfi_offset 14, -4
 2110              	.LBB114:
 619:../../cores/mapleMX/WString.cpp **** 	if (left > right) {
 2111              		.loc 1 619 0
 2112 0004 9A42     		cmp	r2, r3
 2113              	.LBE114:
 618:../../cores/mapleMX/WString.cpp **** 	if (left > right) {
 2114              		.loc 1 618 0
 2115 0006 0E46     		mov	r6, r1
ARM GAS  /var/folders/19/rz7506jh8xn7x1006s6s574h0000gn/T//ccPIz347.s 			page 50


 2116 0008 1C46     		mov	r4, r3
 620:../../cores/mapleMX/WString.cpp **** 		unsigned int temp = right;
 621:../../cores/mapleMX/WString.cpp **** 		right = left;
 622:../../cores/mapleMX/WString.cpp **** 		left = temp;
 623:../../cores/mapleMX/WString.cpp **** 	}
 624:../../cores/mapleMX/WString.cpp **** 	String out;
 2117              		.loc 1 624 0
 2118 000a 1049     		ldr	r1, .L154
 2119              	.LVL210:
 2120              	.LBB115:
 619:../../cores/mapleMX/WString.cpp **** 		unsigned int temp = right;
 2121              		.loc 1 619 0
 2122 000c 88BF     		it	hi
 2123 000e 1346     		movhi	r3, r2
 2124              	.LVL211:
 2125              	.LBE115:
 618:../../cores/mapleMX/WString.cpp **** 	if (left > right) {
 2126              		.loc 1 618 0
 2127 0010 1546     		mov	r5, r2
 2128 0012 0746     		mov	r7, r0
 2129              	.LBB116:
 619:../../cores/mapleMX/WString.cpp **** 		unsigned int temp = right;
 2130              		.loc 1 619 0
 2131 0014 84BF     		itt	hi
 2132 0016 2546     		movhi	r5, r4
 2133 0018 1C46     		movhi	r4, r3
 2134              	.LVL212:
 2135              	.LBE116:
 2136              		.loc 1 624 0
 2137 001a FFF7FEFF 		bl	_ZN6StringC1EPKc
 2138              	.LVL213:
 625:../../cores/mapleMX/WString.cpp **** 	if (left >= len) return out;
 2139              		.loc 1 625 0
 2140 001e B168     		ldr	r1, [r6, #8]
 2141 0020 8D42     		cmp	r5, r1
 2142 0022 0FD2     		bcs	.L151
 2143 0024 8C42     		cmp	r4, r1
 2144 0026 28BF     		it	cs
 2145 0028 0C46     		movcs	r4, r1
 2146              	.LVL214:
 626:../../cores/mapleMX/WString.cpp **** 	if (right > len) right = len;
 627:../../cores/mapleMX/WString.cpp **** 	char temp = buffer[right];  // save the replaced character
 2147              		.loc 1 627 0
 2148 002a 3368     		ldr	r3, [r6]
 628:../../cores/mapleMX/WString.cpp **** 	buffer[right] = '\0';	
 2149              		.loc 1 628 0
 2150 002c 0022     		movs	r2, #0
 627:../../cores/mapleMX/WString.cpp **** 	buffer[right] = '\0';	
 2151              		.loc 1 627 0
 2152 002e 13F80480 		ldrb	r8, [r3, r4]	@ zero_extendqisi2
 2153              	.LVL215:
 2154              		.loc 1 628 0
 2155 0032 1A55     		strb	r2, [r3, r4]
 629:../../cores/mapleMX/WString.cpp **** 	out = buffer + left;  // pointer arithmetic
 2156              		.loc 1 629 0
 2157 0034 3168     		ldr	r1, [r6]
 2158 0036 3846     		mov	r0, r7
ARM GAS  /var/folders/19/rz7506jh8xn7x1006s6s574h0000gn/T//ccPIz347.s 			page 51


 2159 0038 2944     		add	r1, r1, r5
 2160 003a FFF7FEFF 		bl	_ZN6StringaSEPK19__FlashStringHelper
 2161              	.LVL216:
 630:../../cores/mapleMX/WString.cpp **** 	buffer[right] = temp;  //restore character
 2162              		.loc 1 630 0
 2163 003e 3368     		ldr	r3, [r6]
 2164 0040 03F80480 		strb	r8, [r3, r4]
 2165              	.LVL217:
 2166              	.L151:
 631:../../cores/mapleMX/WString.cpp **** 	return out;
 632:../../cores/mapleMX/WString.cpp **** }
 2167              		.loc 1 632 0
 2168 0044 3846     		mov	r0, r7
 2169 0046 BDE8F081 		pop	{r4, r5, r6, r7, r8, pc}
 2170              	.LVL218:
 2171              	.L155:
 2172 004a 00BF     		.align	2
 2173              	.L154:
 2174 004c 00000000 		.word	.LC0
 2175              		.cfi_endproc
 2176              	.LFE121:
 2178              		.section	.text._ZN6String7replaceEcc,"ax",%progbits
 2179              		.align	1
 2180              		.global	_ZN6String7replaceEcc
 2181              		.thumb
 2182              		.thumb_func
 2184              	_ZN6String7replaceEcc:
 2185              	.LFB122:
 633:../../cores/mapleMX/WString.cpp **** 
 634:../../cores/mapleMX/WString.cpp **** /*********************************************/
 635:../../cores/mapleMX/WString.cpp **** /*  Modification                             */
 636:../../cores/mapleMX/WString.cpp **** /*********************************************/
 637:../../cores/mapleMX/WString.cpp **** 
 638:../../cores/mapleMX/WString.cpp **** void String::replace(char find, char replace)
 639:../../cores/mapleMX/WString.cpp **** {
 2186              		.loc 1 639 0
 2187              		.cfi_startproc
 2188              		@ args = 0, pretend = 0, frame = 0
 2189              		@ frame_needed = 0, uses_anonymous_args = 0
 2190              		@ link register save eliminated.
 2191              	.LVL219:
 640:../../cores/mapleMX/WString.cpp **** 	if (!buffer) return;
 2192              		.loc 1 640 0
 2193 0000 0368     		ldr	r3, [r0]
 2194 0002 3BB1     		cbz	r3, .L156
 2195 0004 013B     		subs	r3, r3, #1
 2196              	.LVL220:
 2197              	.L159:
 2198              	.LBB117:
 641:../../cores/mapleMX/WString.cpp **** 	for (char *p = buffer; *p; p++) {
 2199              		.loc 1 641 0 discriminator 1
 2200 0006 13F8010F 		ldrb	r0, [r3, #1]!	@ zero_extendqisi2
 2201              	.LVL221:
 2202 000a 18B1     		cbz	r0, .L156
 642:../../cores/mapleMX/WString.cpp **** 		if (*p == find) *p = replace;
 2203              		.loc 1 642 0
 2204 000c 8842     		cmp	r0, r1
ARM GAS  /var/folders/19/rz7506jh8xn7x1006s6s574h0000gn/T//ccPIz347.s 			page 52


 2205 000e FAD1     		bne	.L159
 2206              		.loc 1 642 0 is_stmt 0 discriminator 1
 2207 0010 1A70     		strb	r2, [r3]
 2208              	.LVL222:
 641:../../cores/mapleMX/WString.cpp **** 	for (char *p = buffer; *p; p++) {
 2209              		.loc 1 641 0 is_stmt 1 discriminator 1
 2210 0012 F8E7     		b	.L159
 2211              	.LVL223:
 2212              	.L156:
 2213 0014 7047     		bx	lr
 2214              	.LBE117:
 2215              		.cfi_endproc
 2216              	.LFE122:
 2218              		.section	.text._ZN6String7replaceERKS_S1_,"ax",%progbits
 2219              		.align	1
 2220              		.global	_ZN6String7replaceERKS_S1_
 2221              		.thumb
 2222              		.thumb_func
 2224              	_ZN6String7replaceERKS_S1_:
 2225              	.LFB123:
 643:../../cores/mapleMX/WString.cpp **** 	}
 644:../../cores/mapleMX/WString.cpp **** }
 645:../../cores/mapleMX/WString.cpp **** 
 646:../../cores/mapleMX/WString.cpp **** void String::replace(const String& find, const String& replace)
 647:../../cores/mapleMX/WString.cpp **** {
 2226              		.loc 1 647 0
 2227              		.cfi_startproc
 2228              		@ args = 0, pretend = 0, frame = 8
 2229              		@ frame_needed = 0, uses_anonymous_args = 0
 2230              	.LVL224:
 2231 0000 2DE9F74F 		push	{r0, r1, r2, r4, r5, r6, r7, r8, r9, r10, fp, lr}
 2232              		.cfi_def_cfa_offset 48
 2233              		.cfi_offset 4, -36
 2234              		.cfi_offset 5, -32
 2235              		.cfi_offset 6, -28
 2236              		.cfi_offset 7, -24
 2237              		.cfi_offset 8, -20
 2238              		.cfi_offset 9, -16
 2239              		.cfi_offset 10, -12
 2240              		.cfi_offset 11, -8
 2241              		.cfi_offset 14, -4
 648:../../cores/mapleMX/WString.cpp **** 	if (len == 0 || find.len == 0) return;
 2242              		.loc 1 648 0
 2243 0004 D0F808A0 		ldr	r10, [r0, #8]
 647:../../cores/mapleMX/WString.cpp **** 	if (len == 0 || find.len == 0) return;
 2244              		.loc 1 647 0
 2245 0008 0546     		mov	r5, r0
 2246 000a 8846     		mov	r8, r1
 2247 000c 1646     		mov	r6, r2
 2248              		.loc 1 648 0
 2249 000e BAF1000F 		cmp	r10, #0
 2250 0012 7AD0     		beq	.L166
 2251              		.loc 1 648 0 is_stmt 0 discriminator 1
 2252 0014 D1F808B0 		ldr	fp, [r1, #8]
 2253 0018 BBF1000F 		cmp	fp, #0
 2254 001c 75D0     		beq	.L166
 649:../../cores/mapleMX/WString.cpp **** 	int diff = replace.len - find.len;
ARM GAS  /var/folders/19/rz7506jh8xn7x1006s6s574h0000gn/T//ccPIz347.s 			page 53


 2255              		.loc 1 649 0 is_stmt 1
 2256 001e 9768     		ldr	r7, [r2, #8]
 650:../../cores/mapleMX/WString.cpp **** 	char *readFrom = buffer;
 2257              		.loc 1 650 0
 2258 0020 0468     		ldr	r4, [r0]
 649:../../cores/mapleMX/WString.cpp **** 	int diff = replace.len - find.len;
 2259              		.loc 1 649 0
 2260 0022 CBEB0707 		rsb	r7, fp, r7
 2261              	.LVL225:
 2262              	.LBB118:
 651:../../cores/mapleMX/WString.cpp **** 	char *foundAt;
 652:../../cores/mapleMX/WString.cpp **** 	if (diff == 0) {
 2263              		.loc 1 652 0
 2264 0026 002F     		cmp	r7, #0
 2265 0028 0ED1     		bne	.L170
 2266              	.LVL226:
 2267              	.L171:
 653:../../cores/mapleMX/WString.cpp **** 		while ((foundAt = strstr(readFrom, find.buffer)) != NULL) {
 2268              		.loc 1 653 0
 2269 002a 2046     		mov	r0, r4
 2270 002c D8F80010 		ldr	r1, [r8]
 2271 0030 FFF7FEFF 		bl	strstr
 2272              	.LVL227:
 2273 0034 0446     		mov	r4, r0
 2274              	.LVL228:
 2275 0036 0028     		cmp	r0, #0
 2276 0038 67D0     		beq	.L166
 654:../../cores/mapleMX/WString.cpp **** 			memcpy(foundAt, replace.buffer, replace.len);
 2277              		.loc 1 654 0
 2278 003a B268     		ldr	r2, [r6, #8]
 2279 003c 3168     		ldr	r1, [r6]
 2280 003e FFF7FEFF 		bl	memcpy
 2281              	.LVL229:
 655:../../cores/mapleMX/WString.cpp **** 			readFrom = foundAt + replace.len;
 2282              		.loc 1 655 0
 2283 0042 B068     		ldr	r0, [r6, #8]
 2284 0044 0444     		add	r4, r4, r0
 2285              	.LVL230:
 653:../../cores/mapleMX/WString.cpp **** 		while ((foundAt = strstr(readFrom, find.buffer)) != NULL) {
 2286              		.loc 1 653 0
 2287 0046 F0E7     		b	.L171
 2288              	.LVL231:
 2289              	.L170:
 2290              	.LBB119:
 656:../../cores/mapleMX/WString.cpp **** 		}
 657:../../cores/mapleMX/WString.cpp **** 	} else if (diff < 0) {
 2291              		.loc 1 657 0
 2292 0048 24DA     		bge	.L172
 2293 004a A146     		mov	r9, r4
 2294              	.LVL232:
 2295              	.L174:
 2296              	.LBB120:
 658:../../cores/mapleMX/WString.cpp **** 		char *writeTo = buffer;
 659:../../cores/mapleMX/WString.cpp **** 		while ((foundAt = strstr(readFrom, find.buffer)) != NULL) {
 2297              		.loc 1 659 0
 2298 004c D8F80010 		ldr	r1, [r8]
 2299 0050 2046     		mov	r0, r4
ARM GAS  /var/folders/19/rz7506jh8xn7x1006s6s574h0000gn/T//ccPIz347.s 			page 54


 2300 0052 FFF7FEFF 		bl	strstr
 2301              	.LVL233:
 2302 0056 8346     		mov	fp, r0
 2303 0058 A8B1     		cbz	r0, .L173
 2304              	.LBB121:
 660:../../cores/mapleMX/WString.cpp **** 			unsigned int n = foundAt - readFrom;
 2305              		.loc 1 660 0
 2306 005a C4EB000A 		rsb	r10, r4, r0
 2307              	.LVL234:
 661:../../cores/mapleMX/WString.cpp **** 			memcpy(writeTo, readFrom, n);
 2308              		.loc 1 661 0
 2309 005e 2146     		mov	r1, r4
 2310 0060 5246     		mov	r2, r10
 2311 0062 4846     		mov	r0, r9
 2312              	.LVL235:
 662:../../cores/mapleMX/WString.cpp **** 			writeTo += n;
 2313              		.loc 1 662 0
 2314 0064 D144     		add	r9, r9, r10
 2315              	.LVL236:
 661:../../cores/mapleMX/WString.cpp **** 			memcpy(writeTo, readFrom, n);
 2316              		.loc 1 661 0
 2317 0066 FFF7FEFF 		bl	memcpy
 2318              	.LVL237:
 663:../../cores/mapleMX/WString.cpp **** 			memcpy(writeTo, replace.buffer, replace.len);
 2319              		.loc 1 663 0
 2320 006a 4846     		mov	r0, r9
 2321 006c B268     		ldr	r2, [r6, #8]
 2322 006e 3168     		ldr	r1, [r6]
 2323 0070 FFF7FEFF 		bl	memcpy
 2324              	.LVL238:
 664:../../cores/mapleMX/WString.cpp **** 			writeTo += replace.len;
 2325              		.loc 1 664 0
 2326 0074 B368     		ldr	r3, [r6, #8]
 665:../../cores/mapleMX/WString.cpp **** 			readFrom = foundAt + find.len;
 2327              		.loc 1 665 0
 2328 0076 D8F80840 		ldr	r4, [r8, #8]
 2329              	.LVL239:
 664:../../cores/mapleMX/WString.cpp **** 			writeTo += replace.len;
 2330              		.loc 1 664 0
 2331 007a 9944     		add	r9, r9, r3
 2332              	.LVL240:
 666:../../cores/mapleMX/WString.cpp **** 			len += diff;
 2333              		.loc 1 666 0
 2334 007c AB68     		ldr	r3, [r5, #8]
 2335 007e 3B44     		add	r3, r3, r7
 665:../../cores/mapleMX/WString.cpp **** 			readFrom = foundAt + find.len;
 2336              		.loc 1 665 0
 2337 0080 5C44     		add	r4, r4, fp
 2338              	.LVL241:
 2339              		.loc 1 666 0
 2340 0082 AB60     		str	r3, [r5, #8]
 2341              	.LBE121:
 659:../../cores/mapleMX/WString.cpp **** 			unsigned int n = foundAt - readFrom;
 2342              		.loc 1 659 0
 2343 0084 E2E7     		b	.L174
 2344              	.LVL242:
 2345              	.L173:
ARM GAS  /var/folders/19/rz7506jh8xn7x1006s6s574h0000gn/T//ccPIz347.s 			page 55


 667:../../cores/mapleMX/WString.cpp **** 		}
 668:../../cores/mapleMX/WString.cpp **** 		strcpy(writeTo, readFrom);
 2346              		.loc 1 668 0
 2347 0086 2146     		mov	r1, r4
 2348 0088 4846     		mov	r0, r9
 2349              	.LVL243:
 2350              	.LBE120:
 2351              	.LBE119:
 2352              	.LBE118:
 669:../../cores/mapleMX/WString.cpp **** 	} else {
 670:../../cores/mapleMX/WString.cpp **** 		unsigned int size = len; // compute size needed for result
 671:../../cores/mapleMX/WString.cpp **** 		while ((foundAt = strstr(readFrom, find.buffer)) != NULL) {
 672:../../cores/mapleMX/WString.cpp **** 			readFrom = foundAt + find.len;
 673:../../cores/mapleMX/WString.cpp **** 			size += diff;
 674:../../cores/mapleMX/WString.cpp **** 		}
 675:../../cores/mapleMX/WString.cpp **** 		if (size == len) return;
 676:../../cores/mapleMX/WString.cpp **** 		if (size > capacity && !changeBuffer(size)) return; // XXX: tell user!
 677:../../cores/mapleMX/WString.cpp **** 		int index = len - 1;
 678:../../cores/mapleMX/WString.cpp **** 		while (index >= 0 && (index = lastIndexOf(find, index)) >= 0) {
 679:../../cores/mapleMX/WString.cpp **** 			readFrom = buffer + index + find.len;
 680:../../cores/mapleMX/WString.cpp **** 			memmove(readFrom + diff, readFrom, len - (readFrom - buffer));
 681:../../cores/mapleMX/WString.cpp **** 			len += diff;
 682:../../cores/mapleMX/WString.cpp **** 			buffer[len] = 0;
 683:../../cores/mapleMX/WString.cpp **** 			memcpy(buffer + index, replace.buffer, replace.len);
 684:../../cores/mapleMX/WString.cpp **** 			index--;
 685:../../cores/mapleMX/WString.cpp **** 		}
 686:../../cores/mapleMX/WString.cpp **** 	}
 687:../../cores/mapleMX/WString.cpp **** }
 2353              		.loc 1 687 0
 2354 008a 03B0     		add	sp, sp, #12
 2355              		.cfi_remember_state
 2356              		.cfi_def_cfa_offset 36
 2357              		@ sp needed
 2358 008c BDE8F04F 		pop	{r4, r5, r6, r7, r8, r9, r10, fp, lr}
 2359              		.cfi_restore 14
 2360              		.cfi_restore 11
 2361              		.cfi_restore 10
 2362              		.cfi_restore 9
 2363              		.cfi_restore 8
 2364              		.cfi_restore 7
 2365              		.cfi_restore 6
 2366              		.cfi_restore 5
 2367              		.cfi_restore 4
 2368              		.cfi_def_cfa_offset 0
 2369              	.LVL244:
 2370              	.LBB125:
 2371              	.LBB124:
 2372              	.LBB122:
 668:../../cores/mapleMX/WString.cpp **** 	} else {
 2373              		.loc 1 668 0
 2374 0090 FFF7FEBF 		b	strcpy
 2375              	.LVL245:
 2376              	.L172:
 2377              		.cfi_restore_state
 2378              	.LBE122:
 2379              	.LBB123:
 671:../../cores/mapleMX/WString.cpp **** 			readFrom = foundAt + find.len;
ARM GAS  /var/folders/19/rz7506jh8xn7x1006s6s574h0000gn/T//ccPIz347.s 			page 56


 2380              		.loc 1 671 0
 2381 0094 0B68     		ldr	r3, [r1]
 2382 0096 D146     		mov	r9, r10
 2383              	.LVL246:
 2384              	.L176:
 2385 0098 1946     		mov	r1, r3
 2386 009a 2046     		mov	r0, r4
 2387 009c 0193     		str	r3, [sp, #4]
 2388 009e FFF7FEFF 		bl	strstr
 2389              	.LVL247:
 2390 00a2 20B1     		cbz	r0, .L175
 672:../../cores/mapleMX/WString.cpp **** 			size += diff;
 2391              		.loc 1 672 0
 2392 00a4 00EB0B04 		add	r4, r0, fp
 2393              	.LVL248:
 673:../../cores/mapleMX/WString.cpp **** 		}
 2394              		.loc 1 673 0
 2395 00a8 B944     		add	r9, r9, r7
 2396              	.LVL249:
 671:../../cores/mapleMX/WString.cpp **** 			readFrom = foundAt + find.len;
 2397              		.loc 1 671 0
 2398 00aa 019B     		ldr	r3, [sp, #4]
 2399 00ac F4E7     		b	.L176
 2400              	.L175:
 675:../../cores/mapleMX/WString.cpp **** 		if (size > capacity && !changeBuffer(size)) return; // XXX: tell user!
 2401              		.loc 1 675 0
 2402 00ae D145     		cmp	r9, r10
 2403 00b0 2BD0     		beq	.L166
 676:../../cores/mapleMX/WString.cpp **** 		int index = len - 1;
 2404              		.loc 1 676 0
 2405 00b2 6B68     		ldr	r3, [r5, #4]
 2406 00b4 9945     		cmp	r9, r3
 2407 00b6 04D9     		bls	.L177
 676:../../cores/mapleMX/WString.cpp **** 		int index = len - 1;
 2408              		.loc 1 676 0 is_stmt 0 discriminator 1
 2409 00b8 4946     		mov	r1, r9
 2410 00ba 2846     		mov	r0, r5
 2411              	.LVL250:
 2412 00bc FFF7FEFF 		bl	_ZN6String12changeBufferEj
 2413              	.LVL251:
 2414 00c0 18B3     		cbz	r0, .L166
 2415              	.L177:
 677:../../cores/mapleMX/WString.cpp **** 		while (index >= 0 && (index = lastIndexOf(find, index)) >= 0) {
 2416              		.loc 1 677 0 is_stmt 1
 2417 00c2 AA68     		ldr	r2, [r5, #8]
 682:../../cores/mapleMX/WString.cpp **** 			memcpy(buffer + index, replace.buffer, replace.len);
 2418              		.loc 1 682 0
 2419 00c4 4FF00009 		mov	r9, #0
 2420              	.LVL252:
 677:../../cores/mapleMX/WString.cpp **** 		while (index >= 0 && (index = lastIndexOf(find, index)) >= 0) {
 2421              		.loc 1 677 0
 2422 00c8 013A     		subs	r2, r2, #1
 2423              	.LVL253:
 2424              	.L179:
 678:../../cores/mapleMX/WString.cpp **** 			readFrom = buffer + index + find.len;
 2425              		.loc 1 678 0
 2426 00ca 002A     		cmp	r2, #0
ARM GAS  /var/folders/19/rz7506jh8xn7x1006s6s574h0000gn/T//ccPIz347.s 			page 57


 2427 00cc 1DDB     		blt	.L166
 678:../../cores/mapleMX/WString.cpp **** 			readFrom = buffer + index + find.len;
 2428              		.loc 1 678 0 is_stmt 0 discriminator 1
 2429 00ce 4146     		mov	r1, r8
 2430 00d0 2846     		mov	r0, r5
 2431 00d2 FFF7FEFF 		bl	_ZNK6String11lastIndexOfERKS_j
 2432              	.LVL254:
 2433 00d6 041E     		subs	r4, r0, #0
 2434 00d8 17DB     		blt	.L166
 679:../../cores/mapleMX/WString.cpp **** 			memmove(readFrom + diff, readFrom, len - (readFrom - buffer));
 2435              		.loc 1 679 0 is_stmt 1
 2436 00da D8F80830 		ldr	r3, [r8, #8]
 2437 00de 2968     		ldr	r1, [r5]
 680:../../cores/mapleMX/WString.cpp **** 			len += diff;
 2438              		.loc 1 680 0
 2439 00e0 AA68     		ldr	r2, [r5, #8]
 679:../../cores/mapleMX/WString.cpp **** 			memmove(readFrom + diff, readFrom, len - (readFrom - buffer));
 2440              		.loc 1 679 0
 2441 00e2 2344     		add	r3, r3, r4
 2442 00e4 1944     		add	r1, r1, r3
 2443              	.LVL255:
 680:../../cores/mapleMX/WString.cpp **** 			len += diff;
 2444              		.loc 1 680 0
 2445 00e6 D21A     		subs	r2, r2, r3
 2446 00e8 C819     		adds	r0, r1, r7
 2447              	.LVL256:
 2448 00ea FFF7FEFF 		bl	memmove
 2449              	.LVL257:
 681:../../cores/mapleMX/WString.cpp **** 			buffer[len] = 0;
 2450              		.loc 1 681 0
 2451 00ee AB68     		ldr	r3, [r5, #8]
 682:../../cores/mapleMX/WString.cpp **** 			memcpy(buffer + index, replace.buffer, replace.len);
 2452              		.loc 1 682 0
 2453 00f0 2A68     		ldr	r2, [r5]
 681:../../cores/mapleMX/WString.cpp **** 			buffer[len] = 0;
 2454              		.loc 1 681 0
 2455 00f2 3B44     		add	r3, r3, r7
 2456 00f4 AB60     		str	r3, [r5, #8]
 682:../../cores/mapleMX/WString.cpp **** 			memcpy(buffer + index, replace.buffer, replace.len);
 2457              		.loc 1 682 0
 2458 00f6 02F80390 		strb	r9, [r2, r3]
 683:../../cores/mapleMX/WString.cpp **** 			index--;
 2459              		.loc 1 683 0
 2460 00fa 2868     		ldr	r0, [r5]
 2461 00fc B268     		ldr	r2, [r6, #8]
 2462 00fe 3168     		ldr	r1, [r6]
 2463 0100 2044     		add	r0, r0, r4
 2464 0102 FFF7FEFF 		bl	memcpy
 2465              	.LVL258:
 684:../../cores/mapleMX/WString.cpp **** 		}
 2466              		.loc 1 684 0
 2467 0106 621E     		subs	r2, r4, #1
 2468              	.LVL259:
 678:../../cores/mapleMX/WString.cpp **** 			readFrom = buffer + index + find.len;
 2469              		.loc 1 678 0
 2470 0108 DFE7     		b	.L179
 2471              	.LVL260:
ARM GAS  /var/folders/19/rz7506jh8xn7x1006s6s574h0000gn/T//ccPIz347.s 			page 58


 2472              	.L166:
 2473              	.LBE123:
 2474              	.LBE124:
 2475              	.LBE125:
 2476              		.loc 1 687 0
 2477 010a 03B0     		add	sp, sp, #12
 2478              		.cfi_def_cfa_offset 36
 2479              		@ sp needed
 2480 010c BDE8F08F 		pop	{r4, r5, r6, r7, r8, r9, r10, fp, pc}
 2481              		.cfi_endproc
 2482              	.LFE123:
 2484              		.section	.text._ZN6String6removeEjj,"ax",%progbits
 2485              		.align	1
 2486              		.global	_ZN6String6removeEjj
 2487              		.thumb
 2488              		.thumb_func
 2490              	_ZN6String6removeEjj:
 2491              	.LFB125:
 688:../../cores/mapleMX/WString.cpp **** 
 689:../../cores/mapleMX/WString.cpp **** void String::remove(unsigned int index){
 690:../../cores/mapleMX/WString.cpp **** 	// Pass the biggest integer as the count. The remove method
 691:../../cores/mapleMX/WString.cpp **** 	// below will take care of truncating it at the end of the
 692:../../cores/mapleMX/WString.cpp **** 	// string.
 693:../../cores/mapleMX/WString.cpp **** 	remove(index, (unsigned int)-1);
 694:../../cores/mapleMX/WString.cpp **** }
 695:../../cores/mapleMX/WString.cpp **** 
 696:../../cores/mapleMX/WString.cpp **** void String::remove(unsigned int index, unsigned int count){
 2492              		.loc 1 696 0
 2493              		.cfi_startproc
 2494              		@ args = 0, pretend = 0, frame = 0
 2495              		@ frame_needed = 0, uses_anonymous_args = 0
 2496              	.LVL261:
 2497 0000 38B5     		push	{r3, r4, r5, lr}
 2498              		.cfi_def_cfa_offset 16
 2499              		.cfi_offset 3, -16
 2500              		.cfi_offset 4, -12
 2501              		.cfi_offset 5, -8
 2502              		.cfi_offset 14, -4
 2503              		.loc 1 696 0
 2504 0002 0546     		mov	r5, r0
 2505 0004 0846     		mov	r0, r1
 2506              	.LVL262:
 697:../../cores/mapleMX/WString.cpp **** 	if (index >= len) { return; }
 2507              		.loc 1 697 0
 2508 0006 AC68     		ldr	r4, [r5, #8]
 2509 0008 8C42     		cmp	r4, r1
 2510 000a 11D9     		bls	.L189
 698:../../cores/mapleMX/WString.cpp **** 	if (count <= 0) { return; }
 2511              		.loc 1 698 0
 2512 000c 82B1     		cbz	r2, .L189
 699:../../cores/mapleMX/WString.cpp **** 	if (count > len - index) { count = len - index; }
 2513              		.loc 1 699 0
 2514 000e 631A     		subs	r3, r4, r1
 2515 0010 9A42     		cmp	r2, r3
 2516 0012 28BF     		it	cs
 2517 0014 1A46     		movcs	r2, r3
 2518              	.LVL263:
ARM GAS  /var/folders/19/rz7506jh8xn7x1006s6s574h0000gn/T//ccPIz347.s 			page 59


 700:../../cores/mapleMX/WString.cpp **** 	char *writeTo = buffer + index;
 2519              		.loc 1 700 0
 2520 0016 2B68     		ldr	r3, [r5]
 2521              	.LVL264:
 701:../../cores/mapleMX/WString.cpp **** 	len = len - count;
 2522              		.loc 1 701 0
 2523 0018 A41A     		subs	r4, r4, r2
 702:../../cores/mapleMX/WString.cpp **** 	strncpy(writeTo, buffer + index + count,len - index);
 2524              		.loc 1 702 0
 2525 001a 1144     		add	r1, r1, r2
 2526              	.LVL265:
 2527 001c 1944     		add	r1, r1, r3
 2528 001e 221A     		subs	r2, r4, r0
 2529              	.LVL266:
 701:../../cores/mapleMX/WString.cpp **** 	len = len - count;
 2530              		.loc 1 701 0
 2531 0020 AC60     		str	r4, [r5, #8]
 2532              	.LVL267:
 2533              		.loc 1 702 0
 2534 0022 1844     		add	r0, r0, r3
 2535              	.LVL268:
 2536 0024 FFF7FEFF 		bl	strncpy
 2537              	.LVL269:
 703:../../cores/mapleMX/WString.cpp **** 	buffer[len] = 0;
 2538              		.loc 1 703 0
 2539 0028 2A68     		ldr	r2, [r5]
 2540 002a AB68     		ldr	r3, [r5, #8]
 2541 002c 0021     		movs	r1, #0
 2542 002e D154     		strb	r1, [r2, r3]
 2543              	.L189:
 2544 0030 38BD     		pop	{r3, r4, r5, pc}
 2545              		.cfi_endproc
 2546              	.LFE125:
 2548              		.section	.text._ZN6String6removeEj,"ax",%progbits
 2549              		.align	1
 2550              		.global	_ZN6String6removeEj
 2551              		.thumb
 2552              		.thumb_func
 2554              	_ZN6String6removeEj:
 2555              	.LFB124:
 689:../../cores/mapleMX/WString.cpp **** 	// Pass the biggest integer as the count. The remove method
 2556              		.loc 1 689 0
 2557              		.cfi_startproc
 2558              		@ args = 0, pretend = 0, frame = 0
 2559              		@ frame_needed = 0, uses_anonymous_args = 0
 2560              		@ link register save eliminated.
 2561              	.LVL270:
 693:../../cores/mapleMX/WString.cpp **** }
 2562              		.loc 1 693 0
 2563 0000 4FF0FF32 		mov	r2, #-1
 2564 0004 FFF7FEBF 		b	_ZN6String6removeEjj
 2565              	.LVL271:
 2566              		.cfi_endproc
 2567              	.LFE124:
 2569              		.section	.text._ZN6String11toLowerCaseEv,"ax",%progbits
 2570              		.align	1
 2571              		.global	_ZN6String11toLowerCaseEv
ARM GAS  /var/folders/19/rz7506jh8xn7x1006s6s574h0000gn/T//ccPIz347.s 			page 60


 2572              		.thumb
 2573              		.thumb_func
 2575              	_ZN6String11toLowerCaseEv:
 2576              	.LFB126:
 704:../../cores/mapleMX/WString.cpp **** }
 705:../../cores/mapleMX/WString.cpp **** 
 706:../../cores/mapleMX/WString.cpp **** void String::toLowerCase(void)
 707:../../cores/mapleMX/WString.cpp **** {
 2577              		.loc 1 707 0
 2578              		.cfi_startproc
 2579              		@ args = 0, pretend = 0, frame = 0
 2580              		@ frame_needed = 0, uses_anonymous_args = 0
 2581              	.LVL272:
 2582 0000 10B5     		push	{r4, lr}
 2583              		.cfi_def_cfa_offset 8
 2584              		.cfi_offset 4, -8
 2585              		.cfi_offset 14, -4
 708:../../cores/mapleMX/WString.cpp **** 	if (!buffer) return;
 2586              		.loc 1 708 0
 2587 0002 0468     		ldr	r4, [r0]
 2588 0004 34B1     		cbz	r4, .L195
 2589              	.LVL273:
 2590              	.L197:
 2591              	.LBB126:
 709:../../cores/mapleMX/WString.cpp **** 	for (char *p = buffer; *p; p++) {
 2592              		.loc 1 709 0 discriminator 3
 2593 0006 2078     		ldrb	r0, [r4]	@ zero_extendqisi2
 2594 0008 20B1     		cbz	r0, .L195
 710:../../cores/mapleMX/WString.cpp **** 		*p = tolower(*p);
 2595              		.loc 1 710 0 discriminator 2
 2596 000a FFF7FEFF 		bl	tolower
 2597              	.LVL274:
 2598 000e 04F8010B 		strb	r0, [r4], #1
 2599              	.LVL275:
 709:../../cores/mapleMX/WString.cpp **** 	for (char *p = buffer; *p; p++) {
 2600              		.loc 1 709 0 discriminator 2
 2601 0012 F8E7     		b	.L197
 2602              	.LVL276:
 2603              	.L195:
 2604 0014 10BD     		pop	{r4, pc}
 2605              	.LBE126:
 2606              		.cfi_endproc
 2607              	.LFE126:
 2609              		.section	.text._ZN6String11toUpperCaseEv,"ax",%progbits
 2610              		.align	1
 2611              		.global	_ZN6String11toUpperCaseEv
 2612              		.thumb
 2613              		.thumb_func
 2615              	_ZN6String11toUpperCaseEv:
 2616              	.LFB127:
 711:../../cores/mapleMX/WString.cpp **** 	}
 712:../../cores/mapleMX/WString.cpp **** }
 713:../../cores/mapleMX/WString.cpp **** 
 714:../../cores/mapleMX/WString.cpp **** void String::toUpperCase(void)
 715:../../cores/mapleMX/WString.cpp **** {
 2617              		.loc 1 715 0
 2618              		.cfi_startproc
ARM GAS  /var/folders/19/rz7506jh8xn7x1006s6s574h0000gn/T//ccPIz347.s 			page 61


 2619              		@ args = 0, pretend = 0, frame = 0
 2620              		@ frame_needed = 0, uses_anonymous_args = 0
 2621              	.LVL277:
 2622 0000 10B5     		push	{r4, lr}
 2623              		.cfi_def_cfa_offset 8
 2624              		.cfi_offset 4, -8
 2625              		.cfi_offset 14, -4
 716:../../cores/mapleMX/WString.cpp **** 	if (!buffer) return;
 2626              		.loc 1 716 0
 2627 0002 0468     		ldr	r4, [r0]
 2628 0004 34B1     		cbz	r4, .L204
 2629              	.LVL278:
 2630              	.L206:
 2631              	.LBB127:
 717:../../cores/mapleMX/WString.cpp **** 	for (char *p = buffer; *p; p++) {
 2632              		.loc 1 717 0 discriminator 3
 2633 0006 2078     		ldrb	r0, [r4]	@ zero_extendqisi2
 2634 0008 20B1     		cbz	r0, .L204
 718:../../cores/mapleMX/WString.cpp **** 		*p = toupper(*p);
 2635              		.loc 1 718 0 discriminator 2
 2636 000a FFF7FEFF 		bl	toupper
 2637              	.LVL279:
 2638 000e 04F8010B 		strb	r0, [r4], #1
 2639              	.LVL280:
 717:../../cores/mapleMX/WString.cpp **** 	for (char *p = buffer; *p; p++) {
 2640              		.loc 1 717 0 discriminator 2
 2641 0012 F8E7     		b	.L206
 2642              	.LVL281:
 2643              	.L204:
 2644 0014 10BD     		pop	{r4, pc}
 2645              	.LBE127:
 2646              		.cfi_endproc
 2647              	.LFE127:
 2649              		.section	.text._ZN6String4trimEv,"ax",%progbits
 2650              		.align	1
 2651              		.global	_ZN6String4trimEv
 2652              		.thumb
 2653              		.thumb_func
 2655              	_ZN6String4trimEv:
 2656              	.LFB128:
 719:../../cores/mapleMX/WString.cpp **** 	}
 720:../../cores/mapleMX/WString.cpp **** }
 721:../../cores/mapleMX/WString.cpp **** 
 722:../../cores/mapleMX/WString.cpp **** void String::trim(void)
 723:../../cores/mapleMX/WString.cpp **** {
 2657              		.loc 1 723 0
 2658              		.cfi_startproc
 2659              		@ args = 0, pretend = 0, frame = 0
 2660              		@ frame_needed = 0, uses_anonymous_args = 0
 2661              	.LVL282:
 2662 0000 2DE9F041 		push	{r4, r5, r6, r7, r8, lr}
 2663              		.cfi_def_cfa_offset 24
 2664              		.cfi_offset 4, -24
 2665              		.cfi_offset 5, -20
 2666              		.cfi_offset 6, -16
 2667              		.cfi_offset 7, -12
 2668              		.cfi_offset 8, -8
ARM GAS  /var/folders/19/rz7506jh8xn7x1006s6s574h0000gn/T//ccPIz347.s 			page 62


 2669              		.cfi_offset 14, -4
 724:../../cores/mapleMX/WString.cpp **** 	if (!buffer || len == 0) return;
 2670              		.loc 1 724 0
 2671 0004 0768     		ldr	r7, [r0]
 723:../../cores/mapleMX/WString.cpp **** 	if (!buffer || len == 0) return;
 2672              		.loc 1 723 0
 2673 0006 0646     		mov	r6, r0
 2674              		.loc 1 724 0
 2675 0008 0FB3     		cbz	r7, .L213
 2676              		.loc 1 724 0 is_stmt 0 discriminator 1
 2677 000a 8468     		ldr	r4, [r0, #8]
 2678 000c FCB1     		cbz	r4, .L213
 2679 000e 3D46     		mov	r5, r7
 2680              	.LVL283:
 2681              	.L215:
 725:../../cores/mapleMX/WString.cpp **** 	char *begin = buffer;
 726:../../cores/mapleMX/WString.cpp **** 	while (isspace(*begin)) begin++;
 2682              		.loc 1 726 0 is_stmt 1 discriminator 2
 2683 0010 2878     		ldrb	r0, [r5]	@ zero_extendqisi2
 2684 0012 05F10108 		add	r8, r5, #1
 2685 0016 FFF7FEFF 		bl	isspace
 2686              	.LVL284:
 2687 001a 08B1     		cbz	r0, .L229
 2688 001c 4546     		mov	r5, r8
 2689              	.LVL285:
 2690 001e F7E7     		b	.L215
 2691              	.LVL286:
 2692              	.L229:
 727:../../cores/mapleMX/WString.cpp **** 	char *end = buffer + len - 1;
 2693              		.loc 1 727 0
 2694 0020 013C     		subs	r4, r4, #1
 2695 0022 3C44     		add	r4, r4, r7
 2696              	.LVL287:
 2697              	.L217:
 728:../../cores/mapleMX/WString.cpp **** 	while (isspace(*end) && end >= begin) end--;
 2698              		.loc 1 728 0 discriminator 3
 2699 0024 2078     		ldrb	r0, [r4]	@ zero_extendqisi2
 2700 0026 FFF7FEFF 		bl	isspace
 2701              	.LVL288:
 2702 002a 18B1     		cbz	r0, .L216
 2703              		.loc 1 728 0 is_stmt 0 discriminator 1
 2704 002c A542     		cmp	r5, r4
 2705 002e 01D8     		bhi	.L216
 2706              		.loc 1 728 0 discriminator 2
 2707 0030 013C     		subs	r4, r4, #1
 2708              	.LVL289:
 2709 0032 F7E7     		b	.L217
 2710              	.L216:
 729:../../cores/mapleMX/WString.cpp **** 	len = end + 1 - begin;
 2711              		.loc 1 729 0 is_stmt 1
 2712 0034 621C     		adds	r2, r4, #1
 2713 0036 521B     		subs	r2, r2, r5
 730:../../cores/mapleMX/WString.cpp **** 	if (begin > buffer) memcpy(buffer, begin, len);
 2714              		.loc 1 730 0
 2715 0038 BD42     		cmp	r5, r7
 729:../../cores/mapleMX/WString.cpp **** 	len = end + 1 - begin;
 2716              		.loc 1 729 0
ARM GAS  /var/folders/19/rz7506jh8xn7x1006s6s574h0000gn/T//ccPIz347.s 			page 63


 2717 003a B260     		str	r2, [r6, #8]
 2718              		.loc 1 730 0
 2719 003c 03D9     		bls	.L218
 2720              		.loc 1 730 0 is_stmt 0 discriminator 1
 2721 003e 2946     		mov	r1, r5
 2722 0040 3846     		mov	r0, r7
 2723 0042 FFF7FEFF 		bl	memcpy
 2724              	.LVL290:
 2725              	.L218:
 731:../../cores/mapleMX/WString.cpp **** 	buffer[len] = 0;
 2726              		.loc 1 731 0 is_stmt 1
 2727 0046 3268     		ldr	r2, [r6]
 2728 0048 B368     		ldr	r3, [r6, #8]
 2729 004a 0021     		movs	r1, #0
 2730 004c D154     		strb	r1, [r2, r3]
 2731              	.LVL291:
 2732              	.L213:
 2733 004e BDE8F081 		pop	{r4, r5, r6, r7, r8, pc}
 2734              		.cfi_endproc
 2735              	.LFE128:
 2737              		.section	.text._ZNK6String5toIntEv,"ax",%progbits
 2738              		.align	1
 2739              		.global	_ZNK6String5toIntEv
 2740              		.thumb
 2741              		.thumb_func
 2743              	_ZNK6String5toIntEv:
 2744              	.LFB129:
 732:../../cores/mapleMX/WString.cpp **** }
 733:../../cores/mapleMX/WString.cpp **** 
 734:../../cores/mapleMX/WString.cpp **** /*********************************************/
 735:../../cores/mapleMX/WString.cpp **** /*  Parsing / Conversion                     */
 736:../../cores/mapleMX/WString.cpp **** /*********************************************/
 737:../../cores/mapleMX/WString.cpp **** 
 738:../../cores/mapleMX/WString.cpp **** long String::toInt(void) const
 739:../../cores/mapleMX/WString.cpp **** {
 2745              		.loc 1 739 0
 2746              		.cfi_startproc
 2747              		@ args = 0, pretend = 0, frame = 0
 2748              		@ frame_needed = 0, uses_anonymous_args = 0
 2749              		@ link register save eliminated.
 2750              	.LVL292:
 740:../../cores/mapleMX/WString.cpp **** 	if (buffer) return atol(buffer);
 2751              		.loc 1 740 0
 2752 0000 0068     		ldr	r0, [r0]
 2753              	.LVL293:
 2754 0002 08B1     		cbz	r0, .L231
 2755              		.loc 1 740 0 is_stmt 0 discriminator 1
 2756 0004 FFF7FEBF 		b	atol
 2757              	.LVL294:
 2758              	.L231:
 741:../../cores/mapleMX/WString.cpp **** 	return 0;
 742:../../cores/mapleMX/WString.cpp **** }
 2759              		.loc 1 742 0 is_stmt 1
 2760 0008 7047     		bx	lr
 2761              		.cfi_endproc
 2762              	.LFE129:
 2764              		.global	__aeabi_d2f
ARM GAS  /var/folders/19/rz7506jh8xn7x1006s6s574h0000gn/T//ccPIz347.s 			page 64


 2765              		.section	.text._ZNK6String7toFloatEv,"ax",%progbits
 2766              		.align	1
 2767              		.global	_ZNK6String7toFloatEv
 2768              		.thumb
 2769              		.thumb_func
 2771              	_ZNK6String7toFloatEv:
 2772              	.LFB130:
 743:../../cores/mapleMX/WString.cpp **** 
 744:../../cores/mapleMX/WString.cpp **** float String::toFloat(void) const
 745:../../cores/mapleMX/WString.cpp **** {
 2773              		.loc 1 745 0
 2774              		.cfi_startproc
 2775              		@ args = 0, pretend = 0, frame = 0
 2776              		@ frame_needed = 0, uses_anonymous_args = 0
 2777              	.LVL295:
 746:../../cores/mapleMX/WString.cpp **** 	if (buffer) return float(atof(buffer));
 2778              		.loc 1 746 0
 2779 0000 0068     		ldr	r0, [r0]
 2780              	.LVL296:
 745:../../cores/mapleMX/WString.cpp **** 	if (buffer) return float(atof(buffer));
 2781              		.loc 1 745 0
 2782 0002 08B5     		push	{r3, lr}
 2783              		.cfi_def_cfa_offset 8
 2784              		.cfi_offset 3, -8
 2785              		.cfi_offset 14, -4
 2786              		.loc 1 746 0
 2787 0004 20B1     		cbz	r0, .L234
 2788              		.loc 1 746 0 is_stmt 0 discriminator 1
 2789 0006 FFF7FEFF 		bl	atof
 2790              	.LVL297:
 2791 000a FFF7FEFF 		bl	__aeabi_d2f
 2792              	.LVL298:
 2793 000e 08BD     		pop	{r3, pc}
 2794              	.L234:
 747:../../cores/mapleMX/WString.cpp **** 	return 0;
 2795              		.loc 1 747 0 is_stmt 1
 2796 0010 0020     		movs	r0, #0
 748:../../cores/mapleMX/WString.cpp **** }
 2797              		.loc 1 748 0
 2798 0012 08BD     		pop	{r3, pc}
 2799              		.cfi_endproc
 2800              	.LFE130:
 2802              		.section	.rodata.str1.1,"aMS",%progbits,1
 2803              	.LC0:
 2804 0000 00       		.ascii	"\000"
 2805              		.section	.bss._ZZN6StringixEjE19dummy_writable_char,"aw",%nobits
 2806              		.set	.LANCHOR0,. + 0
 2809              	_ZZN6StringixEjE19dummy_writable_char:
 2810 0000 00       		.space	1
 2811              		.text
 2812              	.Letext0:
 2813              		.file 2 "../../cores/mapleMX/WString.h"
 2814              		.file 3 "/Applications/Ac6/SystemWorkbench.app/Contents/Eclipse/plugins/fr.ac6.mcu.externaltools.a
 2815              		.file 4 "/Applications/Ac6/SystemWorkbench.app/Contents/Eclipse/plugins/fr.ac6.mcu.externaltools.a
 2816              		.file 5 "../../cores/mapleMX/avr/dtostrf.h"
 2817              		.file 6 "../../cores/mapleMX/itoa.h"
 2818              		.file 7 "/Applications/Ac6/SystemWorkbench.app/Contents/Eclipse/plugins/fr.ac6.mcu.externaltools.a
ARM GAS  /var/folders/19/rz7506jh8xn7x1006s6s574h0000gn/T//ccPIz347.s 			page 65


 2819              		.file 8 "<built-in>"
ARM GAS  /var/folders/19/rz7506jh8xn7x1006s6s574h0000gn/T//ccPIz347.s 			page 66

