ARM GAS  /var/folders/19/rz7506jh8xn7x1006s6s574h0000gn/T//cc1AT8CJ.s 			page 1


   1              		.syntax unified
   2              		.cpu cortex-m4
   3              		.fpu softvfp
   4              		.eabi_attribute 20, 1
   5              		.eabi_attribute 21, 1
   6              		.eabi_attribute 23, 3
   7              		.eabi_attribute 24, 1
   8              		.eabi_attribute 25, 1
   9              		.eabi_attribute 26, 1
  10              		.eabi_attribute 30, 4
  11              		.eabi_attribute 34, 1
  12              		.eabi_attribute 18, 4
  13              		.thumb
  14              		.file	"adc.c"
  15              		.text
  16              	.Ltext0:
  17              		.cfi_sections	.debug_frame
  18              		.section	.text.MX_ADC1_Init,"ax",%progbits
  19              		.align	1
  20              		.global	MX_ADC1_Init
  21              		.thumb
  22              		.thumb_func
  24              	MX_ADC1_Init:
  25              	.LFB63:
  26              		.file 1 "Src/adc.c"
   1:Src/adc.c     **** /**
   2:Src/adc.c     ****   ******************************************************************************
   3:Src/adc.c     ****   * File Name          : ADC.c
   4:Src/adc.c     ****   * Description        : This file provides code for the configuration
   5:Src/adc.c     ****   *                      of the ADC instances.
   6:Src/adc.c     ****   ******************************************************************************
   7:Src/adc.c     ****   *
   8:Src/adc.c     ****   * COPYRIGHT(c) 2016 STMicroelectronics
   9:Src/adc.c     ****   *
  10:Src/adc.c     ****   * Redistribution and use in source and binary forms, with or without modification,
  11:Src/adc.c     ****   * are permitted provided that the following conditions are met:
  12:Src/adc.c     ****   *   1. Redistributions of source code must retain the above copyright notice,
  13:Src/adc.c     ****   *      this list of conditions and the following disclaimer.
  14:Src/adc.c     ****   *   2. Redistributions in binary form must reproduce the above copyright notice,
  15:Src/adc.c     ****   *      this list of conditions and the following disclaimer in the documentation
  16:Src/adc.c     ****   *      and/or other materials provided with the distribution.
  17:Src/adc.c     ****   *   3. Neither the name of STMicroelectronics nor the names of its contributors
  18:Src/adc.c     ****   *      may be used to endorse or promote products derived from this software
  19:Src/adc.c     ****   *      without specific prior written permission.
  20:Src/adc.c     ****   *
  21:Src/adc.c     ****   * THIS SOFTWARE IS PROVIDED BY THE COPYRIGHT HOLDERS AND CONTRIBUTORS "AS IS"
  22:Src/adc.c     ****   * AND ANY EXPRESS OR IMPLIED WARRANTIES, INCLUDING, BUT NOT LIMITED TO, THE
  23:Src/adc.c     ****   * IMPLIED WARRANTIES OF MERCHANTABILITY AND FITNESS FOR A PARTICULAR PURPOSE ARE
  24:Src/adc.c     ****   * DISCLAIMED. IN NO EVENT SHALL THE COPYRIGHT HOLDER OR CONTRIBUTORS BE LIABLE
  25:Src/adc.c     ****   * FOR ANY DIRECT, INDIRECT, INCIDENTAL, SPECIAL, EXEMPLARY, OR CONSEQUENTIAL
  26:Src/adc.c     ****   * DAMAGES (INCLUDING, BUT NOT LIMITED TO, PROCUREMENT OF SUBSTITUTE GOODS OR
  27:Src/adc.c     ****   * SERVICES; LOSS OF USE, DATA, OR PROFITS; OR BUSINESS INTERRUPTION) HOWEVER
  28:Src/adc.c     ****   * CAUSED AND ON ANY THEORY OF LIABILITY, WHETHER IN CONTRACT, STRICT LIABILITY,
  29:Src/adc.c     ****   * OR TORT (INCLUDING NEGLIGENCE OR OTHERWISE) ARISING IN ANY WAY OUT OF THE USE
  30:Src/adc.c     ****   * OF THIS SOFTWARE, EVEN IF ADVISED OF THE POSSIBILITY OF SUCH DAMAGE.
  31:Src/adc.c     ****   *
  32:Src/adc.c     ****   ******************************************************************************
ARM GAS  /var/folders/19/rz7506jh8xn7x1006s6s574h0000gn/T//cc1AT8CJ.s 			page 2


  33:Src/adc.c     ****   */
  34:Src/adc.c     **** 
  35:Src/adc.c     **** /* Includes ------------------------------------------------------------------*/
  36:Src/adc.c     **** #include "adc.h"
  37:Src/adc.c     **** 
  38:Src/adc.c     **** #include "gpio.h"
  39:Src/adc.c     **** 
  40:Src/adc.c     **** /* USER CODE BEGIN 0 */
  41:Src/adc.c     **** 
  42:Src/adc.c     **** /* USER CODE END 0 */
  43:Src/adc.c     **** 
  44:Src/adc.c     **** ADC_HandleTypeDef hadc1;
  45:Src/adc.c     **** 
  46:Src/adc.c     **** /* ADC1 init function */
  47:Src/adc.c     **** void MX_ADC1_Init(void)
  48:Src/adc.c     **** {
  27              		.loc 1 48 0
  28              		.cfi_startproc
  29              		@ args = 0, pretend = 0, frame = 16
  30              		@ frame_needed = 0, uses_anonymous_args = 0
  31 0000 30B5     		push	{r4, r5, lr}
  32              	.LCFI0:
  33              		.cfi_def_cfa_offset 12
  34              		.cfi_offset 4, -12
  35              		.cfi_offset 5, -8
  36              		.cfi_offset 14, -4
  49:Src/adc.c     ****   ADC_ChannelConfTypeDef sConfig;
  50:Src/adc.c     **** 
  51:Src/adc.c     ****     /**Common config 
  52:Src/adc.c     ****     */
  53:Src/adc.c     ****   hadc1.Instance = ADC1;
  37              		.loc 1 53 0
  38 0002 0F48     		ldr	r0, .L11
  39 0004 0F4B     		ldr	r3, .L11+4
  40 0006 0360     		str	r3, [r0]
  54:Src/adc.c     ****   hadc1.Init.ScanConvMode = ADC_SCAN_DISABLE;
  41              		.loc 1 54 0
  42 0008 0024     		movs	r4, #0
  48:Src/adc.c     **** {
  43              		.loc 1 48 0
  44 000a 85B0     		sub	sp, sp, #20
  45              	.LCFI1:
  46              		.cfi_def_cfa_offset 32
  55:Src/adc.c     ****   hadc1.Init.ContinuousConvMode = DISABLE;
  56:Src/adc.c     ****   hadc1.Init.DiscontinuousConvMode = DISABLE;
  57:Src/adc.c     ****   hadc1.Init.ExternalTrigConv = ADC_SOFTWARE_START;
  47              		.loc 1 57 0
  48 000c 4FF46023 		mov	r3, #917504
  58:Src/adc.c     ****   hadc1.Init.DataAlign = ADC_DATAALIGN_RIGHT;
  59:Src/adc.c     ****   hadc1.Init.NbrOfConversion = 1;
  49              		.loc 1 59 0
  50 0010 0125     		movs	r5, #1
  54:Src/adc.c     ****   hadc1.Init.ScanConvMode = ADC_SCAN_DISABLE;
  51              		.loc 1 54 0
  52 0012 8460     		str	r4, [r0, #8]
  55:Src/adc.c     ****   hadc1.Init.ContinuousConvMode = DISABLE;
  53              		.loc 1 55 0
ARM GAS  /var/folders/19/rz7506jh8xn7x1006s6s574h0000gn/T//cc1AT8CJ.s 			page 3


  54 0014 C460     		str	r4, [r0, #12]
  56:Src/adc.c     ****   hadc1.Init.DiscontinuousConvMode = DISABLE;
  55              		.loc 1 56 0
  56 0016 4461     		str	r4, [r0, #20]
  57:Src/adc.c     ****   hadc1.Init.ExternalTrigConv = ADC_SOFTWARE_START;
  57              		.loc 1 57 0
  58 0018 C361     		str	r3, [r0, #28]
  58:Src/adc.c     ****   hadc1.Init.DataAlign = ADC_DATAALIGN_RIGHT;
  59              		.loc 1 58 0
  60 001a 4460     		str	r4, [r0, #4]
  61              		.loc 1 59 0
  62 001c 0561     		str	r5, [r0, #16]
  60:Src/adc.c     ****   if (HAL_ADC_Init(&hadc1) != HAL_OK)
  63              		.loc 1 60 0
  64 001e FFF7FEFF 		bl	HAL_ADC_Init
  65              	.LVL0:
  66 0022 08B1     		cbz	r0, .L2
  61:Src/adc.c     ****   {
  62:Src/adc.c     ****     Error_Handler();
  67              		.loc 1 62 0
  68 0024 FFF7FEFF 		bl	Error_Handler
  69              	.LVL1:
  70              	.L2:
  63:Src/adc.c     ****   }
  64:Src/adc.c     **** 
  65:Src/adc.c     ****     /**Configure Regular Channel 
  66:Src/adc.c     ****     */
  67:Src/adc.c     ****   sConfig.Channel = ADC_CHANNEL_0;
  68:Src/adc.c     ****   sConfig.Rank = 1;
  69:Src/adc.c     ****   sConfig.SamplingTime = ADC_SAMPLETIME_1CYCLE_5;
  70:Src/adc.c     ****   if (HAL_ADC_ConfigChannel(&hadc1, &sConfig) != HAL_OK)
  71              		.loc 1 70 0
  72 0028 0548     		ldr	r0, .L11
  67:Src/adc.c     ****   sConfig.Channel = ADC_CHANNEL_0;
  73              		.loc 1 67 0
  74 002a 0194     		str	r4, [sp, #4]
  75              		.loc 1 70 0
  76 002c 01A9     		add	r1, sp, #4
  68:Src/adc.c     ****   sConfig.Rank = 1;
  77              		.loc 1 68 0
  78 002e 0295     		str	r5, [sp, #8]
  69:Src/adc.c     ****   sConfig.SamplingTime = ADC_SAMPLETIME_1CYCLE_5;
  79              		.loc 1 69 0
  80 0030 0394     		str	r4, [sp, #12]
  81              		.loc 1 70 0
  82 0032 FFF7FEFF 		bl	HAL_ADC_ConfigChannel
  83              	.LVL2:
  84 0036 08B1     		cbz	r0, .L1
  71:Src/adc.c     ****   {
  72:Src/adc.c     ****     Error_Handler();
  85              		.loc 1 72 0
  86 0038 FFF7FEFF 		bl	Error_Handler
  87              	.LVL3:
  88              	.L1:
  73:Src/adc.c     ****   }
  74:Src/adc.c     **** 
  75:Src/adc.c     **** }
ARM GAS  /var/folders/19/rz7506jh8xn7x1006s6s574h0000gn/T//cc1AT8CJ.s 			page 4


  89              		.loc 1 75 0
  90 003c 05B0     		add	sp, sp, #20
  91              		@ sp needed
  92 003e 30BD     		pop	{r4, r5, pc}
  93              	.L12:
  94              		.align	2
  95              	.L11:
  96 0040 00000000 		.word	hadc1
  97 0044 00240140 		.word	1073816576
  98              		.cfi_endproc
  99              	.LFE63:
 101              		.section	.text.HAL_ADC_MspInit,"ax",%progbits
 102              		.align	1
 103              		.global	HAL_ADC_MspInit
 104              		.thumb
 105              		.thumb_func
 107              	HAL_ADC_MspInit:
 108              	.LFB64:
  76:Src/adc.c     **** 
  77:Src/adc.c     **** void HAL_ADC_MspInit(ADC_HandleTypeDef* adcHandle)
  78:Src/adc.c     **** {
 109              		.loc 1 78 0
 110              		.cfi_startproc
 111              		@ args = 0, pretend = 0, frame = 24
 112              		@ frame_needed = 0, uses_anonymous_args = 0
 113              	.LVL4:
 114 0000 7FB5     		push	{r0, r1, r2, r3, r4, r5, r6, lr}
 115              	.LCFI2:
 116              		.cfi_def_cfa_offset 32
 117              		.cfi_offset 0, -32
 118              		.cfi_offset 1, -28
 119              		.cfi_offset 2, -24
 120              		.cfi_offset 3, -20
 121              		.cfi_offset 4, -16
 122              		.cfi_offset 5, -12
 123              		.cfi_offset 6, -8
 124              		.cfi_offset 14, -4
  79:Src/adc.c     **** 
  80:Src/adc.c     ****   GPIO_InitTypeDef GPIO_InitStruct;
  81:Src/adc.c     ****   if(adcHandle->Instance==ADC1)
 125              		.loc 1 81 0
 126 0002 0268     		ldr	r2, [r0]
 127 0004 0C4B     		ldr	r3, .L15
 128 0006 9A42     		cmp	r2, r3
 129 0008 12D1     		bne	.L13
 130              	.LBB2:
  82:Src/adc.c     ****   {
  83:Src/adc.c     ****   /* USER CODE BEGIN ADC1_MspInit 0 */
  84:Src/adc.c     **** 
  85:Src/adc.c     ****   /* USER CODE END ADC1_MspInit 0 */
  86:Src/adc.c     ****     /* Peripheral clock enable */
  87:Src/adc.c     ****     __HAL_RCC_ADC1_CLK_ENABLE();
 131              		.loc 1 87 0
 132 000a 03F56C43 		add	r3, r3, #60416
 133              	.LBE2:
  88:Src/adc.c     ****   
  89:Src/adc.c     ****     /**ADC1 GPIO Configuration    
ARM GAS  /var/folders/19/rz7506jh8xn7x1006s6s574h0000gn/T//cc1AT8CJ.s 			page 5


  90:Src/adc.c     ****     PA0-WKUP     ------> ADC1_IN0 
  91:Src/adc.c     ****     */
  92:Src/adc.c     ****     GPIO_InitStruct.Pin = GPIO_PIN_0;
  93:Src/adc.c     ****     GPIO_InitStruct.Mode = GPIO_MODE_ANALOG;
  94:Src/adc.c     ****     HAL_GPIO_Init(GPIOA, &GPIO_InitStruct);
 134              		.loc 1 94 0
 135 000e 0B48     		ldr	r0, .L15+4
 136              	.LVL5:
 137              	.LBB3:
  87:Src/adc.c     ****     __HAL_RCC_ADC1_CLK_ENABLE();
 138              		.loc 1 87 0
 139 0010 9A69     		ldr	r2, [r3, #24]
 140 0012 42F40072 		orr	r2, r2, #512
 141 0016 9A61     		str	r2, [r3, #24]
 142 0018 9B69     		ldr	r3, [r3, #24]
 143 001a 03F40073 		and	r3, r3, #512
 144 001e 0193     		str	r3, [sp, #4]
 145 0020 019B     		ldr	r3, [sp, #4]
 146              	.LBE3:
  92:Src/adc.c     ****     GPIO_InitStruct.Pin = GPIO_PIN_0;
 147              		.loc 1 92 0
 148 0022 0123     		movs	r3, #1
 149 0024 0293     		str	r3, [sp, #8]
 150              		.loc 1 94 0
 151 0026 02A9     		add	r1, sp, #8
  93:Src/adc.c     ****     GPIO_InitStruct.Mode = GPIO_MODE_ANALOG;
 152              		.loc 1 93 0
 153 0028 0323     		movs	r3, #3
 154 002a 0393     		str	r3, [sp, #12]
 155              		.loc 1 94 0
 156 002c FFF7FEFF 		bl	HAL_GPIO_Init
 157              	.LVL6:
 158              	.L13:
  95:Src/adc.c     **** 
  96:Src/adc.c     ****   /* USER CODE BEGIN ADC1_MspInit 1 */
  97:Src/adc.c     **** 
  98:Src/adc.c     ****   /* USER CODE END ADC1_MspInit 1 */
  99:Src/adc.c     ****   }
 100:Src/adc.c     **** }
 159              		.loc 1 100 0
 160 0030 07B0     		add	sp, sp, #28
 161              		@ sp needed
 162 0032 5DF804FB 		ldr	pc, [sp], #4
 163              	.L16:
 164 0036 00BF     		.align	2
 165              	.L15:
 166 0038 00240140 		.word	1073816576
 167 003c 00080140 		.word	1073809408
 168              		.cfi_endproc
 169              	.LFE64:
 171              		.section	.text.HAL_ADC_MspDeInit,"ax",%progbits
 172              		.align	1
 173              		.global	HAL_ADC_MspDeInit
 174              		.thumb
 175              		.thumb_func
 177              	HAL_ADC_MspDeInit:
 178              	.LFB65:
ARM GAS  /var/folders/19/rz7506jh8xn7x1006s6s574h0000gn/T//cc1AT8CJ.s 			page 6


 101:Src/adc.c     **** 
 102:Src/adc.c     **** void HAL_ADC_MspDeInit(ADC_HandleTypeDef* adcHandle)
 103:Src/adc.c     **** {
 179              		.loc 1 103 0
 180              		.cfi_startproc
 181              		@ args = 0, pretend = 0, frame = 0
 182              		@ frame_needed = 0, uses_anonymous_args = 0
 183              		@ link register save eliminated.
 184              	.LVL7:
 104:Src/adc.c     **** 
 105:Src/adc.c     ****   if(adcHandle->Instance==ADC1)
 185              		.loc 1 105 0
 186 0000 0268     		ldr	r2, [r0]
 187 0002 074B     		ldr	r3, .L19
 188 0004 9A42     		cmp	r2, r3
 189 0006 09D1     		bne	.L17
 106:Src/adc.c     ****   {
 107:Src/adc.c     ****   /* USER CODE BEGIN ADC1_MspDeInit 0 */
 108:Src/adc.c     **** 
 109:Src/adc.c     ****   /* USER CODE END ADC1_MspDeInit 0 */
 110:Src/adc.c     ****     /* Peripheral clock disable */
 111:Src/adc.c     ****     __HAL_RCC_ADC1_CLK_DISABLE();
 190              		.loc 1 111 0
 191 0008 03F56C43 		add	r3, r3, #60416
 112:Src/adc.c     ****   
 113:Src/adc.c     ****     /**ADC1 GPIO Configuration    
 114:Src/adc.c     ****     PA0-WKUP     ------> ADC1_IN0 
 115:Src/adc.c     ****     */
 116:Src/adc.c     ****     HAL_GPIO_DeInit(GPIOA, GPIO_PIN_0);
 192              		.loc 1 116 0
 193 000c 0548     		ldr	r0, .L19+4
 194              	.LVL8:
 111:Src/adc.c     ****     __HAL_RCC_ADC1_CLK_DISABLE();
 195              		.loc 1 111 0
 196 000e 9A69     		ldr	r2, [r3, #24]
 197 0010 22F40072 		bic	r2, r2, #512
 198 0014 9A61     		str	r2, [r3, #24]
 199              		.loc 1 116 0
 200 0016 0121     		movs	r1, #1
 201 0018 FFF7FEBF 		b	HAL_GPIO_DeInit
 202              	.LVL9:
 203              	.L17:
 204 001c 7047     		bx	lr
 205              	.L20:
 206 001e 00BF     		.align	2
 207              	.L19:
 208 0020 00240140 		.word	1073816576
 209 0024 00080140 		.word	1073809408
 210              		.cfi_endproc
 211              	.LFE65:
 213              		.comm	hadc1,48,4
 214              		.text
 215              	.Letext0:
 216              		.file 2 "/Users/Arethusa/Library/Arduino15/packages/arduino/tools/arm-none-eabi-gcc/4.8.3-2014q1/a
 217              		.file 3 "/Users/Arethusa/Library/Arduino15/packages/arduino/tools/arm-none-eabi-gcc/4.8.3-2014q1/a
 218              		.file 4 "Drivers/CMSIS/Device/ST/STM32F1xx/Include/stm32f103xe.h"
 219              		.file 5 "Drivers/CMSIS/Device/ST/STM32F1xx/Include/stm32f1xx.h"
ARM GAS  /var/folders/19/rz7506jh8xn7x1006s6s574h0000gn/T//cc1AT8CJ.s 			page 7


 220              		.file 6 "Drivers/STM32F1xx_HAL_Driver/Inc/stm32f1xx_hal_def.h"
 221              		.file 7 "Drivers/STM32F1xx_HAL_Driver/Inc/stm32f1xx_hal_gpio.h"
 222              		.file 8 "Drivers/STM32F1xx_HAL_Driver/Inc/stm32f1xx_hal_dma.h"
 223              		.file 9 "Drivers/STM32F1xx_HAL_Driver/Inc/stm32f1xx_hal_adc.h"
 224              		.file 10 "Drivers/CMSIS/Include/core_cm3.h"
 225              		.file 11 "Inc/adc.h"
ARM GAS  /var/folders/19/rz7506jh8xn7x1006s6s574h0000gn/T//cc1AT8CJ.s 			page 8

