ARM GAS  /var/folders/19/rz7506jh8xn7x1006s6s574h0000gn/T//ccfrACiL.s 			page 1


   1              		.syntax unified
   2              		.cpu cortex-m4
   3              		.fpu softvfp
   4              		.eabi_attribute 20, 1
   5              		.eabi_attribute 21, 1
   6              		.eabi_attribute 23, 3
   7              		.eabi_attribute 24, 1
   8              		.eabi_attribute 25, 1
   9              		.eabi_attribute 26, 1
  10              		.eabi_attribute 30, 4
  11              		.eabi_attribute 34, 1
  12              		.eabi_attribute 18, 4
  13              		.thumb
  14              		.file	"dtostrf.c"
  15              		.text
  16              	.Ltext0:
  17              		.cfi_sections	.debug_frame
  18              		.section	.text.dtostrf,"ax",%progbits
  19              		.align	1
  20              		.global	dtostrf
  21              		.thumb
  22              		.thumb_func
  24              	dtostrf:
  25              	.LFB0:
  26              		.file 1 "../../cores/mapleMX/avr/dtostrf.c"
   1:../../cores/mapleMX/avr/dtostrf.c **** /*
   2:../../cores/mapleMX/avr/dtostrf.c ****   dtostrf - Emulation for dtostrf function from avr-libc
   3:../../cores/mapleMX/avr/dtostrf.c ****   Copyright (c) 2013 Arduino.  All rights reserved.
   4:../../cores/mapleMX/avr/dtostrf.c ****   Written by Cristian Maglie <c.maglie@arduino.cc>
   5:../../cores/mapleMX/avr/dtostrf.c **** 
   6:../../cores/mapleMX/avr/dtostrf.c ****   This library is free software; you can redistribute it and/or
   7:../../cores/mapleMX/avr/dtostrf.c ****   modify it under the terms of the GNU Lesser General Public
   8:../../cores/mapleMX/avr/dtostrf.c ****   License as published by the Free Software Foundation; either
   9:../../cores/mapleMX/avr/dtostrf.c ****   version 2.1 of the License, or (at your option) any later version.
  10:../../cores/mapleMX/avr/dtostrf.c **** 
  11:../../cores/mapleMX/avr/dtostrf.c ****   This library is distributed in the hope that it will be useful,
  12:../../cores/mapleMX/avr/dtostrf.c ****   but WITHOUT ANY WARRANTY; without even the implied warranty of
  13:../../cores/mapleMX/avr/dtostrf.c ****   MERCHANTABILITY or FITNESS FOR A PARTICULAR PURPOSE.  See the GNU
  14:../../cores/mapleMX/avr/dtostrf.c ****   Lesser General Public License for more details.
  15:../../cores/mapleMX/avr/dtostrf.c **** 
  16:../../cores/mapleMX/avr/dtostrf.c ****   You should have received a copy of the GNU Lesser General Public
  17:../../cores/mapleMX/avr/dtostrf.c ****   License along with this library; if not, write to the Free Software
  18:../../cores/mapleMX/avr/dtostrf.c ****   Foundation, Inc., 51 Franklin St, Fifth Floor, Boston, MA  02110-1301  USA
  19:../../cores/mapleMX/avr/dtostrf.c **** */
  20:../../cores/mapleMX/avr/dtostrf.c **** 
  21:../../cores/mapleMX/avr/dtostrf.c **** #include <stdio.h>
  22:../../cores/mapleMX/avr/dtostrf.c **** 
  23:../../cores/mapleMX/avr/dtostrf.c **** char *dtostrf (double val, signed char width, unsigned char prec, char *sout) {
  27              		.loc 1 23 0
  28              		.cfi_startproc
  29              		@ args = 4, pretend = 0, frame = 24
  30              		@ frame_needed = 0, uses_anonymous_args = 0
  31              	.LVL0:
  32 0000 70B5     		push	{r4, r5, r6, lr}
  33              	.LCFI0:
  34              		.cfi_def_cfa_offset 16
  35              		.cfi_offset 4, -16
ARM GAS  /var/folders/19/rz7506jh8xn7x1006s6s574h0000gn/T//ccfrACiL.s 			page 2


  36              		.cfi_offset 5, -12
  37              		.cfi_offset 6, -8
  38              		.cfi_offset 14, -4
  39 0002 86B0     		sub	sp, sp, #24
  40              	.LCFI1:
  41              		.cfi_def_cfa_offset 40
  42              		.loc 1 23 0
  43 0004 0446     		mov	r4, r0
  44 0006 0A9E     		ldr	r6, [sp, #40]
  45 0008 0D46     		mov	r5, r1
  24:../../cores/mapleMX/avr/dtostrf.c ****   char fmt[20];
  25:../../cores/mapleMX/avr/dtostrf.c ****   sprintf(fmt, "%%%d.%df", width, prec);
  46              		.loc 1 25 0
  47 000a 01A8     		add	r0, sp, #4
  48              	.LVL1:
  49 000c 0549     		ldr	r1, .L2
  50 000e FFF7FEFF 		bl	sprintf
  51              	.LVL2:
  26:../../cores/mapleMX/avr/dtostrf.c ****   sprintf(sout, fmt, val);
  52              		.loc 1 26 0
  53 0012 3046     		mov	r0, r6
  54 0014 01A9     		add	r1, sp, #4
  55 0016 2246     		mov	r2, r4
  56 0018 2B46     		mov	r3, r5
  57 001a FFF7FEFF 		bl	sprintf
  58              	.LVL3:
  27:../../cores/mapleMX/avr/dtostrf.c ****   return sout;
  28:../../cores/mapleMX/avr/dtostrf.c **** }
  59              		.loc 1 28 0
  60 001e 3046     		mov	r0, r6
  61 0020 06B0     		add	sp, sp, #24
  62              		@ sp needed
  63 0022 70BD     		pop	{r4, r5, r6, pc}
  64              	.LVL4:
  65              	.L3:
  66              		.align	2
  67              	.L2:
  68 0024 00000000 		.word	.LC0
  69              		.cfi_endproc
  70              	.LFE0:
  72              		.section	.rodata.str1.1,"aMS",%progbits,1
  73              	.LC0:
  74 0000 25252564 		.ascii	"%%%d.%df\000"
  74      2E256466 
  74      00
  75              		.text
  76              	.Letext0:
  77              		.file 2 "/Users/Arethusa/Library/Arduino15/packages/arduino/tools/arm-none-eabi-gcc/4.8.3-2014q1/a
ARM GAS  /var/folders/19/rz7506jh8xn7x1006s6s574h0000gn/T//ccfrACiL.s 			page 3

