ARM GAS  /var/folders/19/rz7506jh8xn7x1006s6s574h0000gn/T//ccoB5ljA.s 			page 1


   1              		.syntax unified
   2              		.cpu cortex-m4
   3              		.fpu softvfp
   4              		.eabi_attribute 20, 1
   5              		.eabi_attribute 21, 1
   6              		.eabi_attribute 23, 3
   7              		.eabi_attribute 24, 1
   8              		.eabi_attribute 25, 1
   9              		.eabi_attribute 26, 1
  10              		.eabi_attribute 30, 4
  11              		.eabi_attribute 34, 1
  12              		.eabi_attribute 18, 4
  13              		.thumb
  14              		.file	"stm32f1xx_hal_pwr.c"
  15              		.text
  16              	.Ltext0:
  17              		.cfi_sections	.debug_frame
  18              		.section	.text.PWR_OverloadWfe,"ax",%progbits
  19              		.align	1
  20              		.thumb
  21              		.thumb_func
  23              	PWR_OverloadWfe:
  24              	.LFB63:
  25              		.file 1 "Drivers/STM32F1xx_HAL_Driver/Src/stm32f1xx_hal_pwr.c"
   1:Drivers/STM32F1xx_HAL_Driver/Src/stm32f1xx_hal_pwr.c **** /**
   2:Drivers/STM32F1xx_HAL_Driver/Src/stm32f1xx_hal_pwr.c ****   ******************************************************************************
   3:Drivers/STM32F1xx_HAL_Driver/Src/stm32f1xx_hal_pwr.c ****   * @file    stm32f1xx_hal_pwr.c
   4:Drivers/STM32F1xx_HAL_Driver/Src/stm32f1xx_hal_pwr.c ****   * @author  MCD Application Team
   5:Drivers/STM32F1xx_HAL_Driver/Src/stm32f1xx_hal_pwr.c ****   * @version V1.0.4
   6:Drivers/STM32F1xx_HAL_Driver/Src/stm32f1xx_hal_pwr.c ****   * @date    29-April-2016
   7:Drivers/STM32F1xx_HAL_Driver/Src/stm32f1xx_hal_pwr.c ****   * @brief   PWR HAL module driver.
   8:Drivers/STM32F1xx_HAL_Driver/Src/stm32f1xx_hal_pwr.c ****   *
   9:Drivers/STM32F1xx_HAL_Driver/Src/stm32f1xx_hal_pwr.c ****   *          This file provides firmware functions to manage the following
  10:Drivers/STM32F1xx_HAL_Driver/Src/stm32f1xx_hal_pwr.c ****   *          functionalities of the Power Controller (PWR) peripheral:
  11:Drivers/STM32F1xx_HAL_Driver/Src/stm32f1xx_hal_pwr.c ****   *           + Initialization/de-initialization functions
  12:Drivers/STM32F1xx_HAL_Driver/Src/stm32f1xx_hal_pwr.c ****   *           + Peripheral Control functions 
  13:Drivers/STM32F1xx_HAL_Driver/Src/stm32f1xx_hal_pwr.c ****   *
  14:Drivers/STM32F1xx_HAL_Driver/Src/stm32f1xx_hal_pwr.c ****   ******************************************************************************
  15:Drivers/STM32F1xx_HAL_Driver/Src/stm32f1xx_hal_pwr.c ****   * @attention
  16:Drivers/STM32F1xx_HAL_Driver/Src/stm32f1xx_hal_pwr.c ****   *
  17:Drivers/STM32F1xx_HAL_Driver/Src/stm32f1xx_hal_pwr.c ****   * <h2><center>&copy; COPYRIGHT(c) 2016 STMicroelectronics</center></h2>
  18:Drivers/STM32F1xx_HAL_Driver/Src/stm32f1xx_hal_pwr.c ****   *
  19:Drivers/STM32F1xx_HAL_Driver/Src/stm32f1xx_hal_pwr.c ****   * Redistribution and use in source and binary forms, with or without modification,
  20:Drivers/STM32F1xx_HAL_Driver/Src/stm32f1xx_hal_pwr.c ****   * are permitted provided that the following conditions are met:
  21:Drivers/STM32F1xx_HAL_Driver/Src/stm32f1xx_hal_pwr.c ****   *   1. Redistributions of source code must retain the above copyright notice,
  22:Drivers/STM32F1xx_HAL_Driver/Src/stm32f1xx_hal_pwr.c ****   *      this list of conditions and the following disclaimer.
  23:Drivers/STM32F1xx_HAL_Driver/Src/stm32f1xx_hal_pwr.c ****   *   2. Redistributions in binary form must reproduce the above copyright notice,
  24:Drivers/STM32F1xx_HAL_Driver/Src/stm32f1xx_hal_pwr.c ****   *      this list of conditions and the following disclaimer in the documentation
  25:Drivers/STM32F1xx_HAL_Driver/Src/stm32f1xx_hal_pwr.c ****   *      and/or other materials provided with the distribution.
  26:Drivers/STM32F1xx_HAL_Driver/Src/stm32f1xx_hal_pwr.c ****   *   3. Neither the name of STMicroelectronics nor the names of its contributors
  27:Drivers/STM32F1xx_HAL_Driver/Src/stm32f1xx_hal_pwr.c ****   *      may be used to endorse or promote products derived from this software
  28:Drivers/STM32F1xx_HAL_Driver/Src/stm32f1xx_hal_pwr.c ****   *      without specific prior written permission.
  29:Drivers/STM32F1xx_HAL_Driver/Src/stm32f1xx_hal_pwr.c ****   *
  30:Drivers/STM32F1xx_HAL_Driver/Src/stm32f1xx_hal_pwr.c ****   * THIS SOFTWARE IS PROVIDED BY THE COPYRIGHT HOLDERS AND CONTRIBUTORS "AS IS"
  31:Drivers/STM32F1xx_HAL_Driver/Src/stm32f1xx_hal_pwr.c ****   * AND ANY EXPRESS OR IMPLIED WARRANTIES, INCLUDING, BUT NOT LIMITED TO, THE
  32:Drivers/STM32F1xx_HAL_Driver/Src/stm32f1xx_hal_pwr.c ****   * IMPLIED WARRANTIES OF MERCHANTABILITY AND FITNESS FOR A PARTICULAR PURPOSE ARE
  33:Drivers/STM32F1xx_HAL_Driver/Src/stm32f1xx_hal_pwr.c ****   * DISCLAIMED. IN NO EVENT SHALL THE COPYRIGHT HOLDER OR CONTRIBUTORS BE LIABLE
ARM GAS  /var/folders/19/rz7506jh8xn7x1006s6s574h0000gn/T//ccoB5ljA.s 			page 2


  34:Drivers/STM32F1xx_HAL_Driver/Src/stm32f1xx_hal_pwr.c ****   * FOR ANY DIRECT, INDIRECT, INCIDENTAL, SPECIAL, EXEMPLARY, OR CONSEQUENTIAL
  35:Drivers/STM32F1xx_HAL_Driver/Src/stm32f1xx_hal_pwr.c ****   * DAMAGES (INCLUDING, BUT NOT LIMITED TO, PROCUREMENT OF SUBSTITUTE GOODS OR
  36:Drivers/STM32F1xx_HAL_Driver/Src/stm32f1xx_hal_pwr.c ****   * SERVICES; LOSS OF USE, DATA, OR PROFITS; OR BUSINESS INTERRUPTION) HOWEVER
  37:Drivers/STM32F1xx_HAL_Driver/Src/stm32f1xx_hal_pwr.c ****   * CAUSED AND ON ANY THEORY OF LIABILITY, WHETHER IN CONTRACT, STRICT LIABILITY,
  38:Drivers/STM32F1xx_HAL_Driver/Src/stm32f1xx_hal_pwr.c ****   * OR TORT (INCLUDING NEGLIGENCE OR OTHERWISE) ARISING IN ANY WAY OUT OF THE USE
  39:Drivers/STM32F1xx_HAL_Driver/Src/stm32f1xx_hal_pwr.c ****   * OF THIS SOFTWARE, EVEN IF ADVISED OF THE POSSIBILITY OF SUCH DAMAGE.
  40:Drivers/STM32F1xx_HAL_Driver/Src/stm32f1xx_hal_pwr.c ****   *
  41:Drivers/STM32F1xx_HAL_Driver/Src/stm32f1xx_hal_pwr.c ****   ******************************************************************************
  42:Drivers/STM32F1xx_HAL_Driver/Src/stm32f1xx_hal_pwr.c ****   */
  43:Drivers/STM32F1xx_HAL_Driver/Src/stm32f1xx_hal_pwr.c **** 
  44:Drivers/STM32F1xx_HAL_Driver/Src/stm32f1xx_hal_pwr.c **** /* Includes ------------------------------------------------------------------*/
  45:Drivers/STM32F1xx_HAL_Driver/Src/stm32f1xx_hal_pwr.c **** #include "stm32f1xx_hal.h"
  46:Drivers/STM32F1xx_HAL_Driver/Src/stm32f1xx_hal_pwr.c **** 
  47:Drivers/STM32F1xx_HAL_Driver/Src/stm32f1xx_hal_pwr.c **** /** @addtogroup STM32F1xx_HAL_Driver
  48:Drivers/STM32F1xx_HAL_Driver/Src/stm32f1xx_hal_pwr.c ****   * @{
  49:Drivers/STM32F1xx_HAL_Driver/Src/stm32f1xx_hal_pwr.c ****   */
  50:Drivers/STM32F1xx_HAL_Driver/Src/stm32f1xx_hal_pwr.c **** 
  51:Drivers/STM32F1xx_HAL_Driver/Src/stm32f1xx_hal_pwr.c **** /** @defgroup PWR PWR
  52:Drivers/STM32F1xx_HAL_Driver/Src/stm32f1xx_hal_pwr.c ****   * @brief    PWR HAL module driver
  53:Drivers/STM32F1xx_HAL_Driver/Src/stm32f1xx_hal_pwr.c ****   * @{
  54:Drivers/STM32F1xx_HAL_Driver/Src/stm32f1xx_hal_pwr.c ****   */
  55:Drivers/STM32F1xx_HAL_Driver/Src/stm32f1xx_hal_pwr.c **** 
  56:Drivers/STM32F1xx_HAL_Driver/Src/stm32f1xx_hal_pwr.c **** #ifdef HAL_PWR_MODULE_ENABLED
  57:Drivers/STM32F1xx_HAL_Driver/Src/stm32f1xx_hal_pwr.c **** 
  58:Drivers/STM32F1xx_HAL_Driver/Src/stm32f1xx_hal_pwr.c **** /* Private typedef -----------------------------------------------------------*/
  59:Drivers/STM32F1xx_HAL_Driver/Src/stm32f1xx_hal_pwr.c **** /* Private define ------------------------------------------------------------*/
  60:Drivers/STM32F1xx_HAL_Driver/Src/stm32f1xx_hal_pwr.c **** 
  61:Drivers/STM32F1xx_HAL_Driver/Src/stm32f1xx_hal_pwr.c **** /** @defgroup PWR_Private_Constants PWR Private Constants
  62:Drivers/STM32F1xx_HAL_Driver/Src/stm32f1xx_hal_pwr.c ****   * @{
  63:Drivers/STM32F1xx_HAL_Driver/Src/stm32f1xx_hal_pwr.c ****   */
  64:Drivers/STM32F1xx_HAL_Driver/Src/stm32f1xx_hal_pwr.c ****   
  65:Drivers/STM32F1xx_HAL_Driver/Src/stm32f1xx_hal_pwr.c **** /** @defgroup PWR_PVD_Mode_Mask PWR PVD Mode Mask
  66:Drivers/STM32F1xx_HAL_Driver/Src/stm32f1xx_hal_pwr.c ****   * @{
  67:Drivers/STM32F1xx_HAL_Driver/Src/stm32f1xx_hal_pwr.c ****   */ 
  68:Drivers/STM32F1xx_HAL_Driver/Src/stm32f1xx_hal_pwr.c **** #define PVD_MODE_IT               ((uint32_t)0x00010000)
  69:Drivers/STM32F1xx_HAL_Driver/Src/stm32f1xx_hal_pwr.c **** #define PVD_MODE_EVT              ((uint32_t)0x00020000)
  70:Drivers/STM32F1xx_HAL_Driver/Src/stm32f1xx_hal_pwr.c **** #define PVD_RISING_EDGE           ((uint32_t)0x00000001)
  71:Drivers/STM32F1xx_HAL_Driver/Src/stm32f1xx_hal_pwr.c **** #define PVD_FALLING_EDGE          ((uint32_t)0x00000002)
  72:Drivers/STM32F1xx_HAL_Driver/Src/stm32f1xx_hal_pwr.c **** /**
  73:Drivers/STM32F1xx_HAL_Driver/Src/stm32f1xx_hal_pwr.c ****   * @}
  74:Drivers/STM32F1xx_HAL_Driver/Src/stm32f1xx_hal_pwr.c ****   */
  75:Drivers/STM32F1xx_HAL_Driver/Src/stm32f1xx_hal_pwr.c **** 
  76:Drivers/STM32F1xx_HAL_Driver/Src/stm32f1xx_hal_pwr.c **** 
  77:Drivers/STM32F1xx_HAL_Driver/Src/stm32f1xx_hal_pwr.c **** /** @defgroup PWR_register_alias_address PWR Register alias address
  78:Drivers/STM32F1xx_HAL_Driver/Src/stm32f1xx_hal_pwr.c ****   * @{
  79:Drivers/STM32F1xx_HAL_Driver/Src/stm32f1xx_hal_pwr.c ****   */ 
  80:Drivers/STM32F1xx_HAL_Driver/Src/stm32f1xx_hal_pwr.c **** /* ------------- PWR registers bit address in the alias region ---------------*/
  81:Drivers/STM32F1xx_HAL_Driver/Src/stm32f1xx_hal_pwr.c **** #define PWR_OFFSET               (PWR_BASE - PERIPH_BASE)
  82:Drivers/STM32F1xx_HAL_Driver/Src/stm32f1xx_hal_pwr.c **** #define PWR_CR_OFFSET            0x00
  83:Drivers/STM32F1xx_HAL_Driver/Src/stm32f1xx_hal_pwr.c **** #define PWR_CSR_OFFSET           0x04
  84:Drivers/STM32F1xx_HAL_Driver/Src/stm32f1xx_hal_pwr.c **** #define PWR_CR_OFFSET_BB         (PWR_OFFSET + PWR_CR_OFFSET)
  85:Drivers/STM32F1xx_HAL_Driver/Src/stm32f1xx_hal_pwr.c **** #define PWR_CSR_OFFSET_BB        (PWR_OFFSET + PWR_CSR_OFFSET)
  86:Drivers/STM32F1xx_HAL_Driver/Src/stm32f1xx_hal_pwr.c **** /**
  87:Drivers/STM32F1xx_HAL_Driver/Src/stm32f1xx_hal_pwr.c ****   * @}
  88:Drivers/STM32F1xx_HAL_Driver/Src/stm32f1xx_hal_pwr.c ****   */
  89:Drivers/STM32F1xx_HAL_Driver/Src/stm32f1xx_hal_pwr.c ****    
  90:Drivers/STM32F1xx_HAL_Driver/Src/stm32f1xx_hal_pwr.c **** /** @defgroup PWR_CR_register_alias PWR CR Register alias address
ARM GAS  /var/folders/19/rz7506jh8xn7x1006s6s574h0000gn/T//ccoB5ljA.s 			page 3


  91:Drivers/STM32F1xx_HAL_Driver/Src/stm32f1xx_hal_pwr.c ****   * @{
  92:Drivers/STM32F1xx_HAL_Driver/Src/stm32f1xx_hal_pwr.c ****   */  
  93:Drivers/STM32F1xx_HAL_Driver/Src/stm32f1xx_hal_pwr.c **** /* --- CR Register ---*/
  94:Drivers/STM32F1xx_HAL_Driver/Src/stm32f1xx_hal_pwr.c **** /* Alias word address of LPSDSR bit */
  95:Drivers/STM32F1xx_HAL_Driver/Src/stm32f1xx_hal_pwr.c **** #define LPSDSR_BIT_NUMBER        POSITION_VAL(PWR_CR_LPDS)
  96:Drivers/STM32F1xx_HAL_Driver/Src/stm32f1xx_hal_pwr.c **** #define CR_LPSDSR_BB             ((uint32_t)(PERIPH_BB_BASE + (PWR_CR_OFFSET_BB * 32) + (LPSDSR_BIT
  97:Drivers/STM32F1xx_HAL_Driver/Src/stm32f1xx_hal_pwr.c **** 
  98:Drivers/STM32F1xx_HAL_Driver/Src/stm32f1xx_hal_pwr.c **** /* Alias word address of DBP bit */
  99:Drivers/STM32F1xx_HAL_Driver/Src/stm32f1xx_hal_pwr.c **** #define DBP_BIT_NUMBER            POSITION_VAL(PWR_CR_DBP)
 100:Drivers/STM32F1xx_HAL_Driver/Src/stm32f1xx_hal_pwr.c **** #define CR_DBP_BB                ((uint32_t)(PERIPH_BB_BASE + (PWR_CR_OFFSET_BB * 32) + (DBP_BIT_NU
 101:Drivers/STM32F1xx_HAL_Driver/Src/stm32f1xx_hal_pwr.c **** 
 102:Drivers/STM32F1xx_HAL_Driver/Src/stm32f1xx_hal_pwr.c **** /* Alias word address of PVDE bit */
 103:Drivers/STM32F1xx_HAL_Driver/Src/stm32f1xx_hal_pwr.c **** #define PVDE_BIT_NUMBER           POSITION_VAL(PWR_CR_PVDE)
 104:Drivers/STM32F1xx_HAL_Driver/Src/stm32f1xx_hal_pwr.c **** #define CR_PVDE_BB               ((uint32_t)(PERIPH_BB_BASE + (PWR_CR_OFFSET_BB * 32) + (PVDE_BIT_N
 105:Drivers/STM32F1xx_HAL_Driver/Src/stm32f1xx_hal_pwr.c **** 
 106:Drivers/STM32F1xx_HAL_Driver/Src/stm32f1xx_hal_pwr.c **** /**
 107:Drivers/STM32F1xx_HAL_Driver/Src/stm32f1xx_hal_pwr.c ****   * @}
 108:Drivers/STM32F1xx_HAL_Driver/Src/stm32f1xx_hal_pwr.c ****   */
 109:Drivers/STM32F1xx_HAL_Driver/Src/stm32f1xx_hal_pwr.c **** 
 110:Drivers/STM32F1xx_HAL_Driver/Src/stm32f1xx_hal_pwr.c **** /** @defgroup PWR_CSR_register_alias PWR CSR Register alias address
 111:Drivers/STM32F1xx_HAL_Driver/Src/stm32f1xx_hal_pwr.c ****   * @{
 112:Drivers/STM32F1xx_HAL_Driver/Src/stm32f1xx_hal_pwr.c ****   */
 113:Drivers/STM32F1xx_HAL_Driver/Src/stm32f1xx_hal_pwr.c **** 
 114:Drivers/STM32F1xx_HAL_Driver/Src/stm32f1xx_hal_pwr.c **** /* --- CSR Register ---*/
 115:Drivers/STM32F1xx_HAL_Driver/Src/stm32f1xx_hal_pwr.c **** /* Alias word address of EWUP1 bit */
 116:Drivers/STM32F1xx_HAL_Driver/Src/stm32f1xx_hal_pwr.c **** #define CSR_EWUP_BB(VAL)         ((uint32_t)(PERIPH_BB_BASE + (PWR_CSR_OFFSET_BB * 32) + (POSITION_
 117:Drivers/STM32F1xx_HAL_Driver/Src/stm32f1xx_hal_pwr.c **** /**
 118:Drivers/STM32F1xx_HAL_Driver/Src/stm32f1xx_hal_pwr.c ****   * @}
 119:Drivers/STM32F1xx_HAL_Driver/Src/stm32f1xx_hal_pwr.c ****   */
 120:Drivers/STM32F1xx_HAL_Driver/Src/stm32f1xx_hal_pwr.c ****   
 121:Drivers/STM32F1xx_HAL_Driver/Src/stm32f1xx_hal_pwr.c **** /**
 122:Drivers/STM32F1xx_HAL_Driver/Src/stm32f1xx_hal_pwr.c ****   * @}
 123:Drivers/STM32F1xx_HAL_Driver/Src/stm32f1xx_hal_pwr.c ****   */
 124:Drivers/STM32F1xx_HAL_Driver/Src/stm32f1xx_hal_pwr.c **** 
 125:Drivers/STM32F1xx_HAL_Driver/Src/stm32f1xx_hal_pwr.c **** /* Private variables ---------------------------------------------------------*/
 126:Drivers/STM32F1xx_HAL_Driver/Src/stm32f1xx_hal_pwr.c **** /* Private function prototypes -----------------------------------------------*/
 127:Drivers/STM32F1xx_HAL_Driver/Src/stm32f1xx_hal_pwr.c **** /** @defgroup PWR_Private_Functions PWR Private Functions
 128:Drivers/STM32F1xx_HAL_Driver/Src/stm32f1xx_hal_pwr.c ****  * brief   WFE cortex command overloaded for HAL_PWR_EnterSTOPMode usage only (see Workaround secti
 129:Drivers/STM32F1xx_HAL_Driver/Src/stm32f1xx_hal_pwr.c ****  * @{
 130:Drivers/STM32F1xx_HAL_Driver/Src/stm32f1xx_hal_pwr.c ****  */
 131:Drivers/STM32F1xx_HAL_Driver/Src/stm32f1xx_hal_pwr.c **** static void PWR_OverloadWfe(void);
 132:Drivers/STM32F1xx_HAL_Driver/Src/stm32f1xx_hal_pwr.c **** 
 133:Drivers/STM32F1xx_HAL_Driver/Src/stm32f1xx_hal_pwr.c **** /* Private functions ---------------------------------------------------------*/
 134:Drivers/STM32F1xx_HAL_Driver/Src/stm32f1xx_hal_pwr.c **** __NOINLINE
 135:Drivers/STM32F1xx_HAL_Driver/Src/stm32f1xx_hal_pwr.c **** static void PWR_OverloadWfe(void)
 136:Drivers/STM32F1xx_HAL_Driver/Src/stm32f1xx_hal_pwr.c **** {
  26              		.loc 1 136 0
  27              		.cfi_startproc
  28              		@ args = 0, pretend = 0, frame = 0
  29              		@ frame_needed = 0, uses_anonymous_args = 0
  30              		@ link register save eliminated.
 137:Drivers/STM32F1xx_HAL_Driver/Src/stm32f1xx_hal_pwr.c ****   __asm volatile( "wfe" );
  31              		.loc 1 137 0
  32              	@ 137 "Drivers/STM32F1xx_HAL_Driver/Src/stm32f1xx_hal_pwr.c" 1
  33 0000 20BF     		wfe
  34              	@ 0 "" 2
 138:Drivers/STM32F1xx_HAL_Driver/Src/stm32f1xx_hal_pwr.c ****   __asm volatile( "nop" );
ARM GAS  /var/folders/19/rz7506jh8xn7x1006s6s574h0000gn/T//ccoB5ljA.s 			page 4


  35              		.loc 1 138 0
  36              	@ 138 "Drivers/STM32F1xx_HAL_Driver/Src/stm32f1xx_hal_pwr.c" 1
  37 0002 00BF     		nop
  38              	@ 0 "" 2
  39              		.thumb
  40 0004 7047     		bx	lr
  41              		.cfi_endproc
  42              	.LFE63:
  44              		.section	.text.HAL_PWR_DeInit,"ax",%progbits
  45              		.align	1
  46              		.global	HAL_PWR_DeInit
  47              		.thumb
  48              		.thumb_func
  50              	HAL_PWR_DeInit:
  51              	.LFB64:
 139:Drivers/STM32F1xx_HAL_Driver/Src/stm32f1xx_hal_pwr.c **** }
 140:Drivers/STM32F1xx_HAL_Driver/Src/stm32f1xx_hal_pwr.c **** 
 141:Drivers/STM32F1xx_HAL_Driver/Src/stm32f1xx_hal_pwr.c **** /**
 142:Drivers/STM32F1xx_HAL_Driver/Src/stm32f1xx_hal_pwr.c ****   * @}
 143:Drivers/STM32F1xx_HAL_Driver/Src/stm32f1xx_hal_pwr.c ****   */
 144:Drivers/STM32F1xx_HAL_Driver/Src/stm32f1xx_hal_pwr.c **** 
 145:Drivers/STM32F1xx_HAL_Driver/Src/stm32f1xx_hal_pwr.c **** 
 146:Drivers/STM32F1xx_HAL_Driver/Src/stm32f1xx_hal_pwr.c **** /** @defgroup PWR_Exported_Functions PWR Exported Functions
 147:Drivers/STM32F1xx_HAL_Driver/Src/stm32f1xx_hal_pwr.c ****   * @{
 148:Drivers/STM32F1xx_HAL_Driver/Src/stm32f1xx_hal_pwr.c ****   */
 149:Drivers/STM32F1xx_HAL_Driver/Src/stm32f1xx_hal_pwr.c **** 
 150:Drivers/STM32F1xx_HAL_Driver/Src/stm32f1xx_hal_pwr.c **** /** @defgroup PWR_Exported_Functions_Group1 Initialization and de-initialization functions 
 151:Drivers/STM32F1xx_HAL_Driver/Src/stm32f1xx_hal_pwr.c ****   *  @brief   Initialization and de-initialization functions
 152:Drivers/STM32F1xx_HAL_Driver/Src/stm32f1xx_hal_pwr.c ****   *
 153:Drivers/STM32F1xx_HAL_Driver/Src/stm32f1xx_hal_pwr.c **** @verbatim
 154:Drivers/STM32F1xx_HAL_Driver/Src/stm32f1xx_hal_pwr.c ****  ===============================================================================
 155:Drivers/STM32F1xx_HAL_Driver/Src/stm32f1xx_hal_pwr.c ****               ##### Initialization and de-initialization functions #####
 156:Drivers/STM32F1xx_HAL_Driver/Src/stm32f1xx_hal_pwr.c ****  ===============================================================================
 157:Drivers/STM32F1xx_HAL_Driver/Src/stm32f1xx_hal_pwr.c ****     [..]
 158:Drivers/STM32F1xx_HAL_Driver/Src/stm32f1xx_hal_pwr.c ****       After reset, the backup domain (RTC registers, RTC backup data
 159:Drivers/STM32F1xx_HAL_Driver/Src/stm32f1xx_hal_pwr.c ****       registers) is protected against possible unwanted
 160:Drivers/STM32F1xx_HAL_Driver/Src/stm32f1xx_hal_pwr.c ****       write accesses.
 161:Drivers/STM32F1xx_HAL_Driver/Src/stm32f1xx_hal_pwr.c ****       To enable access to the RTC Domain and RTC registers, proceed as follows:
 162:Drivers/STM32F1xx_HAL_Driver/Src/stm32f1xx_hal_pwr.c ****         (+) Enable the Power Controller (PWR) APB1 interface clock using the
 163:Drivers/STM32F1xx_HAL_Driver/Src/stm32f1xx_hal_pwr.c ****             __HAL_RCC_PWR_CLK_ENABLE() macro.
 164:Drivers/STM32F1xx_HAL_Driver/Src/stm32f1xx_hal_pwr.c ****         (+) Enable access to RTC domain using the HAL_PWR_EnableBkUpAccess() function.
 165:Drivers/STM32F1xx_HAL_Driver/Src/stm32f1xx_hal_pwr.c **** 
 166:Drivers/STM32F1xx_HAL_Driver/Src/stm32f1xx_hal_pwr.c **** @endverbatim
 167:Drivers/STM32F1xx_HAL_Driver/Src/stm32f1xx_hal_pwr.c ****   * @{
 168:Drivers/STM32F1xx_HAL_Driver/Src/stm32f1xx_hal_pwr.c ****   */
 169:Drivers/STM32F1xx_HAL_Driver/Src/stm32f1xx_hal_pwr.c **** 
 170:Drivers/STM32F1xx_HAL_Driver/Src/stm32f1xx_hal_pwr.c **** /**
 171:Drivers/STM32F1xx_HAL_Driver/Src/stm32f1xx_hal_pwr.c ****   * @brief  Deinitializes the PWR peripheral registers to their default reset values.  
 172:Drivers/STM32F1xx_HAL_Driver/Src/stm32f1xx_hal_pwr.c ****   * @retval None
 173:Drivers/STM32F1xx_HAL_Driver/Src/stm32f1xx_hal_pwr.c ****   */
 174:Drivers/STM32F1xx_HAL_Driver/Src/stm32f1xx_hal_pwr.c **** void HAL_PWR_DeInit(void)
 175:Drivers/STM32F1xx_HAL_Driver/Src/stm32f1xx_hal_pwr.c **** {
  52              		.loc 1 175 0
  53              		.cfi_startproc
  54              		@ args = 0, pretend = 0, frame = 0
  55              		@ frame_needed = 0, uses_anonymous_args = 0
  56              		@ link register save eliminated.
ARM GAS  /var/folders/19/rz7506jh8xn7x1006s6s574h0000gn/T//ccoB5ljA.s 			page 5


 176:Drivers/STM32F1xx_HAL_Driver/Src/stm32f1xx_hal_pwr.c ****   __HAL_RCC_PWR_FORCE_RESET();
  57              		.loc 1 176 0
  58 0000 044B     		ldr	r3, .L3
  59 0002 1A69     		ldr	r2, [r3, #16]
  60 0004 42F08052 		orr	r2, r2, #268435456
  61 0008 1A61     		str	r2, [r3, #16]
 177:Drivers/STM32F1xx_HAL_Driver/Src/stm32f1xx_hal_pwr.c ****   __HAL_RCC_PWR_RELEASE_RESET();
  62              		.loc 1 177 0
  63 000a 1A69     		ldr	r2, [r3, #16]
  64 000c 22F08052 		bic	r2, r2, #268435456
  65 0010 1A61     		str	r2, [r3, #16]
  66 0012 7047     		bx	lr
  67              	.L4:
  68              		.align	2
  69              	.L3:
  70 0014 00100240 		.word	1073876992
  71              		.cfi_endproc
  72              	.LFE64:
  74              		.section	.text.HAL_PWR_EnableBkUpAccess,"ax",%progbits
  75              		.align	1
  76              		.global	HAL_PWR_EnableBkUpAccess
  77              		.thumb
  78              		.thumb_func
  80              	HAL_PWR_EnableBkUpAccess:
  81              	.LFB65:
 178:Drivers/STM32F1xx_HAL_Driver/Src/stm32f1xx_hal_pwr.c **** }
 179:Drivers/STM32F1xx_HAL_Driver/Src/stm32f1xx_hal_pwr.c **** 
 180:Drivers/STM32F1xx_HAL_Driver/Src/stm32f1xx_hal_pwr.c **** /**
 181:Drivers/STM32F1xx_HAL_Driver/Src/stm32f1xx_hal_pwr.c ****   * @brief  Enables access to the backup domain (RTC registers, RTC
 182:Drivers/STM32F1xx_HAL_Driver/Src/stm32f1xx_hal_pwr.c ****   *         backup data registers ).
 183:Drivers/STM32F1xx_HAL_Driver/Src/stm32f1xx_hal_pwr.c ****   * @note   If the HSE divided by 128 is used as the RTC clock, the
 184:Drivers/STM32F1xx_HAL_Driver/Src/stm32f1xx_hal_pwr.c ****   *         Backup Domain Access should be kept enabled.
 185:Drivers/STM32F1xx_HAL_Driver/Src/stm32f1xx_hal_pwr.c ****   * @retval None
 186:Drivers/STM32F1xx_HAL_Driver/Src/stm32f1xx_hal_pwr.c ****   */
 187:Drivers/STM32F1xx_HAL_Driver/Src/stm32f1xx_hal_pwr.c **** void HAL_PWR_EnableBkUpAccess(void)
 188:Drivers/STM32F1xx_HAL_Driver/Src/stm32f1xx_hal_pwr.c **** {
  82              		.loc 1 188 0
  83              		.cfi_startproc
  84              		@ args = 0, pretend = 0, frame = 0
  85              		@ frame_needed = 0, uses_anonymous_args = 0
  86              		@ link register save eliminated.
  87              	.LVL0:
  88              	.LBB28:
  89              	.LBB29:
  90              		.file 2 "Drivers/CMSIS/Include/cmsis_gcc.h"
   1:Drivers/CMSIS/Include/cmsis_gcc.h **** /**************************************************************************//**
   2:Drivers/CMSIS/Include/cmsis_gcc.h ****  * @file     cmsis_gcc.h
   3:Drivers/CMSIS/Include/cmsis_gcc.h ****  * @brief    CMSIS Cortex-M Core Function/Instruction Header File
   4:Drivers/CMSIS/Include/cmsis_gcc.h ****  * @version  V4.30
   5:Drivers/CMSIS/Include/cmsis_gcc.h ****  * @date     20. October 2015
   6:Drivers/CMSIS/Include/cmsis_gcc.h ****  ******************************************************************************/
   7:Drivers/CMSIS/Include/cmsis_gcc.h **** /* Copyright (c) 2009 - 2015 ARM LIMITED
   8:Drivers/CMSIS/Include/cmsis_gcc.h **** 
   9:Drivers/CMSIS/Include/cmsis_gcc.h ****    All rights reserved.
  10:Drivers/CMSIS/Include/cmsis_gcc.h ****    Redistribution and use in source and binary forms, with or without
  11:Drivers/CMSIS/Include/cmsis_gcc.h ****    modification, are permitted provided that the following conditions are met:
  12:Drivers/CMSIS/Include/cmsis_gcc.h ****    - Redistributions of source code must retain the above copyright
ARM GAS  /var/folders/19/rz7506jh8xn7x1006s6s574h0000gn/T//ccoB5ljA.s 			page 6


  13:Drivers/CMSIS/Include/cmsis_gcc.h ****      notice, this list of conditions and the following disclaimer.
  14:Drivers/CMSIS/Include/cmsis_gcc.h ****    - Redistributions in binary form must reproduce the above copyright
  15:Drivers/CMSIS/Include/cmsis_gcc.h ****      notice, this list of conditions and the following disclaimer in the
  16:Drivers/CMSIS/Include/cmsis_gcc.h ****      documentation and/or other materials provided with the distribution.
  17:Drivers/CMSIS/Include/cmsis_gcc.h ****    - Neither the name of ARM nor the names of its contributors may be used
  18:Drivers/CMSIS/Include/cmsis_gcc.h ****      to endorse or promote products derived from this software without
  19:Drivers/CMSIS/Include/cmsis_gcc.h ****      specific prior written permission.
  20:Drivers/CMSIS/Include/cmsis_gcc.h ****    *
  21:Drivers/CMSIS/Include/cmsis_gcc.h ****    THIS SOFTWARE IS PROVIDED BY THE COPYRIGHT HOLDERS AND CONTRIBUTORS "AS IS"
  22:Drivers/CMSIS/Include/cmsis_gcc.h ****    AND ANY EXPRESS OR IMPLIED WARRANTIES, INCLUDING, BUT NOT LIMITED TO, THE
  23:Drivers/CMSIS/Include/cmsis_gcc.h ****    IMPLIED WARRANTIES OF MERCHANTABILITY AND FITNESS FOR A PARTICULAR PURPOSE
  24:Drivers/CMSIS/Include/cmsis_gcc.h ****    ARE DISCLAIMED. IN NO EVENT SHALL COPYRIGHT HOLDERS AND CONTRIBUTORS BE
  25:Drivers/CMSIS/Include/cmsis_gcc.h ****    LIABLE FOR ANY DIRECT, INDIRECT, INCIDENTAL, SPECIAL, EXEMPLARY, OR
  26:Drivers/CMSIS/Include/cmsis_gcc.h ****    CONSEQUENTIAL DAMAGES (INCLUDING, BUT NOT LIMITED TO, PROCUREMENT OF
  27:Drivers/CMSIS/Include/cmsis_gcc.h ****    SUBSTITUTE GOODS OR SERVICES; LOSS OF USE, DATA, OR PROFITS; OR BUSINESS
  28:Drivers/CMSIS/Include/cmsis_gcc.h ****    INTERRUPTION) HOWEVER CAUSED AND ON ANY THEORY OF LIABILITY, WHETHER IN
  29:Drivers/CMSIS/Include/cmsis_gcc.h ****    CONTRACT, STRICT LIABILITY, OR TORT (INCLUDING NEGLIGENCE OR OTHERWISE)
  30:Drivers/CMSIS/Include/cmsis_gcc.h ****    ARISING IN ANY WAY OUT OF THE USE OF THIS SOFTWARE, EVEN IF ADVISED OF THE
  31:Drivers/CMSIS/Include/cmsis_gcc.h ****    POSSIBILITY OF SUCH DAMAGE.
  32:Drivers/CMSIS/Include/cmsis_gcc.h ****    ---------------------------------------------------------------------------*/
  33:Drivers/CMSIS/Include/cmsis_gcc.h **** 
  34:Drivers/CMSIS/Include/cmsis_gcc.h **** 
  35:Drivers/CMSIS/Include/cmsis_gcc.h **** #ifndef __CMSIS_GCC_H
  36:Drivers/CMSIS/Include/cmsis_gcc.h **** #define __CMSIS_GCC_H
  37:Drivers/CMSIS/Include/cmsis_gcc.h **** 
  38:Drivers/CMSIS/Include/cmsis_gcc.h **** /* ignore some GCC warnings */
  39:Drivers/CMSIS/Include/cmsis_gcc.h **** #if defined ( __GNUC__ )
  40:Drivers/CMSIS/Include/cmsis_gcc.h **** #pragma GCC diagnostic push
  41:Drivers/CMSIS/Include/cmsis_gcc.h **** #pragma GCC diagnostic ignored "-Wsign-conversion"
  42:Drivers/CMSIS/Include/cmsis_gcc.h **** #pragma GCC diagnostic ignored "-Wconversion"
  43:Drivers/CMSIS/Include/cmsis_gcc.h **** #pragma GCC diagnostic ignored "-Wunused-parameter"
  44:Drivers/CMSIS/Include/cmsis_gcc.h **** #endif
  45:Drivers/CMSIS/Include/cmsis_gcc.h **** 
  46:Drivers/CMSIS/Include/cmsis_gcc.h **** 
  47:Drivers/CMSIS/Include/cmsis_gcc.h **** /* ###########################  Core Function Access  ########################### */
  48:Drivers/CMSIS/Include/cmsis_gcc.h **** /** \ingroup  CMSIS_Core_FunctionInterface
  49:Drivers/CMSIS/Include/cmsis_gcc.h ****     \defgroup CMSIS_Core_RegAccFunctions CMSIS Core Register Access Functions
  50:Drivers/CMSIS/Include/cmsis_gcc.h ****   @{
  51:Drivers/CMSIS/Include/cmsis_gcc.h ****  */
  52:Drivers/CMSIS/Include/cmsis_gcc.h **** 
  53:Drivers/CMSIS/Include/cmsis_gcc.h **** /**
  54:Drivers/CMSIS/Include/cmsis_gcc.h ****   \brief   Enable IRQ Interrupts
  55:Drivers/CMSIS/Include/cmsis_gcc.h ****   \details Enables IRQ interrupts by clearing the I-bit in the CPSR.
  56:Drivers/CMSIS/Include/cmsis_gcc.h ****            Can only be executed in Privileged modes.
  57:Drivers/CMSIS/Include/cmsis_gcc.h ****  */
  58:Drivers/CMSIS/Include/cmsis_gcc.h **** __attribute__( ( always_inline ) ) __STATIC_INLINE void __enable_irq(void)
  59:Drivers/CMSIS/Include/cmsis_gcc.h **** {
  60:Drivers/CMSIS/Include/cmsis_gcc.h ****   __ASM volatile ("cpsie i" : : : "memory");
  61:Drivers/CMSIS/Include/cmsis_gcc.h **** }
  62:Drivers/CMSIS/Include/cmsis_gcc.h **** 
  63:Drivers/CMSIS/Include/cmsis_gcc.h **** 
  64:Drivers/CMSIS/Include/cmsis_gcc.h **** /**
  65:Drivers/CMSIS/Include/cmsis_gcc.h ****   \brief   Disable IRQ Interrupts
  66:Drivers/CMSIS/Include/cmsis_gcc.h ****   \details Disables IRQ interrupts by setting the I-bit in the CPSR.
  67:Drivers/CMSIS/Include/cmsis_gcc.h ****   Can only be executed in Privileged modes.
  68:Drivers/CMSIS/Include/cmsis_gcc.h ****  */
  69:Drivers/CMSIS/Include/cmsis_gcc.h **** __attribute__( ( always_inline ) ) __STATIC_INLINE void __disable_irq(void)
ARM GAS  /var/folders/19/rz7506jh8xn7x1006s6s574h0000gn/T//ccoB5ljA.s 			page 7


  70:Drivers/CMSIS/Include/cmsis_gcc.h **** {
  71:Drivers/CMSIS/Include/cmsis_gcc.h ****   __ASM volatile ("cpsid i" : : : "memory");
  72:Drivers/CMSIS/Include/cmsis_gcc.h **** }
  73:Drivers/CMSIS/Include/cmsis_gcc.h **** 
  74:Drivers/CMSIS/Include/cmsis_gcc.h **** 
  75:Drivers/CMSIS/Include/cmsis_gcc.h **** /**
  76:Drivers/CMSIS/Include/cmsis_gcc.h ****   \brief   Get Control Register
  77:Drivers/CMSIS/Include/cmsis_gcc.h ****   \details Returns the content of the Control Register.
  78:Drivers/CMSIS/Include/cmsis_gcc.h ****   \return               Control Register value
  79:Drivers/CMSIS/Include/cmsis_gcc.h ****  */
  80:Drivers/CMSIS/Include/cmsis_gcc.h **** __attribute__( ( always_inline ) ) __STATIC_INLINE uint32_t __get_CONTROL(void)
  81:Drivers/CMSIS/Include/cmsis_gcc.h **** {
  82:Drivers/CMSIS/Include/cmsis_gcc.h ****   uint32_t result;
  83:Drivers/CMSIS/Include/cmsis_gcc.h **** 
  84:Drivers/CMSIS/Include/cmsis_gcc.h ****   __ASM volatile ("MRS %0, control" : "=r" (result) );
  85:Drivers/CMSIS/Include/cmsis_gcc.h ****   return(result);
  86:Drivers/CMSIS/Include/cmsis_gcc.h **** }
  87:Drivers/CMSIS/Include/cmsis_gcc.h **** 
  88:Drivers/CMSIS/Include/cmsis_gcc.h **** 
  89:Drivers/CMSIS/Include/cmsis_gcc.h **** /**
  90:Drivers/CMSIS/Include/cmsis_gcc.h ****   \brief   Set Control Register
  91:Drivers/CMSIS/Include/cmsis_gcc.h ****   \details Writes the given value to the Control Register.
  92:Drivers/CMSIS/Include/cmsis_gcc.h ****   \param [in]    control  Control Register value to set
  93:Drivers/CMSIS/Include/cmsis_gcc.h ****  */
  94:Drivers/CMSIS/Include/cmsis_gcc.h **** __attribute__( ( always_inline ) ) __STATIC_INLINE void __set_CONTROL(uint32_t control)
  95:Drivers/CMSIS/Include/cmsis_gcc.h **** {
  96:Drivers/CMSIS/Include/cmsis_gcc.h ****   __ASM volatile ("MSR control, %0" : : "r" (control) : "memory");
  97:Drivers/CMSIS/Include/cmsis_gcc.h **** }
  98:Drivers/CMSIS/Include/cmsis_gcc.h **** 
  99:Drivers/CMSIS/Include/cmsis_gcc.h **** 
 100:Drivers/CMSIS/Include/cmsis_gcc.h **** /**
 101:Drivers/CMSIS/Include/cmsis_gcc.h ****   \brief   Get IPSR Register
 102:Drivers/CMSIS/Include/cmsis_gcc.h ****   \details Returns the content of the IPSR Register.
 103:Drivers/CMSIS/Include/cmsis_gcc.h ****   \return               IPSR Register value
 104:Drivers/CMSIS/Include/cmsis_gcc.h ****  */
 105:Drivers/CMSIS/Include/cmsis_gcc.h **** __attribute__( ( always_inline ) ) __STATIC_INLINE uint32_t __get_IPSR(void)
 106:Drivers/CMSIS/Include/cmsis_gcc.h **** {
 107:Drivers/CMSIS/Include/cmsis_gcc.h ****   uint32_t result;
 108:Drivers/CMSIS/Include/cmsis_gcc.h **** 
 109:Drivers/CMSIS/Include/cmsis_gcc.h ****   __ASM volatile ("MRS %0, ipsr" : "=r" (result) );
 110:Drivers/CMSIS/Include/cmsis_gcc.h ****   return(result);
 111:Drivers/CMSIS/Include/cmsis_gcc.h **** }
 112:Drivers/CMSIS/Include/cmsis_gcc.h **** 
 113:Drivers/CMSIS/Include/cmsis_gcc.h **** 
 114:Drivers/CMSIS/Include/cmsis_gcc.h **** /**
 115:Drivers/CMSIS/Include/cmsis_gcc.h ****   \brief   Get APSR Register
 116:Drivers/CMSIS/Include/cmsis_gcc.h ****   \details Returns the content of the APSR Register.
 117:Drivers/CMSIS/Include/cmsis_gcc.h ****   \return               APSR Register value
 118:Drivers/CMSIS/Include/cmsis_gcc.h ****  */
 119:Drivers/CMSIS/Include/cmsis_gcc.h **** __attribute__( ( always_inline ) ) __STATIC_INLINE uint32_t __get_APSR(void)
 120:Drivers/CMSIS/Include/cmsis_gcc.h **** {
 121:Drivers/CMSIS/Include/cmsis_gcc.h ****   uint32_t result;
 122:Drivers/CMSIS/Include/cmsis_gcc.h **** 
 123:Drivers/CMSIS/Include/cmsis_gcc.h ****   __ASM volatile ("MRS %0, apsr" : "=r" (result) );
 124:Drivers/CMSIS/Include/cmsis_gcc.h ****   return(result);
 125:Drivers/CMSIS/Include/cmsis_gcc.h **** }
 126:Drivers/CMSIS/Include/cmsis_gcc.h **** 
ARM GAS  /var/folders/19/rz7506jh8xn7x1006s6s574h0000gn/T//ccoB5ljA.s 			page 8


 127:Drivers/CMSIS/Include/cmsis_gcc.h **** 
 128:Drivers/CMSIS/Include/cmsis_gcc.h **** /**
 129:Drivers/CMSIS/Include/cmsis_gcc.h ****   \brief   Get xPSR Register
 130:Drivers/CMSIS/Include/cmsis_gcc.h ****   \details Returns the content of the xPSR Register.
 131:Drivers/CMSIS/Include/cmsis_gcc.h **** 
 132:Drivers/CMSIS/Include/cmsis_gcc.h ****     \return               xPSR Register value
 133:Drivers/CMSIS/Include/cmsis_gcc.h ****  */
 134:Drivers/CMSIS/Include/cmsis_gcc.h **** __attribute__( ( always_inline ) ) __STATIC_INLINE uint32_t __get_xPSR(void)
 135:Drivers/CMSIS/Include/cmsis_gcc.h **** {
 136:Drivers/CMSIS/Include/cmsis_gcc.h ****   uint32_t result;
 137:Drivers/CMSIS/Include/cmsis_gcc.h **** 
 138:Drivers/CMSIS/Include/cmsis_gcc.h ****   __ASM volatile ("MRS %0, xpsr" : "=r" (result) );
 139:Drivers/CMSIS/Include/cmsis_gcc.h ****   return(result);
 140:Drivers/CMSIS/Include/cmsis_gcc.h **** }
 141:Drivers/CMSIS/Include/cmsis_gcc.h **** 
 142:Drivers/CMSIS/Include/cmsis_gcc.h **** 
 143:Drivers/CMSIS/Include/cmsis_gcc.h **** /**
 144:Drivers/CMSIS/Include/cmsis_gcc.h ****   \brief   Get Process Stack Pointer
 145:Drivers/CMSIS/Include/cmsis_gcc.h ****   \details Returns the current value of the Process Stack Pointer (PSP).
 146:Drivers/CMSIS/Include/cmsis_gcc.h ****   \return               PSP Register value
 147:Drivers/CMSIS/Include/cmsis_gcc.h ****  */
 148:Drivers/CMSIS/Include/cmsis_gcc.h **** __attribute__( ( always_inline ) ) __STATIC_INLINE uint32_t __get_PSP(void)
 149:Drivers/CMSIS/Include/cmsis_gcc.h **** {
 150:Drivers/CMSIS/Include/cmsis_gcc.h ****   register uint32_t result;
 151:Drivers/CMSIS/Include/cmsis_gcc.h **** 
 152:Drivers/CMSIS/Include/cmsis_gcc.h ****   __ASM volatile ("MRS %0, psp\n"  : "=r" (result) );
 153:Drivers/CMSIS/Include/cmsis_gcc.h ****   return(result);
 154:Drivers/CMSIS/Include/cmsis_gcc.h **** }
 155:Drivers/CMSIS/Include/cmsis_gcc.h **** 
 156:Drivers/CMSIS/Include/cmsis_gcc.h **** 
 157:Drivers/CMSIS/Include/cmsis_gcc.h **** /**
 158:Drivers/CMSIS/Include/cmsis_gcc.h ****   \brief   Set Process Stack Pointer
 159:Drivers/CMSIS/Include/cmsis_gcc.h ****   \details Assigns the given value to the Process Stack Pointer (PSP).
 160:Drivers/CMSIS/Include/cmsis_gcc.h ****   \param [in]    topOfProcStack  Process Stack Pointer value to set
 161:Drivers/CMSIS/Include/cmsis_gcc.h ****  */
 162:Drivers/CMSIS/Include/cmsis_gcc.h **** __attribute__( ( always_inline ) ) __STATIC_INLINE void __set_PSP(uint32_t topOfProcStack)
 163:Drivers/CMSIS/Include/cmsis_gcc.h **** {
 164:Drivers/CMSIS/Include/cmsis_gcc.h ****   __ASM volatile ("MSR psp, %0\n" : : "r" (topOfProcStack) : "sp");
 165:Drivers/CMSIS/Include/cmsis_gcc.h **** }
 166:Drivers/CMSIS/Include/cmsis_gcc.h **** 
 167:Drivers/CMSIS/Include/cmsis_gcc.h **** 
 168:Drivers/CMSIS/Include/cmsis_gcc.h **** /**
 169:Drivers/CMSIS/Include/cmsis_gcc.h ****   \brief   Get Main Stack Pointer
 170:Drivers/CMSIS/Include/cmsis_gcc.h ****   \details Returns the current value of the Main Stack Pointer (MSP).
 171:Drivers/CMSIS/Include/cmsis_gcc.h ****   \return               MSP Register value
 172:Drivers/CMSIS/Include/cmsis_gcc.h ****  */
 173:Drivers/CMSIS/Include/cmsis_gcc.h **** __attribute__( ( always_inline ) ) __STATIC_INLINE uint32_t __get_MSP(void)
 174:Drivers/CMSIS/Include/cmsis_gcc.h **** {
 175:Drivers/CMSIS/Include/cmsis_gcc.h ****   register uint32_t result;
 176:Drivers/CMSIS/Include/cmsis_gcc.h **** 
 177:Drivers/CMSIS/Include/cmsis_gcc.h ****   __ASM volatile ("MRS %0, msp\n" : "=r" (result) );
 178:Drivers/CMSIS/Include/cmsis_gcc.h ****   return(result);
 179:Drivers/CMSIS/Include/cmsis_gcc.h **** }
 180:Drivers/CMSIS/Include/cmsis_gcc.h **** 
 181:Drivers/CMSIS/Include/cmsis_gcc.h **** 
 182:Drivers/CMSIS/Include/cmsis_gcc.h **** /**
 183:Drivers/CMSIS/Include/cmsis_gcc.h ****   \brief   Set Main Stack Pointer
ARM GAS  /var/folders/19/rz7506jh8xn7x1006s6s574h0000gn/T//ccoB5ljA.s 			page 9


 184:Drivers/CMSIS/Include/cmsis_gcc.h ****   \details Assigns the given value to the Main Stack Pointer (MSP).
 185:Drivers/CMSIS/Include/cmsis_gcc.h **** 
 186:Drivers/CMSIS/Include/cmsis_gcc.h ****     \param [in]    topOfMainStack  Main Stack Pointer value to set
 187:Drivers/CMSIS/Include/cmsis_gcc.h ****  */
 188:Drivers/CMSIS/Include/cmsis_gcc.h **** __attribute__( ( always_inline ) ) __STATIC_INLINE void __set_MSP(uint32_t topOfMainStack)
 189:Drivers/CMSIS/Include/cmsis_gcc.h **** {
 190:Drivers/CMSIS/Include/cmsis_gcc.h ****   __ASM volatile ("MSR msp, %0\n" : : "r" (topOfMainStack) : "sp");
 191:Drivers/CMSIS/Include/cmsis_gcc.h **** }
 192:Drivers/CMSIS/Include/cmsis_gcc.h **** 
 193:Drivers/CMSIS/Include/cmsis_gcc.h **** 
 194:Drivers/CMSIS/Include/cmsis_gcc.h **** /**
 195:Drivers/CMSIS/Include/cmsis_gcc.h ****   \brief   Get Priority Mask
 196:Drivers/CMSIS/Include/cmsis_gcc.h ****   \details Returns the current state of the priority mask bit from the Priority Mask Register.
 197:Drivers/CMSIS/Include/cmsis_gcc.h ****   \return               Priority Mask value
 198:Drivers/CMSIS/Include/cmsis_gcc.h ****  */
 199:Drivers/CMSIS/Include/cmsis_gcc.h **** __attribute__( ( always_inline ) ) __STATIC_INLINE uint32_t __get_PRIMASK(void)
 200:Drivers/CMSIS/Include/cmsis_gcc.h **** {
 201:Drivers/CMSIS/Include/cmsis_gcc.h ****   uint32_t result;
 202:Drivers/CMSIS/Include/cmsis_gcc.h **** 
 203:Drivers/CMSIS/Include/cmsis_gcc.h ****   __ASM volatile ("MRS %0, primask" : "=r" (result) );
 204:Drivers/CMSIS/Include/cmsis_gcc.h ****   return(result);
 205:Drivers/CMSIS/Include/cmsis_gcc.h **** }
 206:Drivers/CMSIS/Include/cmsis_gcc.h **** 
 207:Drivers/CMSIS/Include/cmsis_gcc.h **** 
 208:Drivers/CMSIS/Include/cmsis_gcc.h **** /**
 209:Drivers/CMSIS/Include/cmsis_gcc.h ****   \brief   Set Priority Mask
 210:Drivers/CMSIS/Include/cmsis_gcc.h ****   \details Assigns the given value to the Priority Mask Register.
 211:Drivers/CMSIS/Include/cmsis_gcc.h ****   \param [in]    priMask  Priority Mask
 212:Drivers/CMSIS/Include/cmsis_gcc.h ****  */
 213:Drivers/CMSIS/Include/cmsis_gcc.h **** __attribute__( ( always_inline ) ) __STATIC_INLINE void __set_PRIMASK(uint32_t priMask)
 214:Drivers/CMSIS/Include/cmsis_gcc.h **** {
 215:Drivers/CMSIS/Include/cmsis_gcc.h ****   __ASM volatile ("MSR primask, %0" : : "r" (priMask) : "memory");
 216:Drivers/CMSIS/Include/cmsis_gcc.h **** }
 217:Drivers/CMSIS/Include/cmsis_gcc.h **** 
 218:Drivers/CMSIS/Include/cmsis_gcc.h **** 
 219:Drivers/CMSIS/Include/cmsis_gcc.h **** #if       (__CORTEX_M >= 0x03U)
 220:Drivers/CMSIS/Include/cmsis_gcc.h **** 
 221:Drivers/CMSIS/Include/cmsis_gcc.h **** /**
 222:Drivers/CMSIS/Include/cmsis_gcc.h ****   \brief   Enable FIQ
 223:Drivers/CMSIS/Include/cmsis_gcc.h ****   \details Enables FIQ interrupts by clearing the F-bit in the CPSR.
 224:Drivers/CMSIS/Include/cmsis_gcc.h ****            Can only be executed in Privileged modes.
 225:Drivers/CMSIS/Include/cmsis_gcc.h ****  */
 226:Drivers/CMSIS/Include/cmsis_gcc.h **** __attribute__( ( always_inline ) ) __STATIC_INLINE void __enable_fault_irq(void)
 227:Drivers/CMSIS/Include/cmsis_gcc.h **** {
 228:Drivers/CMSIS/Include/cmsis_gcc.h ****   __ASM volatile ("cpsie f" : : : "memory");
 229:Drivers/CMSIS/Include/cmsis_gcc.h **** }
 230:Drivers/CMSIS/Include/cmsis_gcc.h **** 
 231:Drivers/CMSIS/Include/cmsis_gcc.h **** 
 232:Drivers/CMSIS/Include/cmsis_gcc.h **** /**
 233:Drivers/CMSIS/Include/cmsis_gcc.h ****   \brief   Disable FIQ
 234:Drivers/CMSIS/Include/cmsis_gcc.h ****   \details Disables FIQ interrupts by setting the F-bit in the CPSR.
 235:Drivers/CMSIS/Include/cmsis_gcc.h ****            Can only be executed in Privileged modes.
 236:Drivers/CMSIS/Include/cmsis_gcc.h ****  */
 237:Drivers/CMSIS/Include/cmsis_gcc.h **** __attribute__( ( always_inline ) ) __STATIC_INLINE void __disable_fault_irq(void)
 238:Drivers/CMSIS/Include/cmsis_gcc.h **** {
 239:Drivers/CMSIS/Include/cmsis_gcc.h ****   __ASM volatile ("cpsid f" : : : "memory");
 240:Drivers/CMSIS/Include/cmsis_gcc.h **** }
ARM GAS  /var/folders/19/rz7506jh8xn7x1006s6s574h0000gn/T//ccoB5ljA.s 			page 10


 241:Drivers/CMSIS/Include/cmsis_gcc.h **** 
 242:Drivers/CMSIS/Include/cmsis_gcc.h **** 
 243:Drivers/CMSIS/Include/cmsis_gcc.h **** /**
 244:Drivers/CMSIS/Include/cmsis_gcc.h ****   \brief   Get Base Priority
 245:Drivers/CMSIS/Include/cmsis_gcc.h ****   \details Returns the current value of the Base Priority register.
 246:Drivers/CMSIS/Include/cmsis_gcc.h ****   \return               Base Priority register value
 247:Drivers/CMSIS/Include/cmsis_gcc.h ****  */
 248:Drivers/CMSIS/Include/cmsis_gcc.h **** __attribute__( ( always_inline ) ) __STATIC_INLINE uint32_t __get_BASEPRI(void)
 249:Drivers/CMSIS/Include/cmsis_gcc.h **** {
 250:Drivers/CMSIS/Include/cmsis_gcc.h ****   uint32_t result;
 251:Drivers/CMSIS/Include/cmsis_gcc.h **** 
 252:Drivers/CMSIS/Include/cmsis_gcc.h ****   __ASM volatile ("MRS %0, basepri" : "=r" (result) );
 253:Drivers/CMSIS/Include/cmsis_gcc.h ****   return(result);
 254:Drivers/CMSIS/Include/cmsis_gcc.h **** }
 255:Drivers/CMSIS/Include/cmsis_gcc.h **** 
 256:Drivers/CMSIS/Include/cmsis_gcc.h **** 
 257:Drivers/CMSIS/Include/cmsis_gcc.h **** /**
 258:Drivers/CMSIS/Include/cmsis_gcc.h ****   \brief   Set Base Priority
 259:Drivers/CMSIS/Include/cmsis_gcc.h ****   \details Assigns the given value to the Base Priority register.
 260:Drivers/CMSIS/Include/cmsis_gcc.h ****   \param [in]    basePri  Base Priority value to set
 261:Drivers/CMSIS/Include/cmsis_gcc.h ****  */
 262:Drivers/CMSIS/Include/cmsis_gcc.h **** __attribute__( ( always_inline ) ) __STATIC_INLINE void __set_BASEPRI(uint32_t value)
 263:Drivers/CMSIS/Include/cmsis_gcc.h **** {
 264:Drivers/CMSIS/Include/cmsis_gcc.h ****   __ASM volatile ("MSR basepri, %0" : : "r" (value) : "memory");
 265:Drivers/CMSIS/Include/cmsis_gcc.h **** }
 266:Drivers/CMSIS/Include/cmsis_gcc.h **** 
 267:Drivers/CMSIS/Include/cmsis_gcc.h **** 
 268:Drivers/CMSIS/Include/cmsis_gcc.h **** /**
 269:Drivers/CMSIS/Include/cmsis_gcc.h ****   \brief   Set Base Priority with condition
 270:Drivers/CMSIS/Include/cmsis_gcc.h ****   \details Assigns the given value to the Base Priority register only if BASEPRI masking is disable
 271:Drivers/CMSIS/Include/cmsis_gcc.h ****            or the new value increases the BASEPRI priority level.
 272:Drivers/CMSIS/Include/cmsis_gcc.h ****   \param [in]    basePri  Base Priority value to set
 273:Drivers/CMSIS/Include/cmsis_gcc.h ****  */
 274:Drivers/CMSIS/Include/cmsis_gcc.h **** __attribute__( ( always_inline ) ) __STATIC_INLINE void __set_BASEPRI_MAX(uint32_t value)
 275:Drivers/CMSIS/Include/cmsis_gcc.h **** {
 276:Drivers/CMSIS/Include/cmsis_gcc.h ****   __ASM volatile ("MSR basepri_max, %0" : : "r" (value) : "memory");
 277:Drivers/CMSIS/Include/cmsis_gcc.h **** }
 278:Drivers/CMSIS/Include/cmsis_gcc.h **** 
 279:Drivers/CMSIS/Include/cmsis_gcc.h **** 
 280:Drivers/CMSIS/Include/cmsis_gcc.h **** /**
 281:Drivers/CMSIS/Include/cmsis_gcc.h ****   \brief   Get Fault Mask
 282:Drivers/CMSIS/Include/cmsis_gcc.h ****   \details Returns the current value of the Fault Mask register.
 283:Drivers/CMSIS/Include/cmsis_gcc.h ****   \return               Fault Mask register value
 284:Drivers/CMSIS/Include/cmsis_gcc.h ****  */
 285:Drivers/CMSIS/Include/cmsis_gcc.h **** __attribute__( ( always_inline ) ) __STATIC_INLINE uint32_t __get_FAULTMASK(void)
 286:Drivers/CMSIS/Include/cmsis_gcc.h **** {
 287:Drivers/CMSIS/Include/cmsis_gcc.h ****   uint32_t result;
 288:Drivers/CMSIS/Include/cmsis_gcc.h **** 
 289:Drivers/CMSIS/Include/cmsis_gcc.h ****   __ASM volatile ("MRS %0, faultmask" : "=r" (result) );
 290:Drivers/CMSIS/Include/cmsis_gcc.h ****   return(result);
 291:Drivers/CMSIS/Include/cmsis_gcc.h **** }
 292:Drivers/CMSIS/Include/cmsis_gcc.h **** 
 293:Drivers/CMSIS/Include/cmsis_gcc.h **** 
 294:Drivers/CMSIS/Include/cmsis_gcc.h **** /**
 295:Drivers/CMSIS/Include/cmsis_gcc.h ****   \brief   Set Fault Mask
 296:Drivers/CMSIS/Include/cmsis_gcc.h ****   \details Assigns the given value to the Fault Mask register.
 297:Drivers/CMSIS/Include/cmsis_gcc.h ****   \param [in]    faultMask  Fault Mask value to set
ARM GAS  /var/folders/19/rz7506jh8xn7x1006s6s574h0000gn/T//ccoB5ljA.s 			page 11


 298:Drivers/CMSIS/Include/cmsis_gcc.h ****  */
 299:Drivers/CMSIS/Include/cmsis_gcc.h **** __attribute__( ( always_inline ) ) __STATIC_INLINE void __set_FAULTMASK(uint32_t faultMask)
 300:Drivers/CMSIS/Include/cmsis_gcc.h **** {
 301:Drivers/CMSIS/Include/cmsis_gcc.h ****   __ASM volatile ("MSR faultmask, %0" : : "r" (faultMask) : "memory");
 302:Drivers/CMSIS/Include/cmsis_gcc.h **** }
 303:Drivers/CMSIS/Include/cmsis_gcc.h **** 
 304:Drivers/CMSIS/Include/cmsis_gcc.h **** #endif /* (__CORTEX_M >= 0x03U) */
 305:Drivers/CMSIS/Include/cmsis_gcc.h **** 
 306:Drivers/CMSIS/Include/cmsis_gcc.h **** 
 307:Drivers/CMSIS/Include/cmsis_gcc.h **** #if       (__CORTEX_M == 0x04U) || (__CORTEX_M == 0x07U)
 308:Drivers/CMSIS/Include/cmsis_gcc.h **** 
 309:Drivers/CMSIS/Include/cmsis_gcc.h **** /**
 310:Drivers/CMSIS/Include/cmsis_gcc.h ****   \brief   Get FPSCR
 311:Drivers/CMSIS/Include/cmsis_gcc.h ****   \details Returns the current value of the Floating Point Status/Control register.
 312:Drivers/CMSIS/Include/cmsis_gcc.h ****   \return               Floating Point Status/Control register value
 313:Drivers/CMSIS/Include/cmsis_gcc.h ****  */
 314:Drivers/CMSIS/Include/cmsis_gcc.h **** __attribute__( ( always_inline ) ) __STATIC_INLINE uint32_t __get_FPSCR(void)
 315:Drivers/CMSIS/Include/cmsis_gcc.h **** {
 316:Drivers/CMSIS/Include/cmsis_gcc.h **** #if (__FPU_PRESENT == 1U) && (__FPU_USED == 1U)
 317:Drivers/CMSIS/Include/cmsis_gcc.h ****   uint32_t result;
 318:Drivers/CMSIS/Include/cmsis_gcc.h **** 
 319:Drivers/CMSIS/Include/cmsis_gcc.h ****   /* Empty asm statement works as a scheduling barrier */
 320:Drivers/CMSIS/Include/cmsis_gcc.h ****   __ASM volatile ("");
 321:Drivers/CMSIS/Include/cmsis_gcc.h ****   __ASM volatile ("VMRS %0, fpscr" : "=r" (result) );
 322:Drivers/CMSIS/Include/cmsis_gcc.h ****   __ASM volatile ("");
 323:Drivers/CMSIS/Include/cmsis_gcc.h ****   return(result);
 324:Drivers/CMSIS/Include/cmsis_gcc.h **** #else
 325:Drivers/CMSIS/Include/cmsis_gcc.h ****    return(0);
 326:Drivers/CMSIS/Include/cmsis_gcc.h **** #endif
 327:Drivers/CMSIS/Include/cmsis_gcc.h **** }
 328:Drivers/CMSIS/Include/cmsis_gcc.h **** 
 329:Drivers/CMSIS/Include/cmsis_gcc.h **** 
 330:Drivers/CMSIS/Include/cmsis_gcc.h **** /**
 331:Drivers/CMSIS/Include/cmsis_gcc.h ****   \brief   Set FPSCR
 332:Drivers/CMSIS/Include/cmsis_gcc.h ****   \details Assigns the given value to the Floating Point Status/Control register.
 333:Drivers/CMSIS/Include/cmsis_gcc.h ****   \param [in]    fpscr  Floating Point Status/Control value to set
 334:Drivers/CMSIS/Include/cmsis_gcc.h ****  */
 335:Drivers/CMSIS/Include/cmsis_gcc.h **** __attribute__( ( always_inline ) ) __STATIC_INLINE void __set_FPSCR(uint32_t fpscr)
 336:Drivers/CMSIS/Include/cmsis_gcc.h **** {
 337:Drivers/CMSIS/Include/cmsis_gcc.h **** #if (__FPU_PRESENT == 1U) && (__FPU_USED == 1U)
 338:Drivers/CMSIS/Include/cmsis_gcc.h ****   /* Empty asm statement works as a scheduling barrier */
 339:Drivers/CMSIS/Include/cmsis_gcc.h ****   __ASM volatile ("");
 340:Drivers/CMSIS/Include/cmsis_gcc.h ****   __ASM volatile ("VMSR fpscr, %0" : : "r" (fpscr) : "vfpcc");
 341:Drivers/CMSIS/Include/cmsis_gcc.h ****   __ASM volatile ("");
 342:Drivers/CMSIS/Include/cmsis_gcc.h **** #endif
 343:Drivers/CMSIS/Include/cmsis_gcc.h **** }
 344:Drivers/CMSIS/Include/cmsis_gcc.h **** 
 345:Drivers/CMSIS/Include/cmsis_gcc.h **** #endif /* (__CORTEX_M == 0x04U) || (__CORTEX_M == 0x07U) */
 346:Drivers/CMSIS/Include/cmsis_gcc.h **** 
 347:Drivers/CMSIS/Include/cmsis_gcc.h **** 
 348:Drivers/CMSIS/Include/cmsis_gcc.h **** 
 349:Drivers/CMSIS/Include/cmsis_gcc.h **** /*@} end of CMSIS_Core_RegAccFunctions */
 350:Drivers/CMSIS/Include/cmsis_gcc.h **** 
 351:Drivers/CMSIS/Include/cmsis_gcc.h **** 
 352:Drivers/CMSIS/Include/cmsis_gcc.h **** /* ##########################  Core Instruction Access  ######################### */
 353:Drivers/CMSIS/Include/cmsis_gcc.h **** /** \defgroup CMSIS_Core_InstructionInterface CMSIS Core Instruction Interface
 354:Drivers/CMSIS/Include/cmsis_gcc.h ****   Access to dedicated instructions
ARM GAS  /var/folders/19/rz7506jh8xn7x1006s6s574h0000gn/T//ccoB5ljA.s 			page 12


 355:Drivers/CMSIS/Include/cmsis_gcc.h ****   @{
 356:Drivers/CMSIS/Include/cmsis_gcc.h **** */
 357:Drivers/CMSIS/Include/cmsis_gcc.h **** 
 358:Drivers/CMSIS/Include/cmsis_gcc.h **** /* Define macros for porting to both thumb1 and thumb2.
 359:Drivers/CMSIS/Include/cmsis_gcc.h ****  * For thumb1, use low register (r0-r7), specified by constraint "l"
 360:Drivers/CMSIS/Include/cmsis_gcc.h ****  * Otherwise, use general registers, specified by constraint "r" */
 361:Drivers/CMSIS/Include/cmsis_gcc.h **** #if defined (__thumb__) && !defined (__thumb2__)
 362:Drivers/CMSIS/Include/cmsis_gcc.h **** #define __CMSIS_GCC_OUT_REG(r) "=l" (r)
 363:Drivers/CMSIS/Include/cmsis_gcc.h **** #define __CMSIS_GCC_USE_REG(r) "l" (r)
 364:Drivers/CMSIS/Include/cmsis_gcc.h **** #else
 365:Drivers/CMSIS/Include/cmsis_gcc.h **** #define __CMSIS_GCC_OUT_REG(r) "=r" (r)
 366:Drivers/CMSIS/Include/cmsis_gcc.h **** #define __CMSIS_GCC_USE_REG(r) "r" (r)
 367:Drivers/CMSIS/Include/cmsis_gcc.h **** #endif
 368:Drivers/CMSIS/Include/cmsis_gcc.h **** 
 369:Drivers/CMSIS/Include/cmsis_gcc.h **** /**
 370:Drivers/CMSIS/Include/cmsis_gcc.h ****   \brief   No Operation
 371:Drivers/CMSIS/Include/cmsis_gcc.h ****   \details No Operation does nothing. This instruction can be used for code alignment purposes.
 372:Drivers/CMSIS/Include/cmsis_gcc.h ****  */
 373:Drivers/CMSIS/Include/cmsis_gcc.h **** __attribute__((always_inline)) __STATIC_INLINE void __NOP(void)
 374:Drivers/CMSIS/Include/cmsis_gcc.h **** {
 375:Drivers/CMSIS/Include/cmsis_gcc.h ****   __ASM volatile ("nop");
 376:Drivers/CMSIS/Include/cmsis_gcc.h **** }
 377:Drivers/CMSIS/Include/cmsis_gcc.h **** 
 378:Drivers/CMSIS/Include/cmsis_gcc.h **** 
 379:Drivers/CMSIS/Include/cmsis_gcc.h **** /**
 380:Drivers/CMSIS/Include/cmsis_gcc.h ****   \brief   Wait For Interrupt
 381:Drivers/CMSIS/Include/cmsis_gcc.h ****   \details Wait For Interrupt is a hint instruction that suspends execution until one of a number o
 382:Drivers/CMSIS/Include/cmsis_gcc.h ****  */
 383:Drivers/CMSIS/Include/cmsis_gcc.h **** __attribute__((always_inline)) __STATIC_INLINE void __WFI(void)
 384:Drivers/CMSIS/Include/cmsis_gcc.h **** {
 385:Drivers/CMSIS/Include/cmsis_gcc.h ****   __ASM volatile ("wfi");
 386:Drivers/CMSIS/Include/cmsis_gcc.h **** }
 387:Drivers/CMSIS/Include/cmsis_gcc.h **** 
 388:Drivers/CMSIS/Include/cmsis_gcc.h **** 
 389:Drivers/CMSIS/Include/cmsis_gcc.h **** /**
 390:Drivers/CMSIS/Include/cmsis_gcc.h ****   \brief   Wait For Event
 391:Drivers/CMSIS/Include/cmsis_gcc.h ****   \details Wait For Event is a hint instruction that permits the processor to enter
 392:Drivers/CMSIS/Include/cmsis_gcc.h ****     a low-power state until one of a number of events occurs.
 393:Drivers/CMSIS/Include/cmsis_gcc.h ****  */
 394:Drivers/CMSIS/Include/cmsis_gcc.h **** __attribute__((always_inline)) __STATIC_INLINE void __WFE(void)
 395:Drivers/CMSIS/Include/cmsis_gcc.h **** {
 396:Drivers/CMSIS/Include/cmsis_gcc.h ****   __ASM volatile ("wfe");
 397:Drivers/CMSIS/Include/cmsis_gcc.h **** }
 398:Drivers/CMSIS/Include/cmsis_gcc.h **** 
 399:Drivers/CMSIS/Include/cmsis_gcc.h **** 
 400:Drivers/CMSIS/Include/cmsis_gcc.h **** /**
 401:Drivers/CMSIS/Include/cmsis_gcc.h ****   \brief   Send Event
 402:Drivers/CMSIS/Include/cmsis_gcc.h ****   \details Send Event is a hint instruction. It causes an event to be signaled to the CPU.
 403:Drivers/CMSIS/Include/cmsis_gcc.h ****  */
 404:Drivers/CMSIS/Include/cmsis_gcc.h **** __attribute__((always_inline)) __STATIC_INLINE void __SEV(void)
 405:Drivers/CMSIS/Include/cmsis_gcc.h **** {
 406:Drivers/CMSIS/Include/cmsis_gcc.h ****   __ASM volatile ("sev");
 407:Drivers/CMSIS/Include/cmsis_gcc.h **** }
 408:Drivers/CMSIS/Include/cmsis_gcc.h **** 
 409:Drivers/CMSIS/Include/cmsis_gcc.h **** 
 410:Drivers/CMSIS/Include/cmsis_gcc.h **** /**
 411:Drivers/CMSIS/Include/cmsis_gcc.h ****   \brief   Instruction Synchronization Barrier
ARM GAS  /var/folders/19/rz7506jh8xn7x1006s6s574h0000gn/T//ccoB5ljA.s 			page 13


 412:Drivers/CMSIS/Include/cmsis_gcc.h ****   \details Instruction Synchronization Barrier flushes the pipeline in the processor,
 413:Drivers/CMSIS/Include/cmsis_gcc.h ****            so that all instructions following the ISB are fetched from cache or memory,
 414:Drivers/CMSIS/Include/cmsis_gcc.h ****            after the instruction has been completed.
 415:Drivers/CMSIS/Include/cmsis_gcc.h ****  */
 416:Drivers/CMSIS/Include/cmsis_gcc.h **** __attribute__((always_inline)) __STATIC_INLINE void __ISB(void)
 417:Drivers/CMSIS/Include/cmsis_gcc.h **** {
 418:Drivers/CMSIS/Include/cmsis_gcc.h ****   __ASM volatile ("isb 0xF":::"memory");
 419:Drivers/CMSIS/Include/cmsis_gcc.h **** }
 420:Drivers/CMSIS/Include/cmsis_gcc.h **** 
 421:Drivers/CMSIS/Include/cmsis_gcc.h **** 
 422:Drivers/CMSIS/Include/cmsis_gcc.h **** /**
 423:Drivers/CMSIS/Include/cmsis_gcc.h ****   \brief   Data Synchronization Barrier
 424:Drivers/CMSIS/Include/cmsis_gcc.h ****   \details Acts as a special kind of Data Memory Barrier.
 425:Drivers/CMSIS/Include/cmsis_gcc.h ****            It completes when all explicit memory accesses before this instruction complete.
 426:Drivers/CMSIS/Include/cmsis_gcc.h ****  */
 427:Drivers/CMSIS/Include/cmsis_gcc.h **** __attribute__((always_inline)) __STATIC_INLINE void __DSB(void)
 428:Drivers/CMSIS/Include/cmsis_gcc.h **** {
 429:Drivers/CMSIS/Include/cmsis_gcc.h ****   __ASM volatile ("dsb 0xF":::"memory");
 430:Drivers/CMSIS/Include/cmsis_gcc.h **** }
 431:Drivers/CMSIS/Include/cmsis_gcc.h **** 
 432:Drivers/CMSIS/Include/cmsis_gcc.h **** 
 433:Drivers/CMSIS/Include/cmsis_gcc.h **** /**
 434:Drivers/CMSIS/Include/cmsis_gcc.h ****   \brief   Data Memory Barrier
 435:Drivers/CMSIS/Include/cmsis_gcc.h ****   \details Ensures the apparent order of the explicit memory operations before
 436:Drivers/CMSIS/Include/cmsis_gcc.h ****            and after the instruction, without ensuring their completion.
 437:Drivers/CMSIS/Include/cmsis_gcc.h ****  */
 438:Drivers/CMSIS/Include/cmsis_gcc.h **** __attribute__((always_inline)) __STATIC_INLINE void __DMB(void)
 439:Drivers/CMSIS/Include/cmsis_gcc.h **** {
 440:Drivers/CMSIS/Include/cmsis_gcc.h ****   __ASM volatile ("dmb 0xF":::"memory");
 441:Drivers/CMSIS/Include/cmsis_gcc.h **** }
 442:Drivers/CMSIS/Include/cmsis_gcc.h **** 
 443:Drivers/CMSIS/Include/cmsis_gcc.h **** 
 444:Drivers/CMSIS/Include/cmsis_gcc.h **** /**
 445:Drivers/CMSIS/Include/cmsis_gcc.h ****   \brief   Reverse byte order (32 bit)
 446:Drivers/CMSIS/Include/cmsis_gcc.h ****   \details Reverses the byte order in integer value.
 447:Drivers/CMSIS/Include/cmsis_gcc.h ****   \param [in]    value  Value to reverse
 448:Drivers/CMSIS/Include/cmsis_gcc.h ****   \return               Reversed value
 449:Drivers/CMSIS/Include/cmsis_gcc.h ****  */
 450:Drivers/CMSIS/Include/cmsis_gcc.h **** __attribute__((always_inline)) __STATIC_INLINE uint32_t __REV(uint32_t value)
 451:Drivers/CMSIS/Include/cmsis_gcc.h **** {
 452:Drivers/CMSIS/Include/cmsis_gcc.h **** #if (__GNUC__ > 4) || (__GNUC__ == 4 && __GNUC_MINOR__ >= 5)
 453:Drivers/CMSIS/Include/cmsis_gcc.h ****   return __builtin_bswap32(value);
 454:Drivers/CMSIS/Include/cmsis_gcc.h **** #else
 455:Drivers/CMSIS/Include/cmsis_gcc.h ****   uint32_t result;
 456:Drivers/CMSIS/Include/cmsis_gcc.h **** 
 457:Drivers/CMSIS/Include/cmsis_gcc.h ****   __ASM volatile ("rev %0, %1" : __CMSIS_GCC_OUT_REG (result) : __CMSIS_GCC_USE_REG (value) );
 458:Drivers/CMSIS/Include/cmsis_gcc.h ****   return(result);
 459:Drivers/CMSIS/Include/cmsis_gcc.h **** #endif
 460:Drivers/CMSIS/Include/cmsis_gcc.h **** }
 461:Drivers/CMSIS/Include/cmsis_gcc.h **** 
 462:Drivers/CMSIS/Include/cmsis_gcc.h **** 
 463:Drivers/CMSIS/Include/cmsis_gcc.h **** /**
 464:Drivers/CMSIS/Include/cmsis_gcc.h ****   \brief   Reverse byte order (16 bit)
 465:Drivers/CMSIS/Include/cmsis_gcc.h ****   \details Reverses the byte order in two unsigned short values.
 466:Drivers/CMSIS/Include/cmsis_gcc.h ****   \param [in]    value  Value to reverse
 467:Drivers/CMSIS/Include/cmsis_gcc.h ****   \return               Reversed value
 468:Drivers/CMSIS/Include/cmsis_gcc.h ****  */
ARM GAS  /var/folders/19/rz7506jh8xn7x1006s6s574h0000gn/T//ccoB5ljA.s 			page 14


 469:Drivers/CMSIS/Include/cmsis_gcc.h **** __attribute__((always_inline)) __STATIC_INLINE uint32_t __REV16(uint32_t value)
 470:Drivers/CMSIS/Include/cmsis_gcc.h **** {
 471:Drivers/CMSIS/Include/cmsis_gcc.h ****   uint32_t result;
 472:Drivers/CMSIS/Include/cmsis_gcc.h **** 
 473:Drivers/CMSIS/Include/cmsis_gcc.h ****   __ASM volatile ("rev16 %0, %1" : __CMSIS_GCC_OUT_REG (result) : __CMSIS_GCC_USE_REG (value) );
 474:Drivers/CMSIS/Include/cmsis_gcc.h ****   return(result);
 475:Drivers/CMSIS/Include/cmsis_gcc.h **** }
 476:Drivers/CMSIS/Include/cmsis_gcc.h **** 
 477:Drivers/CMSIS/Include/cmsis_gcc.h **** 
 478:Drivers/CMSIS/Include/cmsis_gcc.h **** /**
 479:Drivers/CMSIS/Include/cmsis_gcc.h ****   \brief   Reverse byte order in signed short value
 480:Drivers/CMSIS/Include/cmsis_gcc.h ****   \details Reverses the byte order in a signed short value with sign extension to integer.
 481:Drivers/CMSIS/Include/cmsis_gcc.h ****   \param [in]    value  Value to reverse
 482:Drivers/CMSIS/Include/cmsis_gcc.h ****   \return               Reversed value
 483:Drivers/CMSIS/Include/cmsis_gcc.h ****  */
 484:Drivers/CMSIS/Include/cmsis_gcc.h **** __attribute__((always_inline)) __STATIC_INLINE int32_t __REVSH(int32_t value)
 485:Drivers/CMSIS/Include/cmsis_gcc.h **** {
 486:Drivers/CMSIS/Include/cmsis_gcc.h **** #if (__GNUC__ > 4) || (__GNUC__ == 4 && __GNUC_MINOR__ >= 8)
 487:Drivers/CMSIS/Include/cmsis_gcc.h ****   return (short)__builtin_bswap16(value);
 488:Drivers/CMSIS/Include/cmsis_gcc.h **** #else
 489:Drivers/CMSIS/Include/cmsis_gcc.h ****   int32_t result;
 490:Drivers/CMSIS/Include/cmsis_gcc.h **** 
 491:Drivers/CMSIS/Include/cmsis_gcc.h ****   __ASM volatile ("revsh %0, %1" : __CMSIS_GCC_OUT_REG (result) : __CMSIS_GCC_USE_REG (value) );
 492:Drivers/CMSIS/Include/cmsis_gcc.h ****   return(result);
 493:Drivers/CMSIS/Include/cmsis_gcc.h **** #endif
 494:Drivers/CMSIS/Include/cmsis_gcc.h **** }
 495:Drivers/CMSIS/Include/cmsis_gcc.h **** 
 496:Drivers/CMSIS/Include/cmsis_gcc.h **** 
 497:Drivers/CMSIS/Include/cmsis_gcc.h **** /**
 498:Drivers/CMSIS/Include/cmsis_gcc.h ****   \brief   Rotate Right in unsigned value (32 bit)
 499:Drivers/CMSIS/Include/cmsis_gcc.h ****   \details Rotate Right (immediate) provides the value of the contents of a register rotated by a v
 500:Drivers/CMSIS/Include/cmsis_gcc.h ****   \param [in]    value  Value to rotate
 501:Drivers/CMSIS/Include/cmsis_gcc.h ****   \param [in]    value  Number of Bits to rotate
 502:Drivers/CMSIS/Include/cmsis_gcc.h ****   \return               Rotated value
 503:Drivers/CMSIS/Include/cmsis_gcc.h ****  */
 504:Drivers/CMSIS/Include/cmsis_gcc.h **** __attribute__((always_inline)) __STATIC_INLINE uint32_t __ROR(uint32_t op1, uint32_t op2)
 505:Drivers/CMSIS/Include/cmsis_gcc.h **** {
 506:Drivers/CMSIS/Include/cmsis_gcc.h ****   return (op1 >> op2) | (op1 << (32U - op2));
 507:Drivers/CMSIS/Include/cmsis_gcc.h **** }
 508:Drivers/CMSIS/Include/cmsis_gcc.h **** 
 509:Drivers/CMSIS/Include/cmsis_gcc.h **** 
 510:Drivers/CMSIS/Include/cmsis_gcc.h **** /**
 511:Drivers/CMSIS/Include/cmsis_gcc.h ****   \brief   Breakpoint
 512:Drivers/CMSIS/Include/cmsis_gcc.h ****   \details Causes the processor to enter Debug state.
 513:Drivers/CMSIS/Include/cmsis_gcc.h ****            Debug tools can use this to investigate system state when the instruction at a particula
 514:Drivers/CMSIS/Include/cmsis_gcc.h ****   \param [in]    value  is ignored by the processor.
 515:Drivers/CMSIS/Include/cmsis_gcc.h ****                  If required, a debugger can use it to store additional information about the break
 516:Drivers/CMSIS/Include/cmsis_gcc.h ****  */
 517:Drivers/CMSIS/Include/cmsis_gcc.h **** #define __BKPT(value)                       __ASM volatile ("bkpt "#value)
 518:Drivers/CMSIS/Include/cmsis_gcc.h **** 
 519:Drivers/CMSIS/Include/cmsis_gcc.h **** 
 520:Drivers/CMSIS/Include/cmsis_gcc.h **** /**
 521:Drivers/CMSIS/Include/cmsis_gcc.h ****   \brief   Reverse bit order of value
 522:Drivers/CMSIS/Include/cmsis_gcc.h ****   \details Reverses the bit order of the given value.
 523:Drivers/CMSIS/Include/cmsis_gcc.h ****   \param [in]    value  Value to reverse
 524:Drivers/CMSIS/Include/cmsis_gcc.h ****   \return               Reversed value
 525:Drivers/CMSIS/Include/cmsis_gcc.h ****  */
ARM GAS  /var/folders/19/rz7506jh8xn7x1006s6s574h0000gn/T//ccoB5ljA.s 			page 15


 526:Drivers/CMSIS/Include/cmsis_gcc.h **** __attribute__((always_inline)) __STATIC_INLINE uint32_t __RBIT(uint32_t value)
 527:Drivers/CMSIS/Include/cmsis_gcc.h **** {
 528:Drivers/CMSIS/Include/cmsis_gcc.h ****   uint32_t result;
 529:Drivers/CMSIS/Include/cmsis_gcc.h **** 
 530:Drivers/CMSIS/Include/cmsis_gcc.h **** #if       (__CORTEX_M >= 0x03U) || (__CORTEX_SC >= 300U)
 531:Drivers/CMSIS/Include/cmsis_gcc.h ****    __ASM volatile ("rbit %0, %1" : "=r" (result) : "r" (value) );
  91              		.loc 2 531 0
  92 0000 4FF48073 		mov	r3, #256
  93              	@ 531 "Drivers/CMSIS/Include/cmsis_gcc.h" 1
  94 0004 93FAA3F3 		rbit r3, r3
  95              	@ 0 "" 2
  96              	.LVL1:
  97              		.thumb
  98              	.LBE29:
  99              	.LBE28:
 189:Drivers/STM32F1xx_HAL_Driver/Src/stm32f1xx_hal_pwr.c ****   /* Enable access to RTC and backup registers */
 190:Drivers/STM32F1xx_HAL_Driver/Src/stm32f1xx_hal_pwr.c ****   *(__IO uint32_t *) CR_DBP_BB = (uint32_t)ENABLE;
 100              		.loc 1 190 0
 101 0008 B3FA83F3 		clz	r3, r3
 102              	.LVL2:
 103 000c 9B00     		lsls	r3, r3, #2
 104 000e 03F18443 		add	r3, r3, #1107296256
 105 0012 03F56023 		add	r3, r3, #917504
 106 0016 0122     		movs	r2, #1
 107 0018 1A60     		str	r2, [r3]
 108 001a 7047     		bx	lr
 109              		.cfi_endproc
 110              	.LFE65:
 112              		.section	.text.HAL_PWR_DisableBkUpAccess,"ax",%progbits
 113              		.align	1
 114              		.global	HAL_PWR_DisableBkUpAccess
 115              		.thumb
 116              		.thumb_func
 118              	HAL_PWR_DisableBkUpAccess:
 119              	.LFB66:
 191:Drivers/STM32F1xx_HAL_Driver/Src/stm32f1xx_hal_pwr.c **** }
 192:Drivers/STM32F1xx_HAL_Driver/Src/stm32f1xx_hal_pwr.c **** 
 193:Drivers/STM32F1xx_HAL_Driver/Src/stm32f1xx_hal_pwr.c **** /**
 194:Drivers/STM32F1xx_HAL_Driver/Src/stm32f1xx_hal_pwr.c ****   * @brief  Disables access to the backup domain (RTC registers, RTC
 195:Drivers/STM32F1xx_HAL_Driver/Src/stm32f1xx_hal_pwr.c ****   *         backup data registers).
 196:Drivers/STM32F1xx_HAL_Driver/Src/stm32f1xx_hal_pwr.c ****   * @note   If the HSE divided by 128 is used as the RTC clock, the
 197:Drivers/STM32F1xx_HAL_Driver/Src/stm32f1xx_hal_pwr.c ****   *         Backup Domain Access should be kept enabled.
 198:Drivers/STM32F1xx_HAL_Driver/Src/stm32f1xx_hal_pwr.c ****   * @retval None
 199:Drivers/STM32F1xx_HAL_Driver/Src/stm32f1xx_hal_pwr.c ****   */
 200:Drivers/STM32F1xx_HAL_Driver/Src/stm32f1xx_hal_pwr.c **** void HAL_PWR_DisableBkUpAccess(void)
 201:Drivers/STM32F1xx_HAL_Driver/Src/stm32f1xx_hal_pwr.c **** {
 120              		.loc 1 201 0
 121              		.cfi_startproc
 122              		@ args = 0, pretend = 0, frame = 0
 123              		@ frame_needed = 0, uses_anonymous_args = 0
 124              		@ link register save eliminated.
 125              	.LVL3:
 126              	.LBB30:
 127              	.LBB31:
 128              		.loc 2 531 0
 129 0000 4FF48073 		mov	r3, #256
 130              	@ 531 "Drivers/CMSIS/Include/cmsis_gcc.h" 1
ARM GAS  /var/folders/19/rz7506jh8xn7x1006s6s574h0000gn/T//ccoB5ljA.s 			page 16


 131 0004 93FAA3F3 		rbit r3, r3
 132              	@ 0 "" 2
 133              	.LVL4:
 134              		.thumb
 135              	.LBE31:
 136              	.LBE30:
 202:Drivers/STM32F1xx_HAL_Driver/Src/stm32f1xx_hal_pwr.c ****   /* Disable access to RTC and backup registers */
 203:Drivers/STM32F1xx_HAL_Driver/Src/stm32f1xx_hal_pwr.c ****   *(__IO uint32_t *) CR_DBP_BB = (uint32_t)DISABLE;
 137              		.loc 1 203 0
 138 0008 B3FA83F3 		clz	r3, r3
 139              	.LVL5:
 140 000c 9B00     		lsls	r3, r3, #2
 141 000e 03F18443 		add	r3, r3, #1107296256
 142 0012 03F56023 		add	r3, r3, #917504
 143 0016 0022     		movs	r2, #0
 144 0018 1A60     		str	r2, [r3]
 145 001a 7047     		bx	lr
 146              		.cfi_endproc
 147              	.LFE66:
 149              		.section	.text.HAL_PWR_ConfigPVD,"ax",%progbits
 150              		.align	1
 151              		.global	HAL_PWR_ConfigPVD
 152              		.thumb
 153              		.thumb_func
 155              	HAL_PWR_ConfigPVD:
 156              	.LFB67:
 204:Drivers/STM32F1xx_HAL_Driver/Src/stm32f1xx_hal_pwr.c **** }
 205:Drivers/STM32F1xx_HAL_Driver/Src/stm32f1xx_hal_pwr.c **** 
 206:Drivers/STM32F1xx_HAL_Driver/Src/stm32f1xx_hal_pwr.c **** /**
 207:Drivers/STM32F1xx_HAL_Driver/Src/stm32f1xx_hal_pwr.c ****   * @}
 208:Drivers/STM32F1xx_HAL_Driver/Src/stm32f1xx_hal_pwr.c ****   */
 209:Drivers/STM32F1xx_HAL_Driver/Src/stm32f1xx_hal_pwr.c **** 
 210:Drivers/STM32F1xx_HAL_Driver/Src/stm32f1xx_hal_pwr.c **** /** @defgroup PWR_Exported_Functions_Group2 Peripheral Control functions 
 211:Drivers/STM32F1xx_HAL_Driver/Src/stm32f1xx_hal_pwr.c ****   * @brief    Low Power modes configuration functions
 212:Drivers/STM32F1xx_HAL_Driver/Src/stm32f1xx_hal_pwr.c ****   *
 213:Drivers/STM32F1xx_HAL_Driver/Src/stm32f1xx_hal_pwr.c **** @verbatim
 214:Drivers/STM32F1xx_HAL_Driver/Src/stm32f1xx_hal_pwr.c ****  ===============================================================================
 215:Drivers/STM32F1xx_HAL_Driver/Src/stm32f1xx_hal_pwr.c ****                  ##### Peripheral Control functions #####
 216:Drivers/STM32F1xx_HAL_Driver/Src/stm32f1xx_hal_pwr.c ****  ===============================================================================
 217:Drivers/STM32F1xx_HAL_Driver/Src/stm32f1xx_hal_pwr.c ****      
 218:Drivers/STM32F1xx_HAL_Driver/Src/stm32f1xx_hal_pwr.c ****     *** PVD configuration ***
 219:Drivers/STM32F1xx_HAL_Driver/Src/stm32f1xx_hal_pwr.c ****     =========================
 220:Drivers/STM32F1xx_HAL_Driver/Src/stm32f1xx_hal_pwr.c ****     [..]
 221:Drivers/STM32F1xx_HAL_Driver/Src/stm32f1xx_hal_pwr.c ****       (+) The PVD is used to monitor the VDD power supply by comparing it to a
 222:Drivers/STM32F1xx_HAL_Driver/Src/stm32f1xx_hal_pwr.c ****           threshold selected by the PVD Level (PLS[2:0] bits in the PWR_CR).
 223:Drivers/STM32F1xx_HAL_Driver/Src/stm32f1xx_hal_pwr.c **** 
 224:Drivers/STM32F1xx_HAL_Driver/Src/stm32f1xx_hal_pwr.c ****       (+) A PVDO flag is available to indicate if VDD/VDDA is higher or lower
 225:Drivers/STM32F1xx_HAL_Driver/Src/stm32f1xx_hal_pwr.c ****           than the PVD threshold. This event is internally connected to the EXTI
 226:Drivers/STM32F1xx_HAL_Driver/Src/stm32f1xx_hal_pwr.c ****           line16 and can generate an interrupt if enabled. This is done through
 227:Drivers/STM32F1xx_HAL_Driver/Src/stm32f1xx_hal_pwr.c ****           __HAL_PVD_EXTI_ENABLE_IT() macro.
 228:Drivers/STM32F1xx_HAL_Driver/Src/stm32f1xx_hal_pwr.c ****       (+) The PVD is stopped in Standby mode.
 229:Drivers/STM32F1xx_HAL_Driver/Src/stm32f1xx_hal_pwr.c **** 
 230:Drivers/STM32F1xx_HAL_Driver/Src/stm32f1xx_hal_pwr.c ****     *** WakeUp pin configuration ***
 231:Drivers/STM32F1xx_HAL_Driver/Src/stm32f1xx_hal_pwr.c ****     ================================
 232:Drivers/STM32F1xx_HAL_Driver/Src/stm32f1xx_hal_pwr.c ****     [..]
 233:Drivers/STM32F1xx_HAL_Driver/Src/stm32f1xx_hal_pwr.c ****       (+) WakeUp pin is used to wake up the system from Standby mode. This pin is
 234:Drivers/STM32F1xx_HAL_Driver/Src/stm32f1xx_hal_pwr.c ****           forced in input pull-down configuration and is active on rising edges.
ARM GAS  /var/folders/19/rz7506jh8xn7x1006s6s574h0000gn/T//ccoB5ljA.s 			page 17


 235:Drivers/STM32F1xx_HAL_Driver/Src/stm32f1xx_hal_pwr.c ****       (+) There is one WakeUp pin:
 236:Drivers/STM32F1xx_HAL_Driver/Src/stm32f1xx_hal_pwr.c ****           WakeUp Pin 1 on PA.00.
 237:Drivers/STM32F1xx_HAL_Driver/Src/stm32f1xx_hal_pwr.c **** 
 238:Drivers/STM32F1xx_HAL_Driver/Src/stm32f1xx_hal_pwr.c ****     [..]
 239:Drivers/STM32F1xx_HAL_Driver/Src/stm32f1xx_hal_pwr.c **** 
 240:Drivers/STM32F1xx_HAL_Driver/Src/stm32f1xx_hal_pwr.c ****     *** Low Power modes configuration ***
 241:Drivers/STM32F1xx_HAL_Driver/Src/stm32f1xx_hal_pwr.c ****     =====================================
 242:Drivers/STM32F1xx_HAL_Driver/Src/stm32f1xx_hal_pwr.c ****      [..]
 243:Drivers/STM32F1xx_HAL_Driver/Src/stm32f1xx_hal_pwr.c ****       The device features 3 low-power modes:
 244:Drivers/STM32F1xx_HAL_Driver/Src/stm32f1xx_hal_pwr.c ****       (+) Sleep mode: CPU clock off, all peripherals including Cortex-M3 core peripherals like 
 245:Drivers/STM32F1xx_HAL_Driver/Src/stm32f1xx_hal_pwr.c ****                       NVIC, SysTick, etc. are kept running
 246:Drivers/STM32F1xx_HAL_Driver/Src/stm32f1xx_hal_pwr.c ****       (+) Stop mode: All clocks are stopped
 247:Drivers/STM32F1xx_HAL_Driver/Src/stm32f1xx_hal_pwr.c ****       (+) Standby mode: 1.8V domain powered off
 248:Drivers/STM32F1xx_HAL_Driver/Src/stm32f1xx_hal_pwr.c ****   
 249:Drivers/STM32F1xx_HAL_Driver/Src/stm32f1xx_hal_pwr.c ****   
 250:Drivers/STM32F1xx_HAL_Driver/Src/stm32f1xx_hal_pwr.c ****    *** Sleep mode ***
 251:Drivers/STM32F1xx_HAL_Driver/Src/stm32f1xx_hal_pwr.c ****    ==================
 252:Drivers/STM32F1xx_HAL_Driver/Src/stm32f1xx_hal_pwr.c ****     [..]
 253:Drivers/STM32F1xx_HAL_Driver/Src/stm32f1xx_hal_pwr.c ****       (+) Entry:
 254:Drivers/STM32F1xx_HAL_Driver/Src/stm32f1xx_hal_pwr.c ****           The Sleep mode is entered by using the HAL_PWR_EnterSLEEPMode(PWR_MAINREGULATOR_ON, PWR_S
 255:Drivers/STM32F1xx_HAL_Driver/Src/stm32f1xx_hal_pwr.c ****               functions with
 256:Drivers/STM32F1xx_HAL_Driver/Src/stm32f1xx_hal_pwr.c ****           (++) PWR_SLEEPENTRY_WFI: enter SLEEP mode with WFI instruction
 257:Drivers/STM32F1xx_HAL_Driver/Src/stm32f1xx_hal_pwr.c ****           (++) PWR_SLEEPENTRY_WFE: enter SLEEP mode with WFE instruction
 258:Drivers/STM32F1xx_HAL_Driver/Src/stm32f1xx_hal_pwr.c ****      
 259:Drivers/STM32F1xx_HAL_Driver/Src/stm32f1xx_hal_pwr.c ****       (+) Exit:
 260:Drivers/STM32F1xx_HAL_Driver/Src/stm32f1xx_hal_pwr.c ****         (++) WFI entry mode, Any peripheral interrupt acknowledged by the nested vectored interrupt
 261:Drivers/STM32F1xx_HAL_Driver/Src/stm32f1xx_hal_pwr.c ****              controller (NVIC) can wake up the device from Sleep mode.
 262:Drivers/STM32F1xx_HAL_Driver/Src/stm32f1xx_hal_pwr.c ****         (++) WFE entry mode, Any wakeup event can wake up the device from Sleep mode.
 263:Drivers/STM32F1xx_HAL_Driver/Src/stm32f1xx_hal_pwr.c ****            (+++) Any peripheral interrupt w/o NVIC configuration & SEVONPEND bit set in the Cortex 
 264:Drivers/STM32F1xx_HAL_Driver/Src/stm32f1xx_hal_pwr.c ****            (+++) Any EXTI Line (Internal or External) configured in Event mode
 265:Drivers/STM32F1xx_HAL_Driver/Src/stm32f1xx_hal_pwr.c **** 
 266:Drivers/STM32F1xx_HAL_Driver/Src/stm32f1xx_hal_pwr.c ****    *** Stop mode ***
 267:Drivers/STM32F1xx_HAL_Driver/Src/stm32f1xx_hal_pwr.c ****    =================
 268:Drivers/STM32F1xx_HAL_Driver/Src/stm32f1xx_hal_pwr.c ****     [..]
 269:Drivers/STM32F1xx_HAL_Driver/Src/stm32f1xx_hal_pwr.c ****       The Stop mode is based on the Cortex-M3 deepsleep mode combined with peripheral
 270:Drivers/STM32F1xx_HAL_Driver/Src/stm32f1xx_hal_pwr.c ****       clock gating. The voltage regulator can be configured either in normal or low-power mode.
 271:Drivers/STM32F1xx_HAL_Driver/Src/stm32f1xx_hal_pwr.c ****       In Stop mode, all clocks in the 1.8 V domain are stopped, the PLL, the HSI and the HSE RC 
 272:Drivers/STM32F1xx_HAL_Driver/Src/stm32f1xx_hal_pwr.c ****       oscillators are disabled. SRAM and register contents are preserved.
 273:Drivers/STM32F1xx_HAL_Driver/Src/stm32f1xx_hal_pwr.c ****       In Stop mode, all I/O pins keep the same state as in Run mode.
 274:Drivers/STM32F1xx_HAL_Driver/Src/stm32f1xx_hal_pwr.c **** 
 275:Drivers/STM32F1xx_HAL_Driver/Src/stm32f1xx_hal_pwr.c ****       (+) Entry:
 276:Drivers/STM32F1xx_HAL_Driver/Src/stm32f1xx_hal_pwr.c ****            The Stop mode is entered using the HAL_PWR_EnterSTOPMode(PWR_REGULATOR_VALUE, PWR_SLEEPE
 277:Drivers/STM32F1xx_HAL_Driver/Src/stm32f1xx_hal_pwr.c ****              function with:
 278:Drivers/STM32F1xx_HAL_Driver/Src/stm32f1xx_hal_pwr.c ****           (++) PWR_REGULATOR_VALUE= PWR_MAINREGULATOR_ON: Main regulator ON.
 279:Drivers/STM32F1xx_HAL_Driver/Src/stm32f1xx_hal_pwr.c ****           (++) PWR_REGULATOR_VALUE= PWR_LOWPOWERREGULATOR_ON: Low Power regulator ON.
 280:Drivers/STM32F1xx_HAL_Driver/Src/stm32f1xx_hal_pwr.c ****           (++) PWR_SLEEPENTRY_WFx= PWR_SLEEPENTRY_WFI: enter STOP mode with WFI instruction
 281:Drivers/STM32F1xx_HAL_Driver/Src/stm32f1xx_hal_pwr.c ****           (++) PWR_SLEEPENTRY_WFx= PWR_SLEEPENTRY_WFE: enter STOP mode with WFE instruction
 282:Drivers/STM32F1xx_HAL_Driver/Src/stm32f1xx_hal_pwr.c ****       (+) Exit:
 283:Drivers/STM32F1xx_HAL_Driver/Src/stm32f1xx_hal_pwr.c ****           (++) WFI entry mode, Any EXTI Line (Internal or External) configured in Interrupt mode wi
 284:Drivers/STM32F1xx_HAL_Driver/Src/stm32f1xx_hal_pwr.c ****           (++) WFE entry mode, Any EXTI Line (Internal or External) configured in Event mode.
 285:Drivers/STM32F1xx_HAL_Driver/Src/stm32f1xx_hal_pwr.c **** 
 286:Drivers/STM32F1xx_HAL_Driver/Src/stm32f1xx_hal_pwr.c ****    *** Standby mode ***
 287:Drivers/STM32F1xx_HAL_Driver/Src/stm32f1xx_hal_pwr.c ****    ====================
 288:Drivers/STM32F1xx_HAL_Driver/Src/stm32f1xx_hal_pwr.c ****      [..]
 289:Drivers/STM32F1xx_HAL_Driver/Src/stm32f1xx_hal_pwr.c ****       The Standby mode allows to achieve the lowest power consumption. It is based on the
 290:Drivers/STM32F1xx_HAL_Driver/Src/stm32f1xx_hal_pwr.c ****       Cortex-M3 deepsleep mode, with the voltage regulator disabled. The 1.8 V domain is 
 291:Drivers/STM32F1xx_HAL_Driver/Src/stm32f1xx_hal_pwr.c ****       consequently powered off. The PLL, the HSI oscillator and the HSE oscillator are also 
ARM GAS  /var/folders/19/rz7506jh8xn7x1006s6s574h0000gn/T//ccoB5ljA.s 			page 18


 292:Drivers/STM32F1xx_HAL_Driver/Src/stm32f1xx_hal_pwr.c ****       switched off. SRAM and register contents are lost except for registers in the Backup domain 
 293:Drivers/STM32F1xx_HAL_Driver/Src/stm32f1xx_hal_pwr.c ****       and Standby circuitry
 294:Drivers/STM32F1xx_HAL_Driver/Src/stm32f1xx_hal_pwr.c ****       
 295:Drivers/STM32F1xx_HAL_Driver/Src/stm32f1xx_hal_pwr.c ****       (+) Entry:
 296:Drivers/STM32F1xx_HAL_Driver/Src/stm32f1xx_hal_pwr.c ****         (++) The Standby mode is entered using the HAL_PWR_EnterSTANDBYMode() function.
 297:Drivers/STM32F1xx_HAL_Driver/Src/stm32f1xx_hal_pwr.c ****       (+) Exit:
 298:Drivers/STM32F1xx_HAL_Driver/Src/stm32f1xx_hal_pwr.c ****         (++) WKUP pin rising edge, RTC alarm event rising edge, external Reset in 
 299:Drivers/STM32F1xx_HAL_Driver/Src/stm32f1xx_hal_pwr.c ****              NRSTpin, IWDG Reset
 300:Drivers/STM32F1xx_HAL_Driver/Src/stm32f1xx_hal_pwr.c **** 
 301:Drivers/STM32F1xx_HAL_Driver/Src/stm32f1xx_hal_pwr.c ****    *** Auto-wakeup (AWU) from low-power mode ***
 302:Drivers/STM32F1xx_HAL_Driver/Src/stm32f1xx_hal_pwr.c ****        =============================================
 303:Drivers/STM32F1xx_HAL_Driver/Src/stm32f1xx_hal_pwr.c ****        [..]
 304:Drivers/STM32F1xx_HAL_Driver/Src/stm32f1xx_hal_pwr.c ****         
 305:Drivers/STM32F1xx_HAL_Driver/Src/stm32f1xx_hal_pwr.c ****        (+) The MCU can be woken up from low-power mode by an RTC Alarm event, 
 306:Drivers/STM32F1xx_HAL_Driver/Src/stm32f1xx_hal_pwr.c ****            without depending on an external interrupt (Auto-wakeup mode).
 307:Drivers/STM32F1xx_HAL_Driver/Src/stm32f1xx_hal_pwr.c ****    
 308:Drivers/STM32F1xx_HAL_Driver/Src/stm32f1xx_hal_pwr.c ****        (+) RTC auto-wakeup (AWU) from the Stop and Standby modes
 309:Drivers/STM32F1xx_HAL_Driver/Src/stm32f1xx_hal_pwr.c **** 
 310:Drivers/STM32F1xx_HAL_Driver/Src/stm32f1xx_hal_pwr.c ****            (++) To wake up from the Stop mode with an RTC alarm event, it is necessary to 
 311:Drivers/STM32F1xx_HAL_Driver/Src/stm32f1xx_hal_pwr.c ****                 configure the RTC to generate the RTC alarm using the HAL_RTC_SetAlarm_IT() functio
 312:Drivers/STM32F1xx_HAL_Driver/Src/stm32f1xx_hal_pwr.c **** 
 313:Drivers/STM32F1xx_HAL_Driver/Src/stm32f1xx_hal_pwr.c ****    *** PWR Workarounds linked to Silicon Limitation ***
 314:Drivers/STM32F1xx_HAL_Driver/Src/stm32f1xx_hal_pwr.c ****        ====================================================
 315:Drivers/STM32F1xx_HAL_Driver/Src/stm32f1xx_hal_pwr.c ****        [..]
 316:Drivers/STM32F1xx_HAL_Driver/Src/stm32f1xx_hal_pwr.c ****        Below the list of all silicon limitations known on STM32F1xx prouct.
 317:Drivers/STM32F1xx_HAL_Driver/Src/stm32f1xx_hal_pwr.c **** 
 318:Drivers/STM32F1xx_HAL_Driver/Src/stm32f1xx_hal_pwr.c ****        (#)Workarounds Implemented inside PWR HAL Driver
 319:Drivers/STM32F1xx_HAL_Driver/Src/stm32f1xx_hal_pwr.c ****           (##)Debugging Stop mode with WFE entry - overloaded the WFE by an internal function    
 320:Drivers/STM32F1xx_HAL_Driver/Src/stm32f1xx_hal_pwr.c ****         
 321:Drivers/STM32F1xx_HAL_Driver/Src/stm32f1xx_hal_pwr.c **** @endverbatim
 322:Drivers/STM32F1xx_HAL_Driver/Src/stm32f1xx_hal_pwr.c ****   * @{
 323:Drivers/STM32F1xx_HAL_Driver/Src/stm32f1xx_hal_pwr.c ****   */
 324:Drivers/STM32F1xx_HAL_Driver/Src/stm32f1xx_hal_pwr.c **** 
 325:Drivers/STM32F1xx_HAL_Driver/Src/stm32f1xx_hal_pwr.c **** /**
 326:Drivers/STM32F1xx_HAL_Driver/Src/stm32f1xx_hal_pwr.c ****   * @brief  Configures the voltage threshold detected by the Power Voltage Detector(PVD).
 327:Drivers/STM32F1xx_HAL_Driver/Src/stm32f1xx_hal_pwr.c ****   * @param  sConfigPVD: pointer to an PWR_PVDTypeDef structure that contains the configuration
 328:Drivers/STM32F1xx_HAL_Driver/Src/stm32f1xx_hal_pwr.c ****   *         information for the PVD.
 329:Drivers/STM32F1xx_HAL_Driver/Src/stm32f1xx_hal_pwr.c ****   * @note   Refer to the electrical characteristics of your device datasheet for
 330:Drivers/STM32F1xx_HAL_Driver/Src/stm32f1xx_hal_pwr.c ****   *         more details about the voltage threshold corresponding to each
 331:Drivers/STM32F1xx_HAL_Driver/Src/stm32f1xx_hal_pwr.c ****   *         detection level.
 332:Drivers/STM32F1xx_HAL_Driver/Src/stm32f1xx_hal_pwr.c ****   * @retval None
 333:Drivers/STM32F1xx_HAL_Driver/Src/stm32f1xx_hal_pwr.c ****   */
 334:Drivers/STM32F1xx_HAL_Driver/Src/stm32f1xx_hal_pwr.c **** void HAL_PWR_ConfigPVD(PWR_PVDTypeDef *sConfigPVD)
 335:Drivers/STM32F1xx_HAL_Driver/Src/stm32f1xx_hal_pwr.c **** {
 157              		.loc 1 335 0
 158              		.cfi_startproc
 159              		@ args = 0, pretend = 0, frame = 0
 160              		@ frame_needed = 0, uses_anonymous_args = 0
 161              		@ link register save eliminated.
 162              	.LVL6:
 336:Drivers/STM32F1xx_HAL_Driver/Src/stm32f1xx_hal_pwr.c ****   /* Check the parameters */
 337:Drivers/STM32F1xx_HAL_Driver/Src/stm32f1xx_hal_pwr.c ****   assert_param(IS_PWR_PVD_LEVEL(sConfigPVD->PVDLevel));
 338:Drivers/STM32F1xx_HAL_Driver/Src/stm32f1xx_hal_pwr.c ****   assert_param(IS_PWR_PVD_MODE(sConfigPVD->Mode));
 339:Drivers/STM32F1xx_HAL_Driver/Src/stm32f1xx_hal_pwr.c **** 
 340:Drivers/STM32F1xx_HAL_Driver/Src/stm32f1xx_hal_pwr.c ****   /* Set PLS[7:5] bits according to PVDLevel value */
 341:Drivers/STM32F1xx_HAL_Driver/Src/stm32f1xx_hal_pwr.c ****   MODIFY_REG(PWR->CR, PWR_CR_PLS, sConfigPVD->PVDLevel);
 163              		.loc 1 341 0
ARM GAS  /var/folders/19/rz7506jh8xn7x1006s6s574h0000gn/T//ccoB5ljA.s 			page 19


 164 0000 194B     		ldr	r3, .L25
 165 0002 0268     		ldr	r2, [r0]
 166 0004 1968     		ldr	r1, [r3]
 167 0006 21F0E001 		bic	r1, r1, #224
 168 000a 0A43     		orrs	r2, r2, r1
 169 000c 1A60     		str	r2, [r3]
 342:Drivers/STM32F1xx_HAL_Driver/Src/stm32f1xx_hal_pwr.c ****   
 343:Drivers/STM32F1xx_HAL_Driver/Src/stm32f1xx_hal_pwr.c ****   /* Clear any previous config. Keep it clear if no event or IT mode is selected */
 344:Drivers/STM32F1xx_HAL_Driver/Src/stm32f1xx_hal_pwr.c ****   __HAL_PWR_PVD_EXTI_DISABLE_EVENT();
 170              		.loc 1 344 0
 171 000e 03F51443 		add	r3, r3, #37888
 172 0012 5A68     		ldr	r2, [r3, #4]
 173 0014 22F48032 		bic	r2, r2, #65536
 174 0018 5A60     		str	r2, [r3, #4]
 345:Drivers/STM32F1xx_HAL_Driver/Src/stm32f1xx_hal_pwr.c ****   __HAL_PWR_PVD_EXTI_DISABLE_IT();
 175              		.loc 1 345 0
 176 001a 1A68     		ldr	r2, [r3]
 177 001c 22F48032 		bic	r2, r2, #65536
 178 0020 1A60     		str	r2, [r3]
 346:Drivers/STM32F1xx_HAL_Driver/Src/stm32f1xx_hal_pwr.c ****   __HAL_PWR_PVD_EXTI_DISABLE_FALLING_EDGE(); 
 179              		.loc 1 346 0
 180 0022 DA68     		ldr	r2, [r3, #12]
 181 0024 22F48032 		bic	r2, r2, #65536
 182 0028 DA60     		str	r2, [r3, #12]
 347:Drivers/STM32F1xx_HAL_Driver/Src/stm32f1xx_hal_pwr.c ****   __HAL_PWR_PVD_EXTI_DISABLE_RISING_EDGE();
 183              		.loc 1 347 0
 184 002a 9A68     		ldr	r2, [r3, #8]
 185 002c 22F48032 		bic	r2, r2, #65536
 186 0030 9A60     		str	r2, [r3, #8]
 348:Drivers/STM32F1xx_HAL_Driver/Src/stm32f1xx_hal_pwr.c **** 
 349:Drivers/STM32F1xx_HAL_Driver/Src/stm32f1xx_hal_pwr.c ****   /* Configure interrupt mode */
 350:Drivers/STM32F1xx_HAL_Driver/Src/stm32f1xx_hal_pwr.c ****   if((sConfigPVD->Mode & PVD_MODE_IT) == PVD_MODE_IT)
 187              		.loc 1 350 0
 188 0032 4268     		ldr	r2, [r0, #4]
 189 0034 D103     		lsls	r1, r2, #15
 190 0036 03D5     		bpl	.L8
 351:Drivers/STM32F1xx_HAL_Driver/Src/stm32f1xx_hal_pwr.c ****   {
 352:Drivers/STM32F1xx_HAL_Driver/Src/stm32f1xx_hal_pwr.c ****     __HAL_PWR_PVD_EXTI_ENABLE_IT();
 191              		.loc 1 352 0
 192 0038 1968     		ldr	r1, [r3]
 193 003a 41F48031 		orr	r1, r1, #65536
 194 003e 1960     		str	r1, [r3]
 195              	.L8:
 353:Drivers/STM32F1xx_HAL_Driver/Src/stm32f1xx_hal_pwr.c ****   }
 354:Drivers/STM32F1xx_HAL_Driver/Src/stm32f1xx_hal_pwr.c ****   
 355:Drivers/STM32F1xx_HAL_Driver/Src/stm32f1xx_hal_pwr.c ****   /* Configure event mode */
 356:Drivers/STM32F1xx_HAL_Driver/Src/stm32f1xx_hal_pwr.c ****   if((sConfigPVD->Mode & PVD_MODE_EVT) == PVD_MODE_EVT)
 196              		.loc 1 356 0
 197 0040 9003     		lsls	r0, r2, #14
 198              	.LVL7:
 199 0042 03D5     		bpl	.L9
 357:Drivers/STM32F1xx_HAL_Driver/Src/stm32f1xx_hal_pwr.c ****   {
 358:Drivers/STM32F1xx_HAL_Driver/Src/stm32f1xx_hal_pwr.c ****     __HAL_PWR_PVD_EXTI_ENABLE_EVENT();
 200              		.loc 1 358 0
 201 0044 5968     		ldr	r1, [r3, #4]
 202 0046 41F48031 		orr	r1, r1, #65536
 203 004a 5960     		str	r1, [r3, #4]
ARM GAS  /var/folders/19/rz7506jh8xn7x1006s6s574h0000gn/T//ccoB5ljA.s 			page 20


 204              	.L9:
 359:Drivers/STM32F1xx_HAL_Driver/Src/stm32f1xx_hal_pwr.c ****   }
 360:Drivers/STM32F1xx_HAL_Driver/Src/stm32f1xx_hal_pwr.c ****   
 361:Drivers/STM32F1xx_HAL_Driver/Src/stm32f1xx_hal_pwr.c ****   /* Configure the edge */
 362:Drivers/STM32F1xx_HAL_Driver/Src/stm32f1xx_hal_pwr.c ****   if((sConfigPVD->Mode & PVD_RISING_EDGE) == PVD_RISING_EDGE)
 205              		.loc 1 362 0
 206 004c D107     		lsls	r1, r2, #31
 207 004e 03D5     		bpl	.L10
 363:Drivers/STM32F1xx_HAL_Driver/Src/stm32f1xx_hal_pwr.c ****   {
 364:Drivers/STM32F1xx_HAL_Driver/Src/stm32f1xx_hal_pwr.c ****     __HAL_PWR_PVD_EXTI_ENABLE_RISING_EDGE();
 208              		.loc 1 364 0
 209 0050 9968     		ldr	r1, [r3, #8]
 210 0052 41F48031 		orr	r1, r1, #65536
 211 0056 9960     		str	r1, [r3, #8]
 212              	.L10:
 365:Drivers/STM32F1xx_HAL_Driver/Src/stm32f1xx_hal_pwr.c ****   }
 366:Drivers/STM32F1xx_HAL_Driver/Src/stm32f1xx_hal_pwr.c ****   
 367:Drivers/STM32F1xx_HAL_Driver/Src/stm32f1xx_hal_pwr.c ****   if((sConfigPVD->Mode & PVD_FALLING_EDGE) == PVD_FALLING_EDGE)
 213              		.loc 1 367 0
 214 0058 9207     		lsls	r2, r2, #30
 215 005a 03D5     		bpl	.L7
 368:Drivers/STM32F1xx_HAL_Driver/Src/stm32f1xx_hal_pwr.c ****   {
 369:Drivers/STM32F1xx_HAL_Driver/Src/stm32f1xx_hal_pwr.c ****     __HAL_PWR_PVD_EXTI_ENABLE_FALLING_EDGE();
 216              		.loc 1 369 0
 217 005c DA68     		ldr	r2, [r3, #12]
 218 005e 42F48032 		orr	r2, r2, #65536
 219 0062 DA60     		str	r2, [r3, #12]
 220              	.L7:
 221 0064 7047     		bx	lr
 222              	.L26:
 223 0066 00BF     		.align	2
 224              	.L25:
 225 0068 00700040 		.word	1073770496
 226              		.cfi_endproc
 227              	.LFE67:
 229              		.section	.text.HAL_PWR_EnablePVD,"ax",%progbits
 230              		.align	1
 231              		.global	HAL_PWR_EnablePVD
 232              		.thumb
 233              		.thumb_func
 235              	HAL_PWR_EnablePVD:
 236              	.LFB68:
 370:Drivers/STM32F1xx_HAL_Driver/Src/stm32f1xx_hal_pwr.c ****   }
 371:Drivers/STM32F1xx_HAL_Driver/Src/stm32f1xx_hal_pwr.c **** }
 372:Drivers/STM32F1xx_HAL_Driver/Src/stm32f1xx_hal_pwr.c **** 
 373:Drivers/STM32F1xx_HAL_Driver/Src/stm32f1xx_hal_pwr.c **** /**
 374:Drivers/STM32F1xx_HAL_Driver/Src/stm32f1xx_hal_pwr.c ****   * @brief  Enables the Power Voltage Detector(PVD).
 375:Drivers/STM32F1xx_HAL_Driver/Src/stm32f1xx_hal_pwr.c ****   * @retval None
 376:Drivers/STM32F1xx_HAL_Driver/Src/stm32f1xx_hal_pwr.c ****   */
 377:Drivers/STM32F1xx_HAL_Driver/Src/stm32f1xx_hal_pwr.c **** void HAL_PWR_EnablePVD(void)
 378:Drivers/STM32F1xx_HAL_Driver/Src/stm32f1xx_hal_pwr.c **** {
 237              		.loc 1 378 0
 238              		.cfi_startproc
 239              		@ args = 0, pretend = 0, frame = 0
 240              		@ frame_needed = 0, uses_anonymous_args = 0
 241              		@ link register save eliminated.
 242              	.LVL8:
ARM GAS  /var/folders/19/rz7506jh8xn7x1006s6s574h0000gn/T//ccoB5ljA.s 			page 21


 243              	.LBB32:
 244              	.LBB33:
 245              		.loc 2 531 0
 246 0000 1023     		movs	r3, #16
 247              	@ 531 "Drivers/CMSIS/Include/cmsis_gcc.h" 1
 248 0002 93FAA3F3 		rbit r3, r3
 249              	@ 0 "" 2
 250              	.LVL9:
 251              		.thumb
 252              	.LBE33:
 253              	.LBE32:
 379:Drivers/STM32F1xx_HAL_Driver/Src/stm32f1xx_hal_pwr.c ****   /* Enable the power voltage detector */
 380:Drivers/STM32F1xx_HAL_Driver/Src/stm32f1xx_hal_pwr.c ****   *(__IO uint32_t *) CR_PVDE_BB = (uint32_t)ENABLE;
 254              		.loc 1 380 0
 255 0006 B3FA83F3 		clz	r3, r3
 256              	.LVL10:
 257 000a 9B00     		lsls	r3, r3, #2
 258 000c 03F18443 		add	r3, r3, #1107296256
 259 0010 03F56023 		add	r3, r3, #917504
 260 0014 0122     		movs	r2, #1
 261 0016 1A60     		str	r2, [r3]
 262 0018 7047     		bx	lr
 263              		.cfi_endproc
 264              	.LFE68:
 266              		.section	.text.HAL_PWR_DisablePVD,"ax",%progbits
 267              		.align	1
 268              		.global	HAL_PWR_DisablePVD
 269              		.thumb
 270              		.thumb_func
 272              	HAL_PWR_DisablePVD:
 273              	.LFB69:
 381:Drivers/STM32F1xx_HAL_Driver/Src/stm32f1xx_hal_pwr.c **** }
 382:Drivers/STM32F1xx_HAL_Driver/Src/stm32f1xx_hal_pwr.c **** 
 383:Drivers/STM32F1xx_HAL_Driver/Src/stm32f1xx_hal_pwr.c **** /**
 384:Drivers/STM32F1xx_HAL_Driver/Src/stm32f1xx_hal_pwr.c ****   * @brief  Disables the Power Voltage Detector(PVD).
 385:Drivers/STM32F1xx_HAL_Driver/Src/stm32f1xx_hal_pwr.c ****   * @retval None
 386:Drivers/STM32F1xx_HAL_Driver/Src/stm32f1xx_hal_pwr.c ****   */
 387:Drivers/STM32F1xx_HAL_Driver/Src/stm32f1xx_hal_pwr.c **** void HAL_PWR_DisablePVD(void)
 388:Drivers/STM32F1xx_HAL_Driver/Src/stm32f1xx_hal_pwr.c **** {
 274              		.loc 1 388 0
 275              		.cfi_startproc
 276              		@ args = 0, pretend = 0, frame = 0
 277              		@ frame_needed = 0, uses_anonymous_args = 0
 278              		@ link register save eliminated.
 279              	.LVL11:
 280              	.LBB34:
 281              	.LBB35:
 282              		.loc 2 531 0
 283 0000 1023     		movs	r3, #16
 284              	@ 531 "Drivers/CMSIS/Include/cmsis_gcc.h" 1
 285 0002 93FAA3F3 		rbit r3, r3
 286              	@ 0 "" 2
 287              	.LVL12:
 288              		.thumb
 289              	.LBE35:
 290              	.LBE34:
 389:Drivers/STM32F1xx_HAL_Driver/Src/stm32f1xx_hal_pwr.c ****   /* Disable the power voltage detector */
ARM GAS  /var/folders/19/rz7506jh8xn7x1006s6s574h0000gn/T//ccoB5ljA.s 			page 22


 390:Drivers/STM32F1xx_HAL_Driver/Src/stm32f1xx_hal_pwr.c ****   *(__IO uint32_t *) CR_PVDE_BB = (uint32_t)DISABLE;
 291              		.loc 1 390 0
 292 0006 B3FA83F3 		clz	r3, r3
 293              	.LVL13:
 294 000a 9B00     		lsls	r3, r3, #2
 295 000c 03F18443 		add	r3, r3, #1107296256
 296 0010 03F56023 		add	r3, r3, #917504
 297 0014 0022     		movs	r2, #0
 298 0016 1A60     		str	r2, [r3]
 299 0018 7047     		bx	lr
 300              		.cfi_endproc
 301              	.LFE69:
 303              		.section	.text.HAL_PWR_EnableWakeUpPin,"ax",%progbits
 304              		.align	1
 305              		.global	HAL_PWR_EnableWakeUpPin
 306              		.thumb
 307              		.thumb_func
 309              	HAL_PWR_EnableWakeUpPin:
 310              	.LFB70:
 391:Drivers/STM32F1xx_HAL_Driver/Src/stm32f1xx_hal_pwr.c **** }
 392:Drivers/STM32F1xx_HAL_Driver/Src/stm32f1xx_hal_pwr.c **** 
 393:Drivers/STM32F1xx_HAL_Driver/Src/stm32f1xx_hal_pwr.c **** /**
 394:Drivers/STM32F1xx_HAL_Driver/Src/stm32f1xx_hal_pwr.c ****   * @brief Enables the WakeUp PINx functionality.
 395:Drivers/STM32F1xx_HAL_Driver/Src/stm32f1xx_hal_pwr.c ****   * @param WakeUpPinx: Specifies the Power Wake-Up pin to enable.
 396:Drivers/STM32F1xx_HAL_Driver/Src/stm32f1xx_hal_pwr.c ****   *        This parameter can be one of the following values:
 397:Drivers/STM32F1xx_HAL_Driver/Src/stm32f1xx_hal_pwr.c ****   *           @arg PWR_WAKEUP_PIN1
 398:Drivers/STM32F1xx_HAL_Driver/Src/stm32f1xx_hal_pwr.c ****   * @retval None
 399:Drivers/STM32F1xx_HAL_Driver/Src/stm32f1xx_hal_pwr.c ****   */
 400:Drivers/STM32F1xx_HAL_Driver/Src/stm32f1xx_hal_pwr.c **** void HAL_PWR_EnableWakeUpPin(uint32_t WakeUpPinx)
 401:Drivers/STM32F1xx_HAL_Driver/Src/stm32f1xx_hal_pwr.c **** {
 311              		.loc 1 401 0
 312              		.cfi_startproc
 313              		@ args = 0, pretend = 0, frame = 0
 314              		@ frame_needed = 0, uses_anonymous_args = 0
 315              		@ link register save eliminated.
 316              	.LVL14:
 317              	.LBB36:
 318              	.LBB37:
 319              		.loc 2 531 0
 320              	@ 531 "Drivers/CMSIS/Include/cmsis_gcc.h" 1
 321 0000 90FAA0F0 		rbit r0, r0
 322              	@ 0 "" 2
 323              	.LVL15:
 324              		.thumb
 325              	.LBE37:
 326              	.LBE36:
 402:Drivers/STM32F1xx_HAL_Driver/Src/stm32f1xx_hal_pwr.c ****   /* Check the parameter */
 403:Drivers/STM32F1xx_HAL_Driver/Src/stm32f1xx_hal_pwr.c ****   assert_param(IS_PWR_WAKEUP_PIN(WakeUpPinx));
 404:Drivers/STM32F1xx_HAL_Driver/Src/stm32f1xx_hal_pwr.c ****   /* Enable the EWUPx pin */
 405:Drivers/STM32F1xx_HAL_Driver/Src/stm32f1xx_hal_pwr.c ****   *(__IO uint32_t *) CSR_EWUP_BB(WakeUpPinx) = (uint32_t)ENABLE;
 327              		.loc 1 405 0
 328 0004 034B     		ldr	r3, .L30
 329 0006 B0FA80F0 		clz	r0, r0
 330              	.LVL16:
 331 000a 0122     		movs	r2, #1
 332 000c 43F82020 		str	r2, [r3, r0, lsl #2]
 333 0010 7047     		bx	lr
ARM GAS  /var/folders/19/rz7506jh8xn7x1006s6s574h0000gn/T//ccoB5ljA.s 			page 23


 334              	.L31:
 335 0012 00BF     		.align	2
 336              	.L30:
 337 0014 80000E42 		.word	1108213888
 338              		.cfi_endproc
 339              	.LFE70:
 341              		.section	.text.HAL_PWR_DisableWakeUpPin,"ax",%progbits
 342              		.align	1
 343              		.global	HAL_PWR_DisableWakeUpPin
 344              		.thumb
 345              		.thumb_func
 347              	HAL_PWR_DisableWakeUpPin:
 348              	.LFB71:
 406:Drivers/STM32F1xx_HAL_Driver/Src/stm32f1xx_hal_pwr.c **** }
 407:Drivers/STM32F1xx_HAL_Driver/Src/stm32f1xx_hal_pwr.c **** 
 408:Drivers/STM32F1xx_HAL_Driver/Src/stm32f1xx_hal_pwr.c **** /**
 409:Drivers/STM32F1xx_HAL_Driver/Src/stm32f1xx_hal_pwr.c ****   * @brief Disables the WakeUp PINx functionality.
 410:Drivers/STM32F1xx_HAL_Driver/Src/stm32f1xx_hal_pwr.c ****   * @param WakeUpPinx: Specifies the Power Wake-Up pin to disable.
 411:Drivers/STM32F1xx_HAL_Driver/Src/stm32f1xx_hal_pwr.c ****   *        This parameter can be one of the following values:
 412:Drivers/STM32F1xx_HAL_Driver/Src/stm32f1xx_hal_pwr.c ****   *           @arg PWR_WAKEUP_PIN1
 413:Drivers/STM32F1xx_HAL_Driver/Src/stm32f1xx_hal_pwr.c ****   * @retval None
 414:Drivers/STM32F1xx_HAL_Driver/Src/stm32f1xx_hal_pwr.c ****   */
 415:Drivers/STM32F1xx_HAL_Driver/Src/stm32f1xx_hal_pwr.c **** void HAL_PWR_DisableWakeUpPin(uint32_t WakeUpPinx)
 416:Drivers/STM32F1xx_HAL_Driver/Src/stm32f1xx_hal_pwr.c **** {
 349              		.loc 1 416 0
 350              		.cfi_startproc
 351              		@ args = 0, pretend = 0, frame = 0
 352              		@ frame_needed = 0, uses_anonymous_args = 0
 353              		@ link register save eliminated.
 354              	.LVL17:
 355              	.LBB38:
 356              	.LBB39:
 357              		.loc 2 531 0
 358              	@ 531 "Drivers/CMSIS/Include/cmsis_gcc.h" 1
 359 0000 90FAA0F0 		rbit r0, r0
 360              	@ 0 "" 2
 361              	.LVL18:
 362              		.thumb
 363              	.LBE39:
 364              	.LBE38:
 417:Drivers/STM32F1xx_HAL_Driver/Src/stm32f1xx_hal_pwr.c ****   /* Check the parameter */
 418:Drivers/STM32F1xx_HAL_Driver/Src/stm32f1xx_hal_pwr.c ****   assert_param(IS_PWR_WAKEUP_PIN(WakeUpPinx));
 419:Drivers/STM32F1xx_HAL_Driver/Src/stm32f1xx_hal_pwr.c ****   /* Disable the EWUPx pin */
 420:Drivers/STM32F1xx_HAL_Driver/Src/stm32f1xx_hal_pwr.c ****   *(__IO uint32_t *) CSR_EWUP_BB(WakeUpPinx) = (uint32_t)DISABLE;
 365              		.loc 1 420 0
 366 0004 034B     		ldr	r3, .L33
 367 0006 B0FA80F0 		clz	r0, r0
 368              	.LVL19:
 369 000a 0022     		movs	r2, #0
 370 000c 43F82020 		str	r2, [r3, r0, lsl #2]
 371 0010 7047     		bx	lr
 372              	.L34:
 373 0012 00BF     		.align	2
 374              	.L33:
 375 0014 80000E42 		.word	1108213888
 376              		.cfi_endproc
 377              	.LFE71:
ARM GAS  /var/folders/19/rz7506jh8xn7x1006s6s574h0000gn/T//ccoB5ljA.s 			page 24


 379              		.section	.text.HAL_PWR_EnterSLEEPMode,"ax",%progbits
 380              		.align	1
 381              		.global	HAL_PWR_EnterSLEEPMode
 382              		.thumb
 383              		.thumb_func
 385              	HAL_PWR_EnterSLEEPMode:
 386              	.LFB72:
 421:Drivers/STM32F1xx_HAL_Driver/Src/stm32f1xx_hal_pwr.c **** }
 422:Drivers/STM32F1xx_HAL_Driver/Src/stm32f1xx_hal_pwr.c **** 
 423:Drivers/STM32F1xx_HAL_Driver/Src/stm32f1xx_hal_pwr.c **** /**
 424:Drivers/STM32F1xx_HAL_Driver/Src/stm32f1xx_hal_pwr.c ****   * @brief Enters Sleep mode.
 425:Drivers/STM32F1xx_HAL_Driver/Src/stm32f1xx_hal_pwr.c ****   * @note  In Sleep mode, all I/O pins keep the same state as in Run mode.
 426:Drivers/STM32F1xx_HAL_Driver/Src/stm32f1xx_hal_pwr.c ****   * @param Regulator: Regulator state as no effect in SLEEP mode -  allows to support portability f
 427:Drivers/STM32F1xx_HAL_Driver/Src/stm32f1xx_hal_pwr.c ****   * @param SLEEPEntry: Specifies if SLEEP mode is entered with WFI or WFE instruction.
 428:Drivers/STM32F1xx_HAL_Driver/Src/stm32f1xx_hal_pwr.c ****   *           When WFI entry is used, tick interrupt have to be disabled if not desired as 
 429:Drivers/STM32F1xx_HAL_Driver/Src/stm32f1xx_hal_pwr.c ****   *           the interrupt wake up source.
 430:Drivers/STM32F1xx_HAL_Driver/Src/stm32f1xx_hal_pwr.c ****   *           This parameter can be one of the following values:
 431:Drivers/STM32F1xx_HAL_Driver/Src/stm32f1xx_hal_pwr.c ****   *            @arg PWR_SLEEPENTRY_WFI: enter SLEEP mode with WFI instruction
 432:Drivers/STM32F1xx_HAL_Driver/Src/stm32f1xx_hal_pwr.c ****   *            @arg PWR_SLEEPENTRY_WFE: enter SLEEP mode with WFE instruction
 433:Drivers/STM32F1xx_HAL_Driver/Src/stm32f1xx_hal_pwr.c ****   * @retval None
 434:Drivers/STM32F1xx_HAL_Driver/Src/stm32f1xx_hal_pwr.c ****   */
 435:Drivers/STM32F1xx_HAL_Driver/Src/stm32f1xx_hal_pwr.c **** void HAL_PWR_EnterSLEEPMode(uint32_t Regulator, uint8_t SLEEPEntry)
 436:Drivers/STM32F1xx_HAL_Driver/Src/stm32f1xx_hal_pwr.c **** {
 387              		.loc 1 436 0
 388              		.cfi_startproc
 389              		@ args = 0, pretend = 0, frame = 0
 390              		@ frame_needed = 0, uses_anonymous_args = 0
 391              		@ link register save eliminated.
 392              	.LVL20:
 437:Drivers/STM32F1xx_HAL_Driver/Src/stm32f1xx_hal_pwr.c ****   /* Check the parameters */
 438:Drivers/STM32F1xx_HAL_Driver/Src/stm32f1xx_hal_pwr.c ****   /* No check on Regulator because parameter not used in SLEEP mode */
 439:Drivers/STM32F1xx_HAL_Driver/Src/stm32f1xx_hal_pwr.c ****   assert_param(IS_PWR_SLEEP_ENTRY(SLEEPEntry));
 440:Drivers/STM32F1xx_HAL_Driver/Src/stm32f1xx_hal_pwr.c **** 
 441:Drivers/STM32F1xx_HAL_Driver/Src/stm32f1xx_hal_pwr.c ****   /* Clear SLEEPDEEP bit of Cortex System Control Register */
 442:Drivers/STM32F1xx_HAL_Driver/Src/stm32f1xx_hal_pwr.c ****   CLEAR_BIT(SCB->SCR, ((uint32_t)SCB_SCR_SLEEPDEEP_Msk));
 393              		.loc 1 442 0
 394 0000 064B     		ldr	r3, .L38
 395 0002 1A69     		ldr	r2, [r3, #16]
 443:Drivers/STM32F1xx_HAL_Driver/Src/stm32f1xx_hal_pwr.c **** 
 444:Drivers/STM32F1xx_HAL_Driver/Src/stm32f1xx_hal_pwr.c ****   /* Select SLEEP mode entry -------------------------------------------------*/
 445:Drivers/STM32F1xx_HAL_Driver/Src/stm32f1xx_hal_pwr.c ****   if(SLEEPEntry == PWR_SLEEPENTRY_WFI)
 396              		.loc 1 445 0
 397 0004 0129     		cmp	r1, #1
 442:Drivers/STM32F1xx_HAL_Driver/Src/stm32f1xx_hal_pwr.c ****   CLEAR_BIT(SCB->SCR, ((uint32_t)SCB_SCR_SLEEPDEEP_Msk));
 398              		.loc 1 442 0
 399 0006 22F00402 		bic	r2, r2, #4
 400 000a 1A61     		str	r2, [r3, #16]
 401              		.loc 1 445 0
 402 000c 01D1     		bne	.L36
 403              	.LBB40:
 404              	.LBB41:
 385:Drivers/CMSIS/Include/cmsis_gcc.h ****   __ASM volatile ("wfi");
 405              		.loc 2 385 0
 406              	@ 385 "Drivers/CMSIS/Include/cmsis_gcc.h" 1
 407 000e 30BF     		wfi
 408              	@ 0 "" 2
 409              		.thumb
ARM GAS  /var/folders/19/rz7506jh8xn7x1006s6s574h0000gn/T//ccoB5ljA.s 			page 25


 410 0010 7047     		bx	lr
 411              	.L36:
 412              	.LBE41:
 413              	.LBE40:
 414              	.LBB42:
 415              	.LBB43:
 406:Drivers/CMSIS/Include/cmsis_gcc.h ****   __ASM volatile ("sev");
 416              		.loc 2 406 0
 417              	@ 406 "Drivers/CMSIS/Include/cmsis_gcc.h" 1
 418 0012 40BF     		sev
 419              	@ 0 "" 2
 420              		.thumb
 421              	.LBE43:
 422              	.LBE42:
 423              	.LBB44:
 424              	.LBB45:
 396:Drivers/CMSIS/Include/cmsis_gcc.h ****   __ASM volatile ("wfe");
 425              		.loc 2 396 0
 426              	@ 396 "Drivers/CMSIS/Include/cmsis_gcc.h" 1
 427 0014 20BF     		wfe
 428              	@ 0 "" 2
 429              		.thumb
 430              	.LBE45:
 431              	.LBE44:
 432              	.LBB46:
 433              	.LBB47:
 434              	@ 396 "Drivers/CMSIS/Include/cmsis_gcc.h" 1
 435 0016 20BF     		wfe
 436              	@ 0 "" 2
 437              		.thumb
 438 0018 7047     		bx	lr
 439              	.L39:
 440 001a 00BF     		.align	2
 441              	.L38:
 442 001c 00ED00E0 		.word	-536810240
 443              	.LBE47:
 444              	.LBE46:
 445              		.cfi_endproc
 446              	.LFE72:
 448              		.section	.text.HAL_PWR_EnterSTOPMode,"ax",%progbits
 449              		.align	1
 450              		.global	HAL_PWR_EnterSTOPMode
 451              		.thumb
 452              		.thumb_func
 454              	HAL_PWR_EnterSTOPMode:
 455              	.LFB73:
 446:Drivers/STM32F1xx_HAL_Driver/Src/stm32f1xx_hal_pwr.c ****   {
 447:Drivers/STM32F1xx_HAL_Driver/Src/stm32f1xx_hal_pwr.c ****     /* Request Wait For Interrupt */
 448:Drivers/STM32F1xx_HAL_Driver/Src/stm32f1xx_hal_pwr.c ****     __WFI();
 449:Drivers/STM32F1xx_HAL_Driver/Src/stm32f1xx_hal_pwr.c ****   }
 450:Drivers/STM32F1xx_HAL_Driver/Src/stm32f1xx_hal_pwr.c ****   else
 451:Drivers/STM32F1xx_HAL_Driver/Src/stm32f1xx_hal_pwr.c ****   {
 452:Drivers/STM32F1xx_HAL_Driver/Src/stm32f1xx_hal_pwr.c ****     /* Request Wait For Event */
 453:Drivers/STM32F1xx_HAL_Driver/Src/stm32f1xx_hal_pwr.c ****     __SEV();
 454:Drivers/STM32F1xx_HAL_Driver/Src/stm32f1xx_hal_pwr.c ****     __WFE();
 455:Drivers/STM32F1xx_HAL_Driver/Src/stm32f1xx_hal_pwr.c ****     __WFE();
 456:Drivers/STM32F1xx_HAL_Driver/Src/stm32f1xx_hal_pwr.c ****   }
ARM GAS  /var/folders/19/rz7506jh8xn7x1006s6s574h0000gn/T//ccoB5ljA.s 			page 26


 457:Drivers/STM32F1xx_HAL_Driver/Src/stm32f1xx_hal_pwr.c **** }
 458:Drivers/STM32F1xx_HAL_Driver/Src/stm32f1xx_hal_pwr.c **** 
 459:Drivers/STM32F1xx_HAL_Driver/Src/stm32f1xx_hal_pwr.c **** /**
 460:Drivers/STM32F1xx_HAL_Driver/Src/stm32f1xx_hal_pwr.c ****   * @brief Enters Stop mode. 
 461:Drivers/STM32F1xx_HAL_Driver/Src/stm32f1xx_hal_pwr.c ****   * @note  In Stop mode, all I/O pins keep the same state as in Run mode.
 462:Drivers/STM32F1xx_HAL_Driver/Src/stm32f1xx_hal_pwr.c ****   * @note  When exiting Stop mode by using an interrupt or a wakeup event,
 463:Drivers/STM32F1xx_HAL_Driver/Src/stm32f1xx_hal_pwr.c ****   *        HSI RC oscillator is selected as system clock.
 464:Drivers/STM32F1xx_HAL_Driver/Src/stm32f1xx_hal_pwr.c ****   * @note  When the voltage regulator operates in low power mode, an additional
 465:Drivers/STM32F1xx_HAL_Driver/Src/stm32f1xx_hal_pwr.c ****   *         startup delay is incurred when waking up from Stop mode. 
 466:Drivers/STM32F1xx_HAL_Driver/Src/stm32f1xx_hal_pwr.c ****   *         By keeping the internal regulator ON during Stop mode, the consumption
 467:Drivers/STM32F1xx_HAL_Driver/Src/stm32f1xx_hal_pwr.c ****   *         is higher although the startup time is reduced.    
 468:Drivers/STM32F1xx_HAL_Driver/Src/stm32f1xx_hal_pwr.c ****   * @param Regulator: Specifies the regulator state in Stop mode.
 469:Drivers/STM32F1xx_HAL_Driver/Src/stm32f1xx_hal_pwr.c ****   *          This parameter can be one of the following values:
 470:Drivers/STM32F1xx_HAL_Driver/Src/stm32f1xx_hal_pwr.c ****   *            @arg PWR_MAINREGULATOR_ON: Stop mode with regulator ON
 471:Drivers/STM32F1xx_HAL_Driver/Src/stm32f1xx_hal_pwr.c ****   *            @arg PWR_LOWPOWERREGULATOR_ON: Stop mode with low power regulator ON
 472:Drivers/STM32F1xx_HAL_Driver/Src/stm32f1xx_hal_pwr.c ****   * @param STOPEntry: Specifies if Stop mode in entered with WFI or WFE instruction.
 473:Drivers/STM32F1xx_HAL_Driver/Src/stm32f1xx_hal_pwr.c ****   *          This parameter can be one of the following values:
 474:Drivers/STM32F1xx_HAL_Driver/Src/stm32f1xx_hal_pwr.c ****   *            @arg PWR_STOPENTRY_WFI: Enter Stop mode with WFI instruction
 475:Drivers/STM32F1xx_HAL_Driver/Src/stm32f1xx_hal_pwr.c ****   *            @arg PWR_STOPENTRY_WFE: Enter Stop mode with WFE instruction   
 476:Drivers/STM32F1xx_HAL_Driver/Src/stm32f1xx_hal_pwr.c ****   * @retval None
 477:Drivers/STM32F1xx_HAL_Driver/Src/stm32f1xx_hal_pwr.c ****   */
 478:Drivers/STM32F1xx_HAL_Driver/Src/stm32f1xx_hal_pwr.c **** void HAL_PWR_EnterSTOPMode(uint32_t Regulator, uint8_t STOPEntry)
 479:Drivers/STM32F1xx_HAL_Driver/Src/stm32f1xx_hal_pwr.c **** {
 456              		.loc 1 479 0
 457              		.cfi_startproc
 458              		@ args = 0, pretend = 0, frame = 0
 459              		@ frame_needed = 0, uses_anonymous_args = 0
 460              	.LVL21:
 480:Drivers/STM32F1xx_HAL_Driver/Src/stm32f1xx_hal_pwr.c ****   /* Check the parameters */
 481:Drivers/STM32F1xx_HAL_Driver/Src/stm32f1xx_hal_pwr.c ****   assert_param(IS_PWR_REGULATOR(Regulator));
 482:Drivers/STM32F1xx_HAL_Driver/Src/stm32f1xx_hal_pwr.c ****   assert_param(IS_PWR_STOP_ENTRY(STOPEntry));
 483:Drivers/STM32F1xx_HAL_Driver/Src/stm32f1xx_hal_pwr.c **** 
 484:Drivers/STM32F1xx_HAL_Driver/Src/stm32f1xx_hal_pwr.c ****   /* Clear PDDS bit in PWR register to specify entering in STOP mode when CPU enter in Deepsleep */
 485:Drivers/STM32F1xx_HAL_Driver/Src/stm32f1xx_hal_pwr.c ****   CLEAR_BIT(PWR->CR,  PWR_CR_PDDS);
 461              		.loc 1 485 0
 462 0000 0F4B     		ldr	r3, .L43
 463 0002 1A68     		ldr	r2, [r3]
 464 0004 22F00202 		bic	r2, r2, #2
 479:Drivers/STM32F1xx_HAL_Driver/Src/stm32f1xx_hal_pwr.c **** {
 465              		.loc 1 479 0
 466 0008 10B5     		push	{r4, lr}
 467              	.LCFI0:
 468              		.cfi_def_cfa_offset 8
 469              		.cfi_offset 4, -8
 470              		.cfi_offset 14, -4
 471              		.loc 1 485 0
 472 000a 1A60     		str	r2, [r3]
 486:Drivers/STM32F1xx_HAL_Driver/Src/stm32f1xx_hal_pwr.c **** 
 487:Drivers/STM32F1xx_HAL_Driver/Src/stm32f1xx_hal_pwr.c ****   /* Select the voltage regulator mode by setting LPDS bit in PWR register according to Regulator p
 488:Drivers/STM32F1xx_HAL_Driver/Src/stm32f1xx_hal_pwr.c ****   MODIFY_REG(PWR->CR, PWR_CR_LPDS, Regulator);
 473              		.loc 1 488 0
 474 000c 1A68     		ldr	r2, [r3]
 475 000e 22F00102 		bic	r2, r2, #1
 476 0012 1043     		orrs	r0, r0, r2
 477              	.LVL22:
 478 0014 1860     		str	r0, [r3]
 489:Drivers/STM32F1xx_HAL_Driver/Src/stm32f1xx_hal_pwr.c **** 
ARM GAS  /var/folders/19/rz7506jh8xn7x1006s6s574h0000gn/T//ccoB5ljA.s 			page 27


 490:Drivers/STM32F1xx_HAL_Driver/Src/stm32f1xx_hal_pwr.c ****   /* Set SLEEPDEEP bit of Cortex System Control Register */
 491:Drivers/STM32F1xx_HAL_Driver/Src/stm32f1xx_hal_pwr.c ****   SET_BIT(SCB->SCR, ((uint32_t)SCB_SCR_SLEEPDEEP_Msk));
 479              		.loc 1 491 0
 480 0016 0B4B     		ldr	r3, .L43+4
 481 0018 1A69     		ldr	r2, [r3, #16]
 492:Drivers/STM32F1xx_HAL_Driver/Src/stm32f1xx_hal_pwr.c **** 
 493:Drivers/STM32F1xx_HAL_Driver/Src/stm32f1xx_hal_pwr.c ****   /* Select Stop mode entry --------------------------------------------------*/
 494:Drivers/STM32F1xx_HAL_Driver/Src/stm32f1xx_hal_pwr.c ****   if(STOPEntry == PWR_STOPENTRY_WFI)
 482              		.loc 1 494 0
 483 001a 0129     		cmp	r1, #1
 491:Drivers/STM32F1xx_HAL_Driver/Src/stm32f1xx_hal_pwr.c ****   SET_BIT(SCB->SCR, ((uint32_t)SCB_SCR_SLEEPDEEP_Msk));
 484              		.loc 1 491 0
 485 001c 42F00402 		orr	r2, r2, #4
 486 0020 1A61     		str	r2, [r3, #16]
 487 0022 1C46     		mov	r4, r3
 488              		.loc 1 494 0
 489 0024 01D1     		bne	.L41
 490              	.LBB48:
 491              	.LBB49:
 385:Drivers/CMSIS/Include/cmsis_gcc.h ****   __ASM volatile ("wfi");
 492              		.loc 2 385 0
 493              	@ 385 "Drivers/CMSIS/Include/cmsis_gcc.h" 1
 494 0026 30BF     		wfi
 495              	@ 0 "" 2
 496              		.thumb
 497 0028 04E0     		b	.L42
 498              	.L41:
 499              	.LBE49:
 500              	.LBE48:
 501              	.LBB50:
 502              	.LBB51:
 406:Drivers/CMSIS/Include/cmsis_gcc.h ****   __ASM volatile ("sev");
 503              		.loc 2 406 0
 504              	@ 406 "Drivers/CMSIS/Include/cmsis_gcc.h" 1
 505 002a 40BF     		sev
 506              	@ 0 "" 2
 507              		.thumb
 508              	.LBE51:
 509              	.LBE50:
 495:Drivers/STM32F1xx_HAL_Driver/Src/stm32f1xx_hal_pwr.c ****   {
 496:Drivers/STM32F1xx_HAL_Driver/Src/stm32f1xx_hal_pwr.c ****     /* Request Wait For Interrupt */
 497:Drivers/STM32F1xx_HAL_Driver/Src/stm32f1xx_hal_pwr.c ****     __WFI();
 498:Drivers/STM32F1xx_HAL_Driver/Src/stm32f1xx_hal_pwr.c ****   }
 499:Drivers/STM32F1xx_HAL_Driver/Src/stm32f1xx_hal_pwr.c ****   else
 500:Drivers/STM32F1xx_HAL_Driver/Src/stm32f1xx_hal_pwr.c ****   {
 501:Drivers/STM32F1xx_HAL_Driver/Src/stm32f1xx_hal_pwr.c ****     /* Request Wait For Event */
 502:Drivers/STM32F1xx_HAL_Driver/Src/stm32f1xx_hal_pwr.c ****     __SEV();
 503:Drivers/STM32F1xx_HAL_Driver/Src/stm32f1xx_hal_pwr.c ****     PWR_OverloadWfe(); /* WFE redefine locally */
 510              		.loc 1 503 0
 511 002c FFF7FEFF 		bl	PWR_OverloadWfe
 512              	.LVL23:
 504:Drivers/STM32F1xx_HAL_Driver/Src/stm32f1xx_hal_pwr.c ****     PWR_OverloadWfe(); /* WFE redefine locally */
 513              		.loc 1 504 0
 514 0030 FFF7FEFF 		bl	PWR_OverloadWfe
 515              	.LVL24:
 516              	.L42:
 505:Drivers/STM32F1xx_HAL_Driver/Src/stm32f1xx_hal_pwr.c ****   }
ARM GAS  /var/folders/19/rz7506jh8xn7x1006s6s574h0000gn/T//ccoB5ljA.s 			page 28


 506:Drivers/STM32F1xx_HAL_Driver/Src/stm32f1xx_hal_pwr.c ****   /* Reset SLEEPDEEP bit of Cortex System Control Register */
 507:Drivers/STM32F1xx_HAL_Driver/Src/stm32f1xx_hal_pwr.c ****   CLEAR_BIT(SCB->SCR, ((uint32_t)SCB_SCR_SLEEPDEEP_Msk));
 517              		.loc 1 507 0
 518 0034 2369     		ldr	r3, [r4, #16]
 519 0036 23F00403 		bic	r3, r3, #4
 520 003a 2361     		str	r3, [r4, #16]
 521 003c 10BD     		pop	{r4, pc}
 522              	.L44:
 523 003e 00BF     		.align	2
 524              	.L43:
 525 0040 00700040 		.word	1073770496
 526 0044 00ED00E0 		.word	-536810240
 527              		.cfi_endproc
 528              	.LFE73:
 530              		.section	.text.HAL_PWR_EnterSTANDBYMode,"ax",%progbits
 531              		.align	1
 532              		.global	HAL_PWR_EnterSTANDBYMode
 533              		.thumb
 534              		.thumb_func
 536              	HAL_PWR_EnterSTANDBYMode:
 537              	.LFB74:
 508:Drivers/STM32F1xx_HAL_Driver/Src/stm32f1xx_hal_pwr.c **** }
 509:Drivers/STM32F1xx_HAL_Driver/Src/stm32f1xx_hal_pwr.c **** 
 510:Drivers/STM32F1xx_HAL_Driver/Src/stm32f1xx_hal_pwr.c **** /**
 511:Drivers/STM32F1xx_HAL_Driver/Src/stm32f1xx_hal_pwr.c ****   * @brief Enters Standby mode.
 512:Drivers/STM32F1xx_HAL_Driver/Src/stm32f1xx_hal_pwr.c ****   * @note  In Standby mode, all I/O pins are high impedance except for:
 513:Drivers/STM32F1xx_HAL_Driver/Src/stm32f1xx_hal_pwr.c ****   *          - Reset pad (still available) 
 514:Drivers/STM32F1xx_HAL_Driver/Src/stm32f1xx_hal_pwr.c ****   *          - TAMPER pin if configured for tamper or calibration out.
 515:Drivers/STM32F1xx_HAL_Driver/Src/stm32f1xx_hal_pwr.c ****   *          - WKUP pin (PA0) if enabled.
 516:Drivers/STM32F1xx_HAL_Driver/Src/stm32f1xx_hal_pwr.c ****   * @retval None
 517:Drivers/STM32F1xx_HAL_Driver/Src/stm32f1xx_hal_pwr.c ****   */
 518:Drivers/STM32F1xx_HAL_Driver/Src/stm32f1xx_hal_pwr.c **** void HAL_PWR_EnterSTANDBYMode(void)
 519:Drivers/STM32F1xx_HAL_Driver/Src/stm32f1xx_hal_pwr.c **** {
 538              		.loc 1 519 0
 539              		.cfi_startproc
 540              		@ args = 0, pretend = 0, frame = 0
 541              		@ frame_needed = 0, uses_anonymous_args = 0
 542              		@ link register save eliminated.
 520:Drivers/STM32F1xx_HAL_Driver/Src/stm32f1xx_hal_pwr.c ****   /* Select Standby mode */
 521:Drivers/STM32F1xx_HAL_Driver/Src/stm32f1xx_hal_pwr.c ****   SET_BIT(PWR->CR, PWR_CR_PDDS);
 543              		.loc 1 521 0
 544 0000 054B     		ldr	r3, .L46
 545 0002 1A68     		ldr	r2, [r3]
 546 0004 42F00202 		orr	r2, r2, #2
 547 0008 1A60     		str	r2, [r3]
 522:Drivers/STM32F1xx_HAL_Driver/Src/stm32f1xx_hal_pwr.c **** 
 523:Drivers/STM32F1xx_HAL_Driver/Src/stm32f1xx_hal_pwr.c ****   /* Set SLEEPDEEP bit of Cortex System Control Register */
 524:Drivers/STM32F1xx_HAL_Driver/Src/stm32f1xx_hal_pwr.c ****   SET_BIT(SCB->SCR, ((uint32_t)SCB_SCR_SLEEPDEEP_Msk));
 548              		.loc 1 524 0
 549 000a 044B     		ldr	r3, .L46+4
 550 000c 1A69     		ldr	r2, [r3, #16]
 551 000e 42F00402 		orr	r2, r2, #4
 552 0012 1A61     		str	r2, [r3, #16]
 553              	.LBB52:
 554              	.LBB53:
 385:Drivers/CMSIS/Include/cmsis_gcc.h ****   __ASM volatile ("wfi");
 555              		.loc 2 385 0
ARM GAS  /var/folders/19/rz7506jh8xn7x1006s6s574h0000gn/T//ccoB5ljA.s 			page 29


 556              	@ 385 "Drivers/CMSIS/Include/cmsis_gcc.h" 1
 557 0014 30BF     		wfi
 558              	@ 0 "" 2
 559              		.thumb
 560 0016 7047     		bx	lr
 561              	.L47:
 562              		.align	2
 563              	.L46:
 564 0018 00700040 		.word	1073770496
 565 001c 00ED00E0 		.word	-536810240
 566              	.LBE53:
 567              	.LBE52:
 568              		.cfi_endproc
 569              	.LFE74:
 571              		.section	.text.HAL_PWR_EnableSleepOnExit,"ax",%progbits
 572              		.align	1
 573              		.global	HAL_PWR_EnableSleepOnExit
 574              		.thumb
 575              		.thumb_func
 577              	HAL_PWR_EnableSleepOnExit:
 578              	.LFB75:
 525:Drivers/STM32F1xx_HAL_Driver/Src/stm32f1xx_hal_pwr.c **** 
 526:Drivers/STM32F1xx_HAL_Driver/Src/stm32f1xx_hal_pwr.c ****   /* This option is used to ensure that store operations are completed */
 527:Drivers/STM32F1xx_HAL_Driver/Src/stm32f1xx_hal_pwr.c **** #if defined ( __CC_ARM)
 528:Drivers/STM32F1xx_HAL_Driver/Src/stm32f1xx_hal_pwr.c ****   __force_stores();
 529:Drivers/STM32F1xx_HAL_Driver/Src/stm32f1xx_hal_pwr.c **** #endif
 530:Drivers/STM32F1xx_HAL_Driver/Src/stm32f1xx_hal_pwr.c ****   /* Request Wait For Interrupt */
 531:Drivers/STM32F1xx_HAL_Driver/Src/stm32f1xx_hal_pwr.c ****   __WFI();
 532:Drivers/STM32F1xx_HAL_Driver/Src/stm32f1xx_hal_pwr.c **** }
 533:Drivers/STM32F1xx_HAL_Driver/Src/stm32f1xx_hal_pwr.c **** 
 534:Drivers/STM32F1xx_HAL_Driver/Src/stm32f1xx_hal_pwr.c **** 
 535:Drivers/STM32F1xx_HAL_Driver/Src/stm32f1xx_hal_pwr.c **** /**
 536:Drivers/STM32F1xx_HAL_Driver/Src/stm32f1xx_hal_pwr.c ****   * @brief Indicates Sleep-On-Exit when returning from Handler mode to Thread mode. 
 537:Drivers/STM32F1xx_HAL_Driver/Src/stm32f1xx_hal_pwr.c ****   * @note Set SLEEPONEXIT bit of SCR register. When this bit is set, the processor 
 538:Drivers/STM32F1xx_HAL_Driver/Src/stm32f1xx_hal_pwr.c ****   *       re-enters SLEEP mode when an interruption handling is over.
 539:Drivers/STM32F1xx_HAL_Driver/Src/stm32f1xx_hal_pwr.c ****   *       Setting this bit is useful when the processor is expected to run only on
 540:Drivers/STM32F1xx_HAL_Driver/Src/stm32f1xx_hal_pwr.c ****   *       interruptions handling.         
 541:Drivers/STM32F1xx_HAL_Driver/Src/stm32f1xx_hal_pwr.c ****   * @retval None
 542:Drivers/STM32F1xx_HAL_Driver/Src/stm32f1xx_hal_pwr.c ****   */
 543:Drivers/STM32F1xx_HAL_Driver/Src/stm32f1xx_hal_pwr.c **** void HAL_PWR_EnableSleepOnExit(void)
 544:Drivers/STM32F1xx_HAL_Driver/Src/stm32f1xx_hal_pwr.c **** {
 579              		.loc 1 544 0
 580              		.cfi_startproc
 581              		@ args = 0, pretend = 0, frame = 0
 582              		@ frame_needed = 0, uses_anonymous_args = 0
 583              		@ link register save eliminated.
 545:Drivers/STM32F1xx_HAL_Driver/Src/stm32f1xx_hal_pwr.c ****   /* Set SLEEPONEXIT bit of Cortex System Control Register */
 546:Drivers/STM32F1xx_HAL_Driver/Src/stm32f1xx_hal_pwr.c ****   SET_BIT(SCB->SCR, ((uint32_t)SCB_SCR_SLEEPONEXIT_Msk));
 584              		.loc 1 546 0
 585 0000 024B     		ldr	r3, .L49
 586 0002 1A69     		ldr	r2, [r3, #16]
 587 0004 42F00202 		orr	r2, r2, #2
 588 0008 1A61     		str	r2, [r3, #16]
 589 000a 7047     		bx	lr
 590              	.L50:
 591              		.align	2
 592              	.L49:
ARM GAS  /var/folders/19/rz7506jh8xn7x1006s6s574h0000gn/T//ccoB5ljA.s 			page 30


 593 000c 00ED00E0 		.word	-536810240
 594              		.cfi_endproc
 595              	.LFE75:
 597              		.section	.text.HAL_PWR_DisableSleepOnExit,"ax",%progbits
 598              		.align	1
 599              		.global	HAL_PWR_DisableSleepOnExit
 600              		.thumb
 601              		.thumb_func
 603              	HAL_PWR_DisableSleepOnExit:
 604              	.LFB76:
 547:Drivers/STM32F1xx_HAL_Driver/Src/stm32f1xx_hal_pwr.c **** }
 548:Drivers/STM32F1xx_HAL_Driver/Src/stm32f1xx_hal_pwr.c **** 
 549:Drivers/STM32F1xx_HAL_Driver/Src/stm32f1xx_hal_pwr.c **** 
 550:Drivers/STM32F1xx_HAL_Driver/Src/stm32f1xx_hal_pwr.c **** /**
 551:Drivers/STM32F1xx_HAL_Driver/Src/stm32f1xx_hal_pwr.c ****   * @brief Disables Sleep-On-Exit feature when returning from Handler mode to Thread mode. 
 552:Drivers/STM32F1xx_HAL_Driver/Src/stm32f1xx_hal_pwr.c ****   * @note Clears SLEEPONEXIT bit of SCR register. When this bit is set, the processor 
 553:Drivers/STM32F1xx_HAL_Driver/Src/stm32f1xx_hal_pwr.c ****   *       re-enters SLEEP mode when an interruption handling is over.          
 554:Drivers/STM32F1xx_HAL_Driver/Src/stm32f1xx_hal_pwr.c ****   * @retval None
 555:Drivers/STM32F1xx_HAL_Driver/Src/stm32f1xx_hal_pwr.c ****   */
 556:Drivers/STM32F1xx_HAL_Driver/Src/stm32f1xx_hal_pwr.c **** void HAL_PWR_DisableSleepOnExit(void)
 557:Drivers/STM32F1xx_HAL_Driver/Src/stm32f1xx_hal_pwr.c **** {
 605              		.loc 1 557 0
 606              		.cfi_startproc
 607              		@ args = 0, pretend = 0, frame = 0
 608              		@ frame_needed = 0, uses_anonymous_args = 0
 609              		@ link register save eliminated.
 558:Drivers/STM32F1xx_HAL_Driver/Src/stm32f1xx_hal_pwr.c ****   /* Clear SLEEPONEXIT bit of Cortex System Control Register */
 559:Drivers/STM32F1xx_HAL_Driver/Src/stm32f1xx_hal_pwr.c ****   CLEAR_BIT(SCB->SCR, ((uint32_t)SCB_SCR_SLEEPONEXIT_Msk));
 610              		.loc 1 559 0
 611 0000 024B     		ldr	r3, .L52
 612 0002 1A69     		ldr	r2, [r3, #16]
 613 0004 22F00202 		bic	r2, r2, #2
 614 0008 1A61     		str	r2, [r3, #16]
 615 000a 7047     		bx	lr
 616              	.L53:
 617              		.align	2
 618              	.L52:
 619 000c 00ED00E0 		.word	-536810240
 620              		.cfi_endproc
 621              	.LFE76:
 623              		.section	.text.HAL_PWR_EnableSEVOnPend,"ax",%progbits
 624              		.align	1
 625              		.global	HAL_PWR_EnableSEVOnPend
 626              		.thumb
 627              		.thumb_func
 629              	HAL_PWR_EnableSEVOnPend:
 630              	.LFB77:
 560:Drivers/STM32F1xx_HAL_Driver/Src/stm32f1xx_hal_pwr.c **** }
 561:Drivers/STM32F1xx_HAL_Driver/Src/stm32f1xx_hal_pwr.c **** 
 562:Drivers/STM32F1xx_HAL_Driver/Src/stm32f1xx_hal_pwr.c **** 
 563:Drivers/STM32F1xx_HAL_Driver/Src/stm32f1xx_hal_pwr.c **** /**
 564:Drivers/STM32F1xx_HAL_Driver/Src/stm32f1xx_hal_pwr.c ****   * @brief Enables CORTEX M3 SEVONPEND bit. 
 565:Drivers/STM32F1xx_HAL_Driver/Src/stm32f1xx_hal_pwr.c ****   * @note Sets SEVONPEND bit of SCR register. When this bit is set, this causes 
 566:Drivers/STM32F1xx_HAL_Driver/Src/stm32f1xx_hal_pwr.c ****   *       WFE to wake up when an interrupt moves from inactive to pended.
 567:Drivers/STM32F1xx_HAL_Driver/Src/stm32f1xx_hal_pwr.c ****   * @retval None
 568:Drivers/STM32F1xx_HAL_Driver/Src/stm32f1xx_hal_pwr.c ****   */
 569:Drivers/STM32F1xx_HAL_Driver/Src/stm32f1xx_hal_pwr.c **** void HAL_PWR_EnableSEVOnPend(void)
ARM GAS  /var/folders/19/rz7506jh8xn7x1006s6s574h0000gn/T//ccoB5ljA.s 			page 31


 570:Drivers/STM32F1xx_HAL_Driver/Src/stm32f1xx_hal_pwr.c **** {
 631              		.loc 1 570 0
 632              		.cfi_startproc
 633              		@ args = 0, pretend = 0, frame = 0
 634              		@ frame_needed = 0, uses_anonymous_args = 0
 635              		@ link register save eliminated.
 571:Drivers/STM32F1xx_HAL_Driver/Src/stm32f1xx_hal_pwr.c ****   /* Set SEVONPEND bit of Cortex System Control Register */
 572:Drivers/STM32F1xx_HAL_Driver/Src/stm32f1xx_hal_pwr.c ****   SET_BIT(SCB->SCR, ((uint32_t)SCB_SCR_SEVONPEND_Msk));
 636              		.loc 1 572 0
 637 0000 024B     		ldr	r3, .L55
 638 0002 1A69     		ldr	r2, [r3, #16]
 639 0004 42F01002 		orr	r2, r2, #16
 640 0008 1A61     		str	r2, [r3, #16]
 641 000a 7047     		bx	lr
 642              	.L56:
 643              		.align	2
 644              	.L55:
 645 000c 00ED00E0 		.word	-536810240
 646              		.cfi_endproc
 647              	.LFE77:
 649              		.section	.text.HAL_PWR_DisableSEVOnPend,"ax",%progbits
 650              		.align	1
 651              		.global	HAL_PWR_DisableSEVOnPend
 652              		.thumb
 653              		.thumb_func
 655              	HAL_PWR_DisableSEVOnPend:
 656              	.LFB78:
 573:Drivers/STM32F1xx_HAL_Driver/Src/stm32f1xx_hal_pwr.c **** }
 574:Drivers/STM32F1xx_HAL_Driver/Src/stm32f1xx_hal_pwr.c **** 
 575:Drivers/STM32F1xx_HAL_Driver/Src/stm32f1xx_hal_pwr.c **** 
 576:Drivers/STM32F1xx_HAL_Driver/Src/stm32f1xx_hal_pwr.c **** /**
 577:Drivers/STM32F1xx_HAL_Driver/Src/stm32f1xx_hal_pwr.c ****   * @brief Disables CORTEX M3 SEVONPEND bit. 
 578:Drivers/STM32F1xx_HAL_Driver/Src/stm32f1xx_hal_pwr.c ****   * @note Clears SEVONPEND bit of SCR register. When this bit is set, this causes 
 579:Drivers/STM32F1xx_HAL_Driver/Src/stm32f1xx_hal_pwr.c ****   *       WFE to wake up when an interrupt moves from inactive to pended.         
 580:Drivers/STM32F1xx_HAL_Driver/Src/stm32f1xx_hal_pwr.c ****   * @retval None
 581:Drivers/STM32F1xx_HAL_Driver/Src/stm32f1xx_hal_pwr.c ****   */
 582:Drivers/STM32F1xx_HAL_Driver/Src/stm32f1xx_hal_pwr.c **** void HAL_PWR_DisableSEVOnPend(void)
 583:Drivers/STM32F1xx_HAL_Driver/Src/stm32f1xx_hal_pwr.c **** {
 657              		.loc 1 583 0
 658              		.cfi_startproc
 659              		@ args = 0, pretend = 0, frame = 0
 660              		@ frame_needed = 0, uses_anonymous_args = 0
 661              		@ link register save eliminated.
 584:Drivers/STM32F1xx_HAL_Driver/Src/stm32f1xx_hal_pwr.c ****   /* Clear SEVONPEND bit of Cortex System Control Register */
 585:Drivers/STM32F1xx_HAL_Driver/Src/stm32f1xx_hal_pwr.c ****   CLEAR_BIT(SCB->SCR, ((uint32_t)SCB_SCR_SEVONPEND_Msk));
 662              		.loc 1 585 0
 663 0000 024B     		ldr	r3, .L58
 664 0002 1A69     		ldr	r2, [r3, #16]
 665 0004 22F01002 		bic	r2, r2, #16
 666 0008 1A61     		str	r2, [r3, #16]
 667 000a 7047     		bx	lr
 668              	.L59:
 669              		.align	2
 670              	.L58:
 671 000c 00ED00E0 		.word	-536810240
 672              		.cfi_endproc
 673              	.LFE78:
ARM GAS  /var/folders/19/rz7506jh8xn7x1006s6s574h0000gn/T//ccoB5ljA.s 			page 32


 675              		.section	.text.HAL_PWR_PVDCallback,"ax",%progbits
 676              		.align	1
 677              		.weak	HAL_PWR_PVDCallback
 678              		.thumb
 679              		.thumb_func
 681              	HAL_PWR_PVDCallback:
 682              	.LFB80:
 586:Drivers/STM32F1xx_HAL_Driver/Src/stm32f1xx_hal_pwr.c **** }
 587:Drivers/STM32F1xx_HAL_Driver/Src/stm32f1xx_hal_pwr.c **** 
 588:Drivers/STM32F1xx_HAL_Driver/Src/stm32f1xx_hal_pwr.c **** 
 589:Drivers/STM32F1xx_HAL_Driver/Src/stm32f1xx_hal_pwr.c **** 
 590:Drivers/STM32F1xx_HAL_Driver/Src/stm32f1xx_hal_pwr.c **** /**
 591:Drivers/STM32F1xx_HAL_Driver/Src/stm32f1xx_hal_pwr.c ****   * @brief  This function handles the PWR PVD interrupt request.
 592:Drivers/STM32F1xx_HAL_Driver/Src/stm32f1xx_hal_pwr.c ****   * @note   This API should be called under the PVD_IRQHandler().
 593:Drivers/STM32F1xx_HAL_Driver/Src/stm32f1xx_hal_pwr.c ****   * @retval None
 594:Drivers/STM32F1xx_HAL_Driver/Src/stm32f1xx_hal_pwr.c ****   */
 595:Drivers/STM32F1xx_HAL_Driver/Src/stm32f1xx_hal_pwr.c **** void HAL_PWR_PVD_IRQHandler(void)
 596:Drivers/STM32F1xx_HAL_Driver/Src/stm32f1xx_hal_pwr.c **** {
 597:Drivers/STM32F1xx_HAL_Driver/Src/stm32f1xx_hal_pwr.c ****   /* Check PWR exti flag */
 598:Drivers/STM32F1xx_HAL_Driver/Src/stm32f1xx_hal_pwr.c ****   if(__HAL_PWR_PVD_EXTI_GET_FLAG() != RESET)
 599:Drivers/STM32F1xx_HAL_Driver/Src/stm32f1xx_hal_pwr.c ****   {
 600:Drivers/STM32F1xx_HAL_Driver/Src/stm32f1xx_hal_pwr.c ****     /* PWR PVD interrupt user callback */
 601:Drivers/STM32F1xx_HAL_Driver/Src/stm32f1xx_hal_pwr.c ****     HAL_PWR_PVDCallback();
 602:Drivers/STM32F1xx_HAL_Driver/Src/stm32f1xx_hal_pwr.c **** 
 603:Drivers/STM32F1xx_HAL_Driver/Src/stm32f1xx_hal_pwr.c ****     /* Clear PWR Exti pending bit */
 604:Drivers/STM32F1xx_HAL_Driver/Src/stm32f1xx_hal_pwr.c ****     __HAL_PWR_PVD_EXTI_CLEAR_FLAG();
 605:Drivers/STM32F1xx_HAL_Driver/Src/stm32f1xx_hal_pwr.c ****   }
 606:Drivers/STM32F1xx_HAL_Driver/Src/stm32f1xx_hal_pwr.c **** }
 607:Drivers/STM32F1xx_HAL_Driver/Src/stm32f1xx_hal_pwr.c **** 
 608:Drivers/STM32F1xx_HAL_Driver/Src/stm32f1xx_hal_pwr.c **** /**
 609:Drivers/STM32F1xx_HAL_Driver/Src/stm32f1xx_hal_pwr.c ****   * @brief  PWR PVD interrupt callback
 610:Drivers/STM32F1xx_HAL_Driver/Src/stm32f1xx_hal_pwr.c ****   * @retval None
 611:Drivers/STM32F1xx_HAL_Driver/Src/stm32f1xx_hal_pwr.c ****   */
 612:Drivers/STM32F1xx_HAL_Driver/Src/stm32f1xx_hal_pwr.c **** __weak void HAL_PWR_PVDCallback(void)
 613:Drivers/STM32F1xx_HAL_Driver/Src/stm32f1xx_hal_pwr.c **** {
 683              		.loc 1 613 0
 684              		.cfi_startproc
 685              		@ args = 0, pretend = 0, frame = 0
 686              		@ frame_needed = 0, uses_anonymous_args = 0
 687              		@ link register save eliminated.
 688 0000 7047     		bx	lr
 689              		.cfi_endproc
 690              	.LFE80:
 692              		.section	.text.HAL_PWR_PVD_IRQHandler,"ax",%progbits
 693              		.align	1
 694              		.global	HAL_PWR_PVD_IRQHandler
 695              		.thumb
 696              		.thumb_func
 698              	HAL_PWR_PVD_IRQHandler:
 699              	.LFB79:
 596:Drivers/STM32F1xx_HAL_Driver/Src/stm32f1xx_hal_pwr.c **** {
 700              		.loc 1 596 0
 701              		.cfi_startproc
 702              		@ args = 0, pretend = 0, frame = 0
 703              		@ frame_needed = 0, uses_anonymous_args = 0
 596:Drivers/STM32F1xx_HAL_Driver/Src/stm32f1xx_hal_pwr.c **** {
 704              		.loc 1 596 0
ARM GAS  /var/folders/19/rz7506jh8xn7x1006s6s574h0000gn/T//ccoB5ljA.s 			page 33


 705 0000 10B5     		push	{r4, lr}
 706              	.LCFI1:
 707              		.cfi_def_cfa_offset 8
 708              		.cfi_offset 4, -8
 709              		.cfi_offset 14, -4
 598:Drivers/STM32F1xx_HAL_Driver/Src/stm32f1xx_hal_pwr.c ****   if(__HAL_PWR_PVD_EXTI_GET_FLAG() != RESET)
 710              		.loc 1 598 0
 711 0002 054C     		ldr	r4, .L66
 712 0004 6369     		ldr	r3, [r4, #20]
 713 0006 DB03     		lsls	r3, r3, #15
 714 0008 04D5     		bpl	.L61
 601:Drivers/STM32F1xx_HAL_Driver/Src/stm32f1xx_hal_pwr.c ****     HAL_PWR_PVDCallback();
 715              		.loc 1 601 0
 716 000a FFF7FEFF 		bl	HAL_PWR_PVDCallback
 717              	.LVL25:
 604:Drivers/STM32F1xx_HAL_Driver/Src/stm32f1xx_hal_pwr.c ****     __HAL_PWR_PVD_EXTI_CLEAR_FLAG();
 718              		.loc 1 604 0
 719 000e 4FF48033 		mov	r3, #65536
 720 0012 6361     		str	r3, [r4, #20]
 721              	.L61:
 722 0014 10BD     		pop	{r4, pc}
 723              	.L67:
 724 0016 00BF     		.align	2
 725              	.L66:
 726 0018 00040140 		.word	1073808384
 727              		.cfi_endproc
 728              	.LFE79:
 730              		.text
 731              	.Letext0:
 732              		.file 3 "/Users/Arethusa/Library/Arduino15/packages/arduino/tools/arm-none-eabi-gcc/4.8.3-2014q1/a
 733              		.file 4 "/Users/Arethusa/Library/Arduino15/packages/arduino/tools/arm-none-eabi-gcc/4.8.3-2014q1/a
 734              		.file 5 "Drivers/CMSIS/Include/core_cm3.h"
 735              		.file 6 "Drivers/CMSIS/Device/ST/STM32F1xx/Include/stm32f103xe.h"
 736              		.file 7 "Drivers/CMSIS/Device/ST/STM32F1xx/Include/stm32f1xx.h"
 737              		.file 8 "Drivers/STM32F1xx_HAL_Driver/Inc/stm32f1xx_hal_pwr.h"
ARM GAS  /var/folders/19/rz7506jh8xn7x1006s6s574h0000gn/T//ccoB5ljA.s 			page 34

